

Microchip MPLAB XC8 Assembler V2.46 build 20240104201356 
                                                                                               Sun Dec 15 14:44:16 2024

Microchip MPLAB XC8 C Compiler v2.46 (Free license) build 20240104201356 Og1 
     1                           	processor	16F877A
     2                           	pagewidth 120
     3                           	opt	flic
     4                           	psect	strings,global,class=STRING,delta=2,noexec
     5                           	psect	cinit,global,class=CODE,merge=1,delta=2
     6                           	psect	bssBANK1,global,class=BANK1,space=1,delta=1,noexec
     7                           	psect	bssBANK3,global,class=BANK3,space=1,delta=1,noexec
     8                           	psect	bssBANK2,global,class=BANK2,space=1,delta=1,noexec
     9                           	psect	clrtext,global,class=CODE,delta=2
    10                           	psect	cstackBANK3,global,class=BANK3,space=1,delta=1,noexec
    11                           	psect	cstackBANK1,global,class=BANK1,space=1,delta=1,noexec
    12                           	psect	cstackCOMMON,global,class=COMMON,space=1,delta=1,noexec
    13                           	psect	cstackBANK0,global,class=BANK0,space=1,delta=1,noexec
    14                           	psect	maintext,global,class=CODE,split=1,delta=2
    15                           	psect	text1,local,class=CODE,merge=1,delta=2,group=3
    16                           	psect	text2,local,class=CODE,merge=1,delta=2,group=1
    17                           	psect	text3,local,class=CODE,merge=1,delta=2,group=1
    18                           	psect	text4,local,class=CODE,merge=1,delta=2,group=1
    19                           	psect	text5,local,class=CODE,merge=1,delta=2,group=2
    20                           	psect	text6,local,class=CODE,merge=1,delta=2,group=1
    21                           	psect	text7,local,class=CODE,merge=1,delta=2,group=3
    22                           	psect	text8,local,class=CODE,merge=1,delta=2,group=1
    23                           	psect	text9,local,class=CODE,merge=1,delta=2,group=3
    24                           	psect	text10,local,class=CODE,merge=1,delta=2,group=3
    25                           	psect	text11,local,class=CODE,merge=1,delta=2,group=3
    26                           	psect	text12,local,class=CODE,merge=1,delta=2,group=3
    27                           	psect	text13,local,class=CODE,merge=1,delta=2,group=3
    28                           	psect	text14,local,class=CODE,merge=1,delta=2,group=3
    29                           	psect	text15,local,class=CODE,merge=1,delta=2,group=3
    30                           	psect	text16,local,class=CODE,merge=1,delta=2,group=2
    31                           	psect	text17,local,class=CODE,merge=1,delta=2,group=2
    32                           	psect	text18,local,class=CODE,merge=1,delta=2,group=2
    33                           	psect	text19,local,class=CODE,merge=1,delta=2,group=2
    34                           	psect	text20,local,class=CODE,merge=1,delta=2,group=2
    35                           	psect	text21,local,class=CODE,merge=1,delta=2,group=2
    36                           	psect	text22,local,class=CODE,merge=1,delta=2,group=2
    37                           	psect	text23,local,class=CODE,merge=1,delta=2,group=2
    38                           	psect	text24,local,class=CODE,merge=1,delta=2,group=2
    39                           	psect	text25,local,class=CODE,merge=1,delta=2,group=2
    40                           	psect	text26,local,class=CODE,merge=1,delta=2
    41                           	psect	text27,local,class=CODE,merge=1,delta=2
    42                           	psect	text28,local,class=CODE,merge=1,delta=2
    43                           	psect	text29,local,class=CODE,merge=1,delta=2
    44                           	psect	text30,local,class=CODE,merge=1,delta=2
    45                           	psect	text31,local,class=CODE,merge=1,delta=2
    46                           	psect	text32,local,class=CODE,merge=1,delta=2
    47                           	psect	text33,local,class=CODE,merge=1,delta=2
    48                           	psect	text34,local,class=CODE,merge=1,delta=2
    49                           	psect	text35,local,class=CODE,merge=1,delta=2
    50                           	psect	config,global,abs,ovrld,class=CONFIG,space=4,delta=2,noexec
    51                           	psect	text6_split_1,local,class=CODE,merge=1,delta=2
    52                           	dabs	1,0x7E,2
    53     0000                     
    54                           ; Generated 12/10/2023 GMT
    55                           ; 
    56                           ; Copyright © 2023, Microchip Technology Inc. and its subsidiaries ("Microchip")
    57                           ; All rights reserved.
    58                           ; 
    59                           ; This software is developed by Microchip Technology Inc. and its subsidiaries ("Microch
      +                          ip").
    60                           ; 
    61                           ; Redistribution and use in source and binary forms, with or without modification, are
    62                           ; permitted provided that the following conditions are met:
    63                           ; 
    64                           ;     1. Redistributions of source code must retain the above copyright notice, this lis
      +                          t of
    65                           ;        conditions and the following disclaimer.
    66                           ; 
    67                           ;     2. Redistributions in binary form must reproduce the above copyright notice, this 
      +                          list
    68                           ;        of conditions and the following disclaimer in the documentation and/or other
    69                           ;        materials provided with the distribution. Publication is not required when
    70                           ;        this file is used in an embedded application.
    71                           ; 
    72                           ;     3. Microchip's name may not be used to endorse or promote products derived from th
      +                          is
    73                           ;        software without specific prior written permission.
    74                           ; 
    75                           ; THIS SOFTWARE IS PROVIDED BY MICROCHIP "AS IS" AND ANY EXPRESS OR IMPLIED WARRANTIES,
    76                           ; INCLUDING, BUT NOT LIMITED TO, THE IMPLIED WARRANTIES OF MERCHANTABILITY AND FITNESS F
      +                          OR
    77                           ; PURPOSE ARE DISCLAIMED.  IN NO EVENT SHALL MICROCHIP BE LIABLE FOR ANY DIRECT, INDIREC
      +                          T,
    78                           ; INCIDENTAL, SPECIAL, EXEMPLARY, OR CONSEQUENTIAL DAMAGES (INCLUDING BUT NOT LIMITED TO
    79                           ; PROCUREMENT OF SUBSTITUTE GOODS OR SERVICES; LOSS OF USE, DATA OR PROFITS; OR BUSINESS
    80                           ; INTERRUPTION) HOWSOEVER CAUSED AND ON ANY THEORY OF LIABILITY, WHETHER IN CONTRACT, ST
      +                          RICT
    81                           ; LIABILITY, OR TORT (INCLUDING NEGLIGENCE OR OTHERWISE) ARISING IN ANY WAY OUT OF THE U
      +                          SE OF
    82                           ; THIS SOFTWARE, EVEN IF ADVISED OF THE POSSIBILITY OF SUCH DAMAGE.
    83                           ; 
    84                           ; 
    85                           ; Code-generator required, PIC16F877A Definitions
    86                           ; 
    87                           ; SFR Addresses
    88     0000                     	;# 
    89     0001                     	;# 
    90     0002                     	;# 
    91     0003                     	;# 
    92     0004                     	;# 
    93     0005                     	;# 
    94     0006                     	;# 
    95     0007                     	;# 
    96     0008                     	;# 
    97     0009                     	;# 
    98     000A                     	;# 
    99     000B                     	;# 
   100     000C                     	;# 
   101     000D                     	;# 
   102     000E                     	;# 
   103     000E                     	;# 
   104     000F                     	;# 
   105     0010                     	;# 
   106     0011                     	;# 
   107     0012                     	;# 
   108     0013                     	;# 
   109     0014                     	;# 
   110     0015                     	;# 
   111     0015                     	;# 
   112     0016                     	;# 
   113     0017                     	;# 
   114     0018                     	;# 
   115     0019                     	;# 
   116     001A                     	;# 
   117     001B                     	;# 
   118     001B                     	;# 
   119     001C                     	;# 
   120     001D                     	;# 
   121     001E                     	;# 
   122     001F                     	;# 
   123     0081                     	;# 
   124     0085                     	;# 
   125     0086                     	;# 
   126     0087                     	;# 
   127     0088                     	;# 
   128     0089                     	;# 
   129     008C                     	;# 
   130     008D                     	;# 
   131     008E                     	;# 
   132     0091                     	;# 
   133     0092                     	;# 
   134     0093                     	;# 
   135     0094                     	;# 
   136     0098                     	;# 
   137     0099                     	;# 
   138     009C                     	;# 
   139     009D                     	;# 
   140     009E                     	;# 
   141     009F                     	;# 
   142     010C                     	;# 
   143     010D                     	;# 
   144     010E                     	;# 
   145     010F                     	;# 
   146     018C                     	;# 
   147     018D                     	;# 
   148     0000                     	;# 
   149     0001                     	;# 
   150     0002                     	;# 
   151     0003                     	;# 
   152     0004                     	;# 
   153     0005                     	;# 
   154     0006                     	;# 
   155     0007                     	;# 
   156     0008                     	;# 
   157     0009                     	;# 
   158     000A                     	;# 
   159     000B                     	;# 
   160     000C                     	;# 
   161     000D                     	;# 
   162     000E                     	;# 
   163     000E                     	;# 
   164     000F                     	;# 
   165     0010                     	;# 
   166     0011                     	;# 
   167     0012                     	;# 
   168     0013                     	;# 
   169     0014                     	;# 
   170     0015                     	;# 
   171     0015                     	;# 
   172     0016                     	;# 
   173     0017                     	;# 
   174     0018                     	;# 
   175     0019                     	;# 
   176     001A                     	;# 
   177     001B                     	;# 
   178     001B                     	;# 
   179     001C                     	;# 
   180     001D                     	;# 
   181     001E                     	;# 
   182     001F                     	;# 
   183     0081                     	;# 
   184     0085                     	;# 
   185     0086                     	;# 
   186     0087                     	;# 
   187     0088                     	;# 
   188     0089                     	;# 
   189     008C                     	;# 
   190     008D                     	;# 
   191     008E                     	;# 
   192     0091                     	;# 
   193     0092                     	;# 
   194     0093                     	;# 
   195     0094                     	;# 
   196     0098                     	;# 
   197     0099                     	;# 
   198     009C                     	;# 
   199     009D                     	;# 
   200     009E                     	;# 
   201     009F                     	;# 
   202     010C                     	;# 
   203     010D                     	;# 
   204     010E                     	;# 
   205     010F                     	;# 
   206     018C                     	;# 
   207     018D                     	;# 
   208     0008                     _PORTDbits	set	8
   209     001E                     _ADRESH	set	30
   210     001F                     _ADCON0bits	set	31
   211     00FA                     _GO_nDONE	set	250
   212     0031                     _RB1	set	49
   213     0030                     _RB0	set	48
   214     0035                     _RB5	set	53
   215     0034                     _RB4	set	52
   216     0033                     _RB3	set	51
   217     0032                     _RB2	set	50
   218     009E                     _ADRESL	set	158
   219     009F                     _ADCON1bits	set	159
   220     0086                     _TRISB	set	134
   221     0442                     _TRISD2	set	1090
   222     042A                     _TRISA2	set	1066
   223     0429                     _TRISA1	set	1065
   224     0428                     _TRISA0	set	1064
   225                           
   226                           	psect	strings
   227     1800                     __pstrings:
   228     1800                     stringtab:
   229     1800                     __stringtab:
   230                           
   231                           ;	String table - string pointers are 1 byte each
   232     1800  1BFF               	btfsc	btemp+1,7
   233     1801  280A               	ljmp	stringcode
   234     1802  1383               	bcf	3,7
   235     1803  187F               	btfsc	btemp+1,0
   236     1804  1783               	bsf	3,7
   237     1805  0800               	movf	0,w
   238     1806  0A84               	incf	4,f
   239     1807  1903               	skipnz
   240     1808  0AFF               	incf	btemp+1,f
   241     1809  0008               	return
   242     180A                     stringcode:
   243     180A                     stringdir:
   244     180A  3018               	movlw	high stringdir
   245     180B  008A               	movwf	10
   246     180C  0804               	movf	4,w
   247     180D  0A84               	incf	4,f
   248     180E  0782               	addwf	2,f
   249     180F                     __stringbase:
   250     180F  3400               	retlw	0
   251     1810                     __end_of__stringtab:
   252     1810                     STR_1:
   253     1810  3453               	retlw	83	;'S'
   254     1811  346F               	retlw	111	;'o'
   255     1812  3469               	retlw	105	;'i'
   256     1813  346C               	retlw	108	;'l'
   257     1814  343A               	retlw	58	;':'
   258     1815  3420               	retlw	32	;' '
   259     1816  3425               	retlw	37	;'%'
   260     1817  342E               	retlw	46	;'.'
   261     1818  3431               	retlw	49	;'1'
   262     1819  3466               	retlw	102	;'f'
   263     181A  3420               	retlw	32	;' '
   264     181B  3425               	retlw	37	;'%'
   265     181C  3425               	retlw	37	;'%'
   266     181D  3400               	retlw	0
   267     181E                     STR_2:
   268     181E  3457               	retlw	87	;'W'
   269     181F  3461               	retlw	97	;'a'
   270     1820  3474               	retlw	116	;'t'
   271     1821  3465               	retlw	101	;'e'
   272     1822  3472               	retlw	114	;'r'
   273     1823  343A               	retlw	58	;':'
   274     1824  3420               	retlw	32	;' '
   275     1825  3425               	retlw	37	;'%'
   276     1826  342E               	retlw	46	;'.'
   277     1827  3432               	retlw	50	;'2'
   278     1828  3466               	retlw	102	;'f'
   279     1829  3425               	retlw	37	;'%'
   280     182A  3425               	retlw	37	;'%'
   281     182B  3400               	retlw	0
   282     182C                     STR_3:
   283     182C  3454               	retlw	84	;'T'
   284     182D  3465               	retlw	101	;'e'
   285     182E  346D               	retlw	109	;'m'
   286     182F  3470               	retlw	112	;'p'
   287     1830  343A               	retlw	58	;':'
   288     1831  3420               	retlw	32	;' '
   289     1832  3425               	retlw	37	;'%'
   290     1833  342E               	retlw	46	;'.'
   291     1834  3432               	retlw	50	;'2'
   292     1835  3466               	retlw	102	;'f'
   293     1836  3420               	retlw	32	;' '
   294     1837  3443               	retlw	67	;'C'
   295     1838  3400               	retlw	0
   296     1839                     STR_4:
   297     1839  3461               	retlw	97	;'a'
   298     183A  3461               	retlw	97	;'a'
   299     183B  3474               	retlw	116	;'t'
   300     183C  3468               	retlw	104	;'h'
   301     183D  3469               	retlw	105	;'i'
   302     183E  346C               	retlw	108	;'l'
   303     183F  3400               	retlw	0
   304     1840                     STR_5:
   305     1840  3469               	retlw	105	;'i'
   306     1841  346E               	retlw	110	;'n'
   307     1842  3466               	retlw	102	;'f'
   308     1843  3400               	retlw	0
   309     1844                     STR_8:
   310     1844  346E               	retlw	110	;'n'
   311     1845  3461               	retlw	97	;'a'
   312     1846  346E               	retlw	110	;'n'
   313     1847  3400               	retlw	0
   314     1840                     
   315                           	psect	cinit
   316     07E6                     start_initialization:	
   317                           ; #config settings
   318                           
   319     07E6                     __initialization:
   320                           
   321                           ; Clear objects allocated to BANK1
   322     07E6  1683               	bsf	3,5	;RP0=1, select bank1
   323     07E7  1303               	bcf	3,6	;RP1=0, select bank1
   324     07E8  01ED               	clrf	__pbssBANK1& (0+127)
   325     07E9  01EE               	clrf	(__pbssBANK1+1)& (0+127)
   326     07EA  01EF               	clrf	(__pbssBANK1+2)& (0+127)
   327                           
   328                           ; Clear objects allocated to BANK3
   329     07EB  1783               	bsf	3,7	;select IRP bank2
   330     07EC  3090               	movlw	low __pbssBANK3
   331     07ED  0084               	movwf	4
   332     07EE  30D0               	movlw	low (__pbssBANK3+64)
   333     07EF  160A  158A  24C3  120A  118A  	fcall	clear_ram0
   334                           
   335                           ; Clear objects allocated to BANK2
   336     07F4  3010               	movlw	low __pbssBANK2
   337     07F5  0084               	movwf	4
   338     07F6  3060               	movlw	low (__pbssBANK2+80)
   339     07F7  160A  158A  24C3  120A  118A  	fcall	clear_ram0
   340     07FC                     end_of_initialization:	
   341                           ;End of C runtime variable initialization code
   342                           
   343     07FC                     __end_of__initialization:
   344     07FC  0183               	clrf	3
   345     07FD  120A  158A  2A3D   	ljmp	_main	;jump to C main() function
   346                           
   347                           	psect	bssBANK1
   348     00ED                     __pbssBANK1:
   349     00ED                     _prec:
   350     00ED                     	ds	2
   351     00EF                     _flags:
   352     00EF                     	ds	1
   353                           
   354                           	psect	bssBANK3
   355     0190                     __pbssBANK3:
   356     0190                     floorf@F521:
   357     0190                     	ds	4
   358     0194                     ___fpclassifyf@F465:
   359     0194                     	ds	4
   360     0198                     _temp_volt:
   361     0198                     	ds	4
   362     019C                     _temperature_celsius:
   363     019C                     	ds	4
   364     01A0                     _water_level_percent:
   365     01A0                     	ds	4
   366     01A4                     _soil_moisture_percent:
   367     01A4                     	ds	4
   368     01A8                     _water:
   369     01A8                     	ds	4
   370     01AC                     _temperature:
   371     01AC                     	ds	4
   372     01B0                     _soilMoisture:
   373     01B0                     	ds	4
   374     01B4                     _width:
   375     01B4                     	ds	2
   376     01B6                     _temperature_ADC:
   377     01B6                     	ds	2
   378     01B8                     _s:
   379     01B8                     	ds	20
   380     01CC                     _water_level:
   381     01CC                     	ds	2
   382     01CE                     _soil_moisture_value:
   383     01CE                     	ds	2
   384                           
   385                           	psect	bssBANK2
   386     0110                     __pbssBANK2:
   387     0110                     _dbuf:
   388     0110                     	ds	80
   389                           
   390                           	psect	clrtext
   391     1CC3                     clear_ram0:	
   392                           ;	Called with FSR containing the base address, and
   393                           ;	W with the last address+1
   394                           
   395     1CC3  0064               	clrwdt	;clear the watchdog before getting into this loop
   396     1CC4                     clrloop0:
   397     1CC4  0180               	clrf	0	;clear RAM location pointed to by FSR
   398     1CC5  0A84               	incf	4,f	;increment pointer
   399     1CC6  0604               	xorwf	4,w	;XOR with final address
   400     1CC7  1903               	btfsc	3,2	;have we reached the end yet?
   401     1CC8  3400               	retlw	0	;all done for this memory range, return
   402     1CC9  0604               	xorwf	4,w	;XOR again to restore value
   403     1CCA  2CC4               	goto	clrloop0	;do the next byte
   404                           
   405                           	psect	cstackBANK3
   406     01D0                     __pcstackBANK3:
   407     01D0                     sprintf@ap:
   408                           
   409                           ; 1 bytes @ 0x0
   410     01D0                     	ds	1
   411     01D1                     sprintf@s:
   412                           
   413                           ; 1 bytes @ 0x1
   414     01D1                     	ds	1
   415     01D2                     sprintf@f:
   416                           
   417                           ; 11 bytes @ 0x2
   418     01D2                     	ds	11
   419                           
   420                           	psect	cstackBANK1
   421     00A0                     __pcstackBANK1:
   422     00A0                     ?_efgtoa:
   423     00A0                     efgtoa@f:	
   424                           ; 1 bytes @ 0x0
   425                           
   426                           
   427                           ; 4 bytes @ 0x0
   428     00A0                     	ds	4
   429     00A4                     efgtoa@c:
   430                           
   431                           ; 1 bytes @ 0x4
   432     00A4                     	ds	1
   433     00A5                     ??_efgtoa:
   434                           
   435                           ; 1 bytes @ 0x5
   436     00A5                     	ds	4
   437     00A9                     efgtoa@ne:
   438                           
   439                           ; 2 bytes @ 0x9
   440     00A9                     	ds	2
   441     00AB                     efgtoa@p:
   442                           
   443                           ; 2 bytes @ 0xB
   444     00AB                     	ds	2
   445     00AD                     efgtoa@t:
   446                           
   447                           ; 2 bytes @ 0xD
   448     00AD                     	ds	2
   449     00AF                     _efgtoa$789:
   450                           
   451                           ; 2 bytes @ 0xF
   452     00AF                     	ds	2
   453     00B1                     efgtoa@pp:
   454                           
   455                           ; 1 bytes @ 0x11
   456     00B1                     	ds	1
   457     00B2                     efgtoa@mode:
   458                           
   459                           ; 1 bytes @ 0x12
   460     00B2                     	ds	1
   461     00B3                     efgtoa@nmode:
   462                           
   463                           ; 1 bytes @ 0x13
   464     00B3                     	ds	1
   465     00B4                     efgtoa@d:
   466                           
   467                           ; 2 bytes @ 0x14
   468     00B4                     	ds	2
   469     00B6                     efgtoa@m:
   470                           
   471                           ; 2 bytes @ 0x16
   472     00B6                     	ds	2
   473     00B8                     efgtoa@fp:
   474                           
   475                           ; 1 bytes @ 0x18
   476     00B8                     	ds	1
   477     00B9                     efgtoa@e:
   478                           
   479                           ; 2 bytes @ 0x19
   480     00B9                     	ds	2
   481     00BB                     efgtoa@w:
   482                           
   483                           ; 2 bytes @ 0x1B
   484     00BB                     	ds	2
   485     00BD                     efgtoa@ou:
   486                           
   487                           ; 4 bytes @ 0x1D
   488     00BD                     	ds	4
   489     00C1                     efgtoa@i:
   490                           
   491                           ; 2 bytes @ 0x21
   492     00C1                     	ds	2
   493     00C3                     efgtoa@h:
   494                           
   495                           ; 4 bytes @ 0x23
   496     00C3                     	ds	4
   497     00C7                     efgtoa@l:
   498                           
   499                           ; 4 bytes @ 0x27
   500     00C7                     	ds	4
   501     00CB                     efgtoa@sign:
   502                           
   503                           ; 1 bytes @ 0x2B
   504     00CB                     	ds	1
   505     00CC                     efgtoa@n:
   506                           
   507                           ; 2 bytes @ 0x2C
   508     00CC                     	ds	2
   509     00CE                     efgtoa@g:
   510                           
   511                           ; 4 bytes @ 0x2E
   512     00CE                     	ds	4
   513     00D2                     efgtoa@u:
   514                           
   515                           ; 4 bytes @ 0x32
   516     00D2                     	ds	4
   517     00D6                     ?_vfpfcnvrt:
   518     00D6                     vfpfcnvrt@fmt:	
   519                           ; 1 bytes @ 0x36
   520                           
   521                           
   522                           ; 1 bytes @ 0x36
   523     00D6                     	ds	1
   524     00D7                     vfpfcnvrt@ap:
   525                           
   526                           ; 1 bytes @ 0x37
   527     00D7                     	ds	1
   528     00D8                     ??_vfpfcnvrt:
   529                           
   530                           ; 1 bytes @ 0x38
   531     00D8                     	ds	2
   532     00DA                     vfpfcnvrt@convarg:
   533                           
   534                           ; 4 bytes @ 0x3A
   535     00DA                     	ds	4
   536     00DE                     vfpfcnvrt@c:
   537                           
   538                           ; 1 bytes @ 0x3E
   539     00DE                     	ds	1
   540     00DF                     vfpfcnvrt@fp:
   541                           
   542                           ; 1 bytes @ 0x3F
   543     00DF                     	ds	1
   544     00E0                     vfpfcnvrt@cp:
   545                           
   546                           ; 1 bytes @ 0x40
   547     00E0                     	ds	1
   548     00E1                     ?_vfprintf:
   549     00E1                     vfprintf@fmt:	
   550                           ; 2 bytes @ 0x41
   551                           
   552                           
   553                           ; 1 bytes @ 0x41
   554     00E1                     	ds	1
   555     00E2                     vfprintf@ap:
   556                           
   557                           ; 1 bytes @ 0x42
   558     00E2                     	ds	1
   559     00E3                     vfprintf@fp:
   560                           
   561                           ; 1 bytes @ 0x43
   562     00E3                     	ds	1
   563     00E4                     vfprintf@cfmt:
   564                           
   565                           ; 1 bytes @ 0x44
   566     00E4                     	ds	1
   567     00E5                     ?_sprintf:
   568     00E5                     sprintf@fmt:	
   569                           ; 2 bytes @ 0x45
   570                           
   571                           
   572                           ; 1 bytes @ 0x45
   573     00E5                     	ds	5
   574     00EA                     ??_sprintf:
   575                           
   576                           ; 1 bytes @ 0x4A
   577     00EA                     	ds	1
   578     00EB                     ??_main:
   579                           
   580                           ; 1 bytes @ 0x4B
   581     00EB                     	ds	2
   582                           
   583                           	psect	cstackCOMMON
   584     0070                     __pcstackCOMMON:
   585     0070                     ?___fleq:
   586     0070                     ?_strcpy:	
   587                           ; 1 bit 
   588                           
   589     0070                     ?_memcpy:	
   590                           ; 1 bytes @ 0x0
   591                           
   592     0070                     ?_putch:	
   593                           ; 1 bytes @ 0x0
   594                           
   595     0070                     ??_putch:	
   596                           ; 1 bytes @ 0x0
   597                           
   598     0070                     ?_Lcd_Port:	
   599                           ; 1 bytes @ 0x0
   600                           
   601     0070                     ??_Lcd_Port:	
   602                           ; 1 bytes @ 0x0
   603                           
   604     0070                     ?_Lcd_Cmd:	
   605                           ; 1 bytes @ 0x0
   606                           
   607     0070                     ?_Lcd_Clear:	
   608                           ; 1 bytes @ 0x0
   609                           
   610     0070                     ?_Lcd_Init:	
   611                           ; 1 bytes @ 0x0
   612                           
   613     0070                     ?_Lcd_Write_Char:	
   614                           ; 1 bytes @ 0x0
   615                           
   616     0070                     ?_LCD:	
   617                           ; 1 bytes @ 0x0
   618                           
   619     0070                     ??_LCD:	
   620                           ; 1 bytes @ 0x0
   621                           
   622     0070                     ?_ADCInit:	
   623                           ; 1 bytes @ 0x0
   624                           
   625     0070                     ??_ADCInit:	
   626                           ; 1 bytes @ 0x0
   627                           
   628     0070                     ?_main:	
   629                           ; 1 bytes @ 0x0
   630                           
   631     0070                     ?__Umul8_16:	
   632                           ; 1 bytes @ 0x0
   633                           
   634     0070                     ?_fputc:	
   635                           ; 2 bytes @ 0x0
   636                           
   637     0070                     ?___fpclassifyf:	
   638                           ; 2 bytes @ 0x0
   639                           
   640     0070                     ?_ADCRead:	
   641                           ; 2 bytes @ 0x0
   642                           
   643     0070                     ?___wmul:	
   644                           ; 2 bytes @ 0x0
   645                           
   646     0070                     ?_labs:	
   647                           ; 2 bytes @ 0x0
   648                           
   649     0070                     ?___flneg:	
   650                           ; 4 bytes @ 0x0
   651                           
   652     0070                     ?___fltol:	
   653                           ; 4 bytes @ 0x0
   654                           
   655     0070                     ?___fladd:	
   656                           ; 4 bytes @ 0x0
   657                           
   658     0070                     ?___xxtofl:	
   659                           ; 4 bytes @ 0x0
   660                           
   661     0070                     Lcd_Port@a:	
   662                           ; 4 bytes @ 0x0
   663                           
   664     0070                     __Umul8_16@multiplicand:	
   665                           ; 1 bytes @ 0x0
   666                           
   667     0070                     memcpy@s1:	
   668                           ; 1 bytes @ 0x0
   669                           
   670     0070                     putch@c:	
   671                           ; 1 bytes @ 0x0
   672                           
   673     0070                     strcpy@src:	
   674                           ; 1 bytes @ 0x0
   675                           
   676     0070                     ADCRead@x:	
   677                           ; 1 bytes @ 0x0
   678                           
   679     0070                     ___wmul@multiplier:	
   680                           ; 2 bytes @ 0x0
   681                           
   682     0070                     fputc@c:	
   683                           ; 2 bytes @ 0x0
   684                           
   685     0070                     ___fleq@ff1:	
   686                           ; 2 bytes @ 0x0
   687                           
   688     0070                     ___flneg@f1:	
   689                           ; 4 bytes @ 0x0
   690                           
   691     0070                     ___fltol@f1:	
   692                           ; 4 bytes @ 0x0
   693                           
   694     0070                     ___fladd@b:	
   695                           ; 4 bytes @ 0x0
   696                           
   697     0070                     ___xxtofl@val:	
   698                           ; 4 bytes @ 0x0
   699                           
   700     0070                     ___fpclassifyf@x:	
   701                           ; 4 bytes @ 0x0
   702                           
   703     0070                     labs@a:	
   704                           ; 4 bytes @ 0x0
   705                           
   706                           
   707                           ; 4 bytes @ 0x0
   708     0070                     	ds	1
   709     0071                     ??_strcpy:
   710     0071                     ??_Lcd_Cmd:	
   711                           ; 1 bytes @ 0x1
   712                           
   713     0071                     ??_Lcd_Write_Char:	
   714                           ; 1 bytes @ 0x1
   715                           
   716     0071                     strcpy@d:	
   717                           ; 1 bytes @ 0x1
   718                           
   719     0071                     memcpy@n:	
   720                           ; 1 bytes @ 0x1
   721                           
   722                           
   723                           ; 2 bytes @ 0x1
   724     0071                     	ds	1
   725     0072                     ??__Umul8_16:
   726     0072                     ??_ADCRead:	
   727                           ; 1 bytes @ 0x2
   728                           
   729     0072                     Lcd_Write_Char@temp:	
   730                           ; 1 bytes @ 0x2
   731                           
   732     0072                     fputc@fp:	
   733                           ; 1 bytes @ 0x2
   734                           
   735     0072                     strcpy@dest:	
   736                           ; 1 bytes @ 0x2
   737                           
   738     0072                     ___wmul@multiplicand:	
   739                           ; 1 bytes @ 0x2
   740                           
   741                           
   742                           ; 2 bytes @ 0x2
   743     0072                     	ds	1
   744     0073                     ??_fputc:
   745     0073                     ??_memcpy:	
   746                           ; 1 bytes @ 0x3
   747                           
   748     0073                     Lcd_Cmd@a:	
   749                           ; 1 bytes @ 0x3
   750                           
   751     0073                     Lcd_Write_Char@y:	
   752                           ; 1 bytes @ 0x3
   753                           
   754     0073                     memcpy@tmp:	
   755                           ; 1 bytes @ 0x3
   756                           
   757                           
   758                           ; 1 bytes @ 0x3
   759     0073                     	ds	1
   760     0074                     ??___fpclassifyf:
   761     0074                     ??_labs:	
   762                           ; 1 bytes @ 0x4
   763                           
   764     0074                     ??_Lcd_Clear:	
   765                           ; 1 bytes @ 0x4
   766                           
   767     0074                     ?_Lcd_Set_Cursor:	
   768                           ; 1 bytes @ 0x4
   769                           
   770     0074                     ??_Lcd_Init:	
   771                           ; 1 bytes @ 0x4
   772                           
   773     0074                     ??___wmul:	
   774                           ; 1 bytes @ 0x4
   775                           
   776     0074                     ??___flneg:	
   777                           ; 1 bytes @ 0x4
   778                           
   779     0074                     ??___fltol:	
   780                           ; 1 bytes @ 0x4
   781                           
   782     0074                     ??___xxtofl:	
   783                           ; 1 bytes @ 0x4
   784                           
   785     0074                     Lcd_Set_Cursor@b:	
   786                           ; 1 bytes @ 0x4
   787                           
   788     0074                     Lcd_Write_Char@a:	
   789                           ; 1 bytes @ 0x4
   790                           
   791     0074                     memcpy@d1:	
   792                           ; 1 bytes @ 0x4
   793                           
   794     0074                     ___wmul@product:	
   795                           ; 1 bytes @ 0x4
   796                           
   797     0074                     __Umul8_16@product:	
   798                           ; 2 bytes @ 0x4
   799                           
   800     0074                     ___fleq@ff2:	
   801                           ; 2 bytes @ 0x4
   802                           
   803     0074                     ___fladd@a:	
   804                           ; 4 bytes @ 0x4
   805                           
   806                           
   807                           ; 4 bytes @ 0x4
   808     0074                     	ds	1
   809     0075                     ??_Lcd_Set_Cursor:
   810     0075                     ?_Lcd_Write_String:	
   811                           ; 1 bytes @ 0x5
   812                           
   813     0075                     memcpy@d:	
   814                           ; 1 bytes @ 0x5
   815                           
   816     0075                     Lcd_Write_String@a:	
   817                           ; 1 bytes @ 0x5
   818                           
   819                           
   820                           ; 2 bytes @ 0x5
   821     0075                     	ds	1
   822     0076                     ?_read_prec_or_width:
   823     0076                     Lcd_Set_Cursor@a:	
   824                           ; 2 bytes @ 0x6
   825                           
   826     0076                     read_prec_or_width@ap:	
   827                           ; 1 bytes @ 0x6
   828                           
   829     0076                     memcpy@s:	
   830                           ; 1 bytes @ 0x6
   831                           
   832     0076                     __Umul8_16@word_mpld:	
   833                           ; 1 bytes @ 0x6
   834                           
   835                           
   836                           ; 2 bytes @ 0x6
   837     0076                     	ds	1
   838     0077                     ??_Lcd_Write_String:
   839     0077                     Lcd_Set_Cursor@z:	
   840                           ; 1 bytes @ 0x7
   841                           
   842                           
   843                           ; 1 bytes @ 0x7
   844     0077                     	ds	1
   845     0078                     ??___fleq:
   846     0078                     ??_read_prec_or_width:	
   847                           ; 1 bytes @ 0x8
   848                           
   849     0078                     ?_fputs:	
   850                           ; 1 bytes @ 0x8
   851                           
   852     0078                     Lcd_Set_Cursor@y:	
   853                           ; 2 bytes @ 0x8
   854                           
   855     0078                     ___fltol@sign1:	
   856                           ; 1 bytes @ 0x8
   857                           
   858     0078                     ___fladd@signs:	
   859                           ; 1 bytes @ 0x8
   860                           
   861     0078                     __Umul8_16@multiplier:	
   862                           ; 1 bytes @ 0x8
   863                           
   864     0078                     ___xxtofl@sign:	
   865                           ; 1 bytes @ 0x8
   866                           
   867     0078                     read_prec_or_width@c:	
   868                           ; 1 bytes @ 0x8
   869                           
   870     0078                     fputs@fp:	
   871                           ; 1 bytes @ 0x8
   872                           
   873                           
   874                           ; 1 bytes @ 0x8
   875     0078                     	ds	1
   876     0079                     ??_fputs:
   877     0079                     Lcd_Set_Cursor@temp:	
   878                           ; 1 bytes @ 0x9
   879                           
   880     0079                     ___fltol@exp1:	
   881                           ; 1 bytes @ 0x9
   882                           
   883     0079                     ___fladd@aexp:	
   884                           ; 1 bytes @ 0x9
   885                           
   886     0079                     ___xxtofl@exp:	
   887                           ; 1 bytes @ 0x9
   888                           
   889     0079                     read_prec_or_width@n:	
   890                           ; 1 bytes @ 0x9
   891                           
   892                           
   893                           ; 2 bytes @ 0x9
   894     0079                     	ds	1
   895     007A                     ___fladd@bexp:
   896     007A                     Lcd_Write_String@i:	
   897                           ; 1 bytes @ 0xA
   898                           
   899     007A                     ___xxtofl@arg:	
   900                           ; 2 bytes @ 0xA
   901                           
   902                           
   903                           ; 4 bytes @ 0xA
   904     007A                     	ds	1
   905     007B                     ?_pad:
   906     007B                     ___fladd@grs:	
   907                           ; 1 bytes @ 0xB
   908                           
   909     007B                     pad@buf:	
   910                           ; 1 bytes @ 0xB
   911                           
   912     007B                     read_prec_or_width@fmt:	
   913                           ; 1 bytes @ 0xB
   914                           
   915                           
   916                           ; 1 bytes @ 0xB
   917     007B                     	ds	1
   918     007C                     pad@p:
   919                           
   920                           ; 2 bytes @ 0xC
   921     007C                     	ds	2
   922     007E                     ??_vfprintf:
   923     007E                     ??___flsub:	
   924                           ; 1 bytes @ 0xE
   925                           
   926                           
   927                           	psect	cstackBANK0
   928     0020                     __pcstackBANK0:	
   929                           ; 1 bytes @ 0xE
   930                           
   931     0020                     ??___fladd:
   932     0020                     fputs@c:	
   933                           ; 1 bytes @ 0x0
   934                           
   935     0020                     ___fpclassifyf@e:	
   936                           ; 1 bytes @ 0x0
   937                           
   938                           
   939                           ; 2 bytes @ 0x0
   940     0020                     	ds	1
   941     0021                     fputs@i:
   942                           
   943                           ; 2 bytes @ 0x1
   944     0021                     	ds	1
   945     0022                     ___fpclassifyf@u:
   946                           
   947                           ; 4 bytes @ 0x2
   948     0022                     	ds	1
   949     0023                     fputs@s:
   950                           
   951                           ; 1 bytes @ 0x3
   952     0023                     	ds	1
   953     0024                     ??_pad:
   954                           
   955                           ; 1 bytes @ 0x4
   956     0024                     	ds	1
   957     0025                     pad@i:
   958                           
   959                           ; 2 bytes @ 0x5
   960     0025                     	ds	2
   961     0027                     pad@fp:
   962                           
   963                           ; 1 bytes @ 0x7
   964     0027                     	ds	1
   965     0028                     ?___flmul:
   966     0028                     ___flmul@b:	
   967                           ; 4 bytes @ 0x8
   968                           
   969                           
   970                           ; 4 bytes @ 0x8
   971     0028                     	ds	4
   972     002C                     ___flmul@a:
   973                           
   974                           ; 4 bytes @ 0xC
   975     002C                     	ds	4
   976     0030                     ??___flmul:
   977                           
   978                           ; 1 bytes @ 0x10
   979     0030                     	ds	5
   980     0035                     ___flmul@sign:
   981                           
   982                           ; 1 bytes @ 0x15
   983     0035                     	ds	1
   984     0036                     ___flmul@grs:
   985                           
   986                           ; 4 bytes @ 0x16
   987     0036                     	ds	4
   988     003A                     ___flmul@aexp:
   989                           
   990                           ; 1 bytes @ 0x1A
   991     003A                     	ds	1
   992     003B                     ___flmul@bexp:
   993                           
   994                           ; 1 bytes @ 0x1B
   995     003B                     	ds	1
   996     003C                     ___flmul@prod:
   997                           
   998                           ; 4 bytes @ 0x1C
   999     003C                     	ds	4
  1000     0040                     ___flmul@temp:
  1001                           
  1002                           ; 2 bytes @ 0x20
  1003     0040                     	ds	2
  1004     0042                     ?___flge:
  1005     0042                     ?___flsub:	
  1006                           ; 1 bit 
  1007                           
  1008     0042                     ?___fldiv:	
  1009                           ; 4 bytes @ 0x22
  1010                           
  1011     0042                     ___flge@ff1:	
  1012                           ; 4 bytes @ 0x22
  1013                           
  1014     0042                     ___flsub@a:	
  1015                           ; 4 bytes @ 0x22
  1016                           
  1017     0042                     ___fldiv@a:	
  1018                           ; 4 bytes @ 0x22
  1019                           
  1020                           
  1021                           ; 4 bytes @ 0x22
  1022     0042                     	ds	4
  1023     0046                     ___flge@ff2:
  1024     0046                     ___flsub@b:	
  1025                           ; 4 bytes @ 0x26
  1026                           
  1027     0046                     ___fldiv@b:	
  1028                           ; 4 bytes @ 0x26
  1029                           
  1030                           
  1031                           ; 4 bytes @ 0x26
  1032     0046                     	ds	4
  1033     004A                     ??___flge:
  1034     004A                     ??___fldiv:	
  1035                           ; 1 bytes @ 0x2A
  1036                           
  1037                           
  1038                           ; 1 bytes @ 0x2A
  1039     004A                     	ds	5
  1040     004F                     ___fldiv@rem:
  1041                           
  1042                           ; 4 bytes @ 0x2F
  1043     004F                     	ds	4
  1044     0053                     ___fldiv@sign:
  1045                           
  1046                           ; 1 bytes @ 0x33
  1047     0053                     	ds	1
  1048     0054                     ___fldiv@new_exp:
  1049                           
  1050                           ; 2 bytes @ 0x34
  1051     0054                     	ds	2
  1052     0056                     ___fldiv@grs:
  1053                           
  1054                           ; 4 bytes @ 0x36
  1055     0056                     	ds	4
  1056     005A                     ___fldiv@bexp:
  1057                           
  1058                           ; 1 bytes @ 0x3A
  1059     005A                     	ds	1
  1060     005B                     ___fldiv@aexp:
  1061                           
  1062                           ; 1 bytes @ 0x3B
  1063     005B                     	ds	1
  1064     005C                     ?_floorf:
  1065     005C                     floorf@x:	
  1066                           ; 4 bytes @ 0x3C
  1067                           
  1068                           
  1069                           ; 4 bytes @ 0x3C
  1070     005C                     	ds	4
  1071     0060                     ??_floorf:
  1072                           
  1073                           ; 1 bytes @ 0x40
  1074     0060                     	ds	6
  1075     0066                     floorf@m:
  1076                           
  1077                           ; 4 bytes @ 0x46
  1078     0066                     	ds	4
  1079     006A                     floorf@e:
  1080                           
  1081                           ; 2 bytes @ 0x4A
  1082     006A                     	ds	2
  1083     006C                     floorf@u:
  1084                           
  1085                           ; 4 bytes @ 0x4C
  1086     006C                     	ds	4
  1087                           
  1088                           	psect	maintext
  1089     0A3D                     __pmaintext:	
  1090 ;;
  1091 ;;Main: autosize = 0, tempsize = 2, incstack = 0, save=0
  1092 ;;
  1093 ;; *************** function _main *****************
  1094 ;; Defined at:
  1095 ;;		line 202 in file "plant.c"
  1096 ;; Parameters:    Size  Location     Type
  1097 ;;		None
  1098 ;; Auto vars:     Size  Location     Type
  1099 ;;		None
  1100 ;; Return value:  Size  Location     Type
  1101 ;;                  1    wreg      void 
  1102 ;; Registers used:
  1103 ;;		wreg, fsr0l, fsr0h, status,2, status,0, btemp+1, pclath, cstack
  1104 ;; Tracked objects:
  1105 ;;		On entry : B00/0
  1106 ;;		On exit  : 0/0
  1107 ;;		Unchanged: 0/0
  1108 ;; Data sizes:     COMMON   BANK0   BANK1   BANK3   BANK2
  1109 ;;      Params:         0       0       0       0       0
  1110 ;;      Locals:         0       0       0       0       0
  1111 ;;      Temps:          0       0       2       0       0
  1112 ;;      Totals:         0       0       2       0       0
  1113 ;;Total ram usage:        2 bytes
  1114 ;; Hardware stack levels required when called: 8
  1115 ;; This function calls:
  1116 ;;		_ADCInit
  1117 ;;		_ADCRead
  1118 ;;		_LCD
  1119 ;;		_Lcd_Clear
  1120 ;;		_Lcd_Init
  1121 ;;		_Lcd_Set_Cursor
  1122 ;;		_Lcd_Write_String
  1123 ;;		___fladd
  1124 ;;		___fldiv
  1125 ;;		___flge
  1126 ;;		___flmul
  1127 ;;		___xxtofl
  1128 ;;		_sprintf
  1129 ;; This function is called by:
  1130 ;;		Startup code after reset
  1131 ;; This function uses a non-reentrant model
  1132 ;;
  1133                           
  1134     0A3D                     _main:	
  1135                           ;psect for function _main
  1136                           
  1137     0A3D                     l3368:	
  1138                           ;incstack = 0
  1139                           ; Regs used in _main: [wreg-fsr0h+status,2+status,0+btemp+1+pclath+cstack]
  1140                           
  1141                           
  1142                           ;plant.c: 203:  TRISB = 0x00;
  1143     0A3D  1683               	bsf	3,5	;RP0=1, select bank1
  1144     0A3E  1303               	bcf	3,6	;RP1=0, select bank1
  1145     0A3F  0186               	clrf	6	;volatile
  1146     0A40                     l3370:
  1147                           
  1148                           ;plant.c: 204:     LCD();
  1149     0A40  160A  118A  2000  120A  158A  	fcall	_LCD
  1150     0A45                     l3372:
  1151                           
  1152                           ;plant.c: 205:     Lcd_Init();
  1153     0A45  120A  158A  2010  120A  158A  	fcall	_Lcd_Init
  1154     0A4A                     l3374:
  1155                           
  1156                           ;plant.c: 207:  TRISA0 = 1;
  1157     0A4A  1683               	bsf	3,5	;RP0=1, select bank1
  1158     0A4B  1303               	bcf	3,6	;RP1=0, select bank1
  1159     0A4C  1405               	bsf	5,0	;volatile
  1160     0A4D                     l3376:
  1161                           
  1162                           ;plant.c: 208:  TRISA1 = 1;
  1163     0A4D  1485               	bsf	5,1	;volatile
  1164     0A4E                     l3378:
  1165                           
  1166                           ;plant.c: 209:  TRISA2 = 1;
  1167     0A4E  1505               	bsf	5,2	;volatile
  1168     0A4F                     l3380:
  1169                           
  1170                           ;plant.c: 210:  ADCInit();
  1171     0A4F  160A  158A  24D6  120A  158A  	fcall	_ADCInit
  1172     0A54                     l3382:
  1173                           
  1174                           ;plant.c: 211:     TRISD2 = 0;
  1175     0A54  1683               	bsf	3,5	;RP0=1, select bank1
  1176     0A55  1303               	bcf	3,6	;RP1=0, select bank1
  1177     0A56  1108               	bcf	8,2	;volatile
  1178     0A57                     l3384:
  1179                           
  1180                           ;plant.c: 214:   soil_moisture_value = ADCRead(0);
  1181     0A57  3000               	movlw	0
  1182     0A58  00F0               	movwf	ADCRead@x
  1183     0A59  00F1               	movwf	ADCRead@x+1
  1184     0A5A  160A  158A  26FB  120A  158A  	fcall	_ADCRead
  1185     0A5F  0871               	movf	?_ADCRead+1,w
  1186     0A60  1683               	bsf	3,5	;RP0=1, select bank3
  1187     0A61  1703               	bsf	3,6	;RP1=1, select bank3
  1188     0A62  00CF               	movwf	(_soil_moisture_value+1)^(0+384)
  1189     0A63  0870               	movf	?_ADCRead,w
  1190     0A64  00CE               	movwf	_soil_moisture_value^(0+384)
  1191     0A65                     l3386:
  1192                           
  1193                           ;plant.c: 215:         water_level = ADCRead(1);
  1194     0A65  3001               	movlw	1
  1195     0A66  00F0               	movwf	ADCRead@x
  1196     0A67  3000               	movlw	0
  1197     0A68  00F1               	movwf	ADCRead@x+1
  1198     0A69  160A  158A  26FB  120A  158A  	fcall	_ADCRead
  1199     0A6E  0871               	movf	?_ADCRead+1,w
  1200     0A6F  1683               	bsf	3,5	;RP0=1, select bank3
  1201     0A70  1703               	bsf	3,6	;RP1=1, select bank3
  1202     0A71  00CD               	movwf	(_water_level+1)^(0+384)
  1203     0A72  0870               	movf	?_ADCRead,w
  1204     0A73  00CC               	movwf	_water_level^(0+384)
  1205     0A74                     l3388:
  1206                           
  1207                           ;plant.c: 216:   temperature_ADC = ADCRead(2);
  1208     0A74  3002               	movlw	2
  1209     0A75  00F0               	movwf	ADCRead@x
  1210     0A76  3000               	movlw	0
  1211     0A77  00F1               	movwf	ADCRead@x+1
  1212     0A78  160A  158A  26FB  120A  158A  	fcall	_ADCRead
  1213     0A7D  0871               	movf	?_ADCRead+1,w
  1214     0A7E  1683               	bsf	3,5	;RP0=1, select bank3
  1215     0A7F  1703               	bsf	3,6	;RP1=1, select bank3
  1216     0A80  00B7               	movwf	(_temperature_ADC+1)^(0+384)
  1217     0A81  0870               	movf	?_ADCRead,w
  1218     0A82  00B6               	movwf	_temperature_ADC^(0+384)
  1219     0A83                     l3390:
  1220                           
  1221                           ;plant.c: 218:         soil_moisture_percent = (100.0 * soil_moisture_value) / 1024.0;
  1222     0A83  3044               	movlw	68
  1223     0A84  1283               	bcf	3,5	;RP0=0, select bank0
  1224     0A85  1303               	bcf	3,6	;RP1=0, select bank0
  1225     0A86  00C5               	movwf	___fldiv@a+3
  1226     0A87  3080               	movlw	128
  1227     0A88  00C4               	movwf	___fldiv@a+2
  1228     0A89  3000               	movlw	0
  1229     0A8A  00C3               	movwf	___fldiv@a+1
  1230     0A8B  3000               	movlw	0
  1231     0A8C  00C2               	movwf	___fldiv@a
  1232     0A8D  3042               	movlw	66
  1233     0A8E  00AB               	movwf	___flmul@b+3
  1234     0A8F  30C8               	movlw	200
  1235     0A90  00AA               	movwf	___flmul@b+2
  1236     0A91  3000               	movlw	0
  1237     0A92  00A9               	movwf	___flmul@b+1
  1238     0A93  3000               	movlw	0
  1239     0A94  00A8               	movwf	___flmul@b
  1240     0A95  1683               	bsf	3,5	;RP0=1, select bank3
  1241     0A96  1703               	bsf	3,6	;RP1=1, select bank3
  1242     0A97  084E               	movf	_soil_moisture_value^(0+384),w
  1243     0A98  00F0               	movwf	___xxtofl@val
  1244     0A99  084F               	movf	(_soil_moisture_value+1)^(0+384),w
  1245     0A9A  00F1               	movwf	___xxtofl@val+1
  1246     0A9B  01F2               	clrf	___xxtofl@val+2
  1247     0A9C  01F3               	clrf	___xxtofl@val+3
  1248     0A9D  3000               	movlw	0
  1249     0A9E  120A  118A  2029  120A  158A  	fcall	___xxtofl
  1250     0AA3  0873               	movf	?___xxtofl+3,w
  1251     0AA4  1283               	bcf	3,5	;RP0=0, select bank0
  1252     0AA5  1303               	bcf	3,6	;RP1=0, select bank0
  1253     0AA6  00AF               	movwf	___flmul@a+3
  1254     0AA7  0872               	movf	?___xxtofl+2,w
  1255     0AA8  00AE               	movwf	___flmul@a+2
  1256     0AA9  0871               	movf	?___xxtofl+1,w
  1257     0AAA  00AD               	movwf	___flmul@a+1
  1258     0AAB  0870               	movf	?___xxtofl,w
  1259     0AAC  00AC               	movwf	___flmul@a
  1260     0AAD  120A  158A  24BB  120A  158A  	fcall	___flmul
  1261     0AB2  1283               	bcf	3,5	;RP0=0, select bank0
  1262     0AB3  1303               	bcf	3,6	;RP1=0, select bank0
  1263     0AB4  082B               	movf	?___flmul+3,w
  1264     0AB5  00C9               	movwf	___fldiv@b+3
  1265     0AB6  082A               	movf	?___flmul+2,w
  1266     0AB7  00C8               	movwf	___fldiv@b+2
  1267     0AB8  0829               	movf	?___flmul+1,w
  1268     0AB9  00C7               	movwf	___fldiv@b+1
  1269     0ABA  0828               	movf	?___flmul,w
  1270     0ABB  00C6               	movwf	___fldiv@b
  1271     0ABC  120A  158A  206E  120A  158A  	fcall	___fldiv
  1272     0AC1  1283               	bcf	3,5	;RP0=0, select bank0
  1273     0AC2  1303               	bcf	3,6	;RP1=0, select bank0
  1274     0AC3  0845               	movf	?___fldiv+3,w
  1275     0AC4  1683               	bsf	3,5	;RP0=1, select bank3
  1276     0AC5  1703               	bsf	3,6	;RP1=1, select bank3
  1277     0AC6  00A7               	movwf	(_soil_moisture_percent+3)^(0+384)
  1278     0AC7  1283               	bcf	3,5	;RP0=0, select bank0
  1279     0AC8  1303               	bcf	3,6	;RP1=0, select bank0
  1280     0AC9  0844               	movf	?___fldiv+2,w
  1281     0ACA  1683               	bsf	3,5	;RP0=1, select bank3
  1282     0ACB  1703               	bsf	3,6	;RP1=1, select bank3
  1283     0ACC  00A6               	movwf	(_soil_moisture_percent+2)^(0+384)
  1284     0ACD  1283               	bcf	3,5	;RP0=0, select bank0
  1285     0ACE  1303               	bcf	3,6	;RP1=0, select bank0
  1286     0ACF  0843               	movf	?___fldiv+1,w
  1287     0AD0  1683               	bsf	3,5	;RP0=1, select bank3
  1288     0AD1  1703               	bsf	3,6	;RP1=1, select bank3
  1289     0AD2  00A5               	movwf	(_soil_moisture_percent+1)^(0+384)
  1290     0AD3  1283               	bcf	3,5	;RP0=0, select bank0
  1291     0AD4  1303               	bcf	3,6	;RP1=0, select bank0
  1292     0AD5  0842               	movf	?___fldiv,w
  1293     0AD6  1683               	bsf	3,5	;RP0=1, select bank3
  1294     0AD7  1703               	bsf	3,6	;RP1=1, select bank3
  1295     0AD8  00A4               	movwf	_soil_moisture_percent^(0+384)
  1296     0AD9                     l3392:
  1297                           
  1298                           ;plant.c: 219:   water_level_percent = (100.0 * water_level) / 1024.0;
  1299     0AD9  3044               	movlw	68
  1300     0ADA  1283               	bcf	3,5	;RP0=0, select bank0
  1301     0ADB  1303               	bcf	3,6	;RP1=0, select bank0
  1302     0ADC  00C5               	movwf	___fldiv@a+3
  1303     0ADD  3080               	movlw	128
  1304     0ADE  00C4               	movwf	___fldiv@a+2
  1305     0ADF  3000               	movlw	0
  1306     0AE0  00C3               	movwf	___fldiv@a+1
  1307     0AE1  3000               	movlw	0
  1308     0AE2  00C2               	movwf	___fldiv@a
  1309     0AE3  3042               	movlw	66
  1310     0AE4  00AB               	movwf	___flmul@b+3
  1311     0AE5  30C8               	movlw	200
  1312     0AE6  00AA               	movwf	___flmul@b+2
  1313     0AE7  3000               	movlw	0
  1314     0AE8  00A9               	movwf	___flmul@b+1
  1315     0AE9  3000               	movlw	0
  1316     0AEA  00A8               	movwf	___flmul@b
  1317     0AEB  1683               	bsf	3,5	;RP0=1, select bank3
  1318     0AEC  1703               	bsf	3,6	;RP1=1, select bank3
  1319     0AED  084C               	movf	_water_level^(0+384),w
  1320     0AEE  00F0               	movwf	___xxtofl@val
  1321     0AEF  084D               	movf	(_water_level+1)^(0+384),w
  1322     0AF0  00F1               	movwf	___xxtofl@val+1
  1323     0AF1  01F2               	clrf	___xxtofl@val+2
  1324     0AF2  01F3               	clrf	___xxtofl@val+3
  1325     0AF3  3000               	movlw	0
  1326     0AF4  120A  118A  2029  120A  158A  	fcall	___xxtofl
  1327     0AF9  0873               	movf	?___xxtofl+3,w
  1328     0AFA  1283               	bcf	3,5	;RP0=0, select bank0
  1329     0AFB  1303               	bcf	3,6	;RP1=0, select bank0
  1330     0AFC  00AF               	movwf	___flmul@a+3
  1331     0AFD  0872               	movf	?___xxtofl+2,w
  1332     0AFE  00AE               	movwf	___flmul@a+2
  1333     0AFF  0871               	movf	?___xxtofl+1,w
  1334     0B00  00AD               	movwf	___flmul@a+1
  1335     0B01  0870               	movf	?___xxtofl,w
  1336     0B02  00AC               	movwf	___flmul@a
  1337     0B03  120A  158A  24BB  120A  158A  	fcall	___flmul
  1338     0B08  1283               	bcf	3,5	;RP0=0, select bank0
  1339     0B09  1303               	bcf	3,6	;RP1=0, select bank0
  1340     0B0A  082B               	movf	?___flmul+3,w
  1341     0B0B  00C9               	movwf	___fldiv@b+3
  1342     0B0C  082A               	movf	?___flmul+2,w
  1343     0B0D  00C8               	movwf	___fldiv@b+2
  1344     0B0E  0829               	movf	?___flmul+1,w
  1345     0B0F  00C7               	movwf	___fldiv@b+1
  1346     0B10  0828               	movf	?___flmul,w
  1347     0B11  00C6               	movwf	___fldiv@b
  1348     0B12  120A  158A  206E  120A  158A  	fcall	___fldiv
  1349     0B17  1283               	bcf	3,5	;RP0=0, select bank0
  1350     0B18  1303               	bcf	3,6	;RP1=0, select bank0
  1351     0B19  0845               	movf	?___fldiv+3,w
  1352     0B1A  1683               	bsf	3,5	;RP0=1, select bank3
  1353     0B1B  1703               	bsf	3,6	;RP1=1, select bank3
  1354     0B1C  00A3               	movwf	(_water_level_percent+3)^(0+384)
  1355     0B1D  1283               	bcf	3,5	;RP0=0, select bank0
  1356     0B1E  1303               	bcf	3,6	;RP1=0, select bank0
  1357     0B1F  0844               	movf	?___fldiv+2,w
  1358     0B20  1683               	bsf	3,5	;RP0=1, select bank3
  1359     0B21  1703               	bsf	3,6	;RP1=1, select bank3
  1360     0B22  00A2               	movwf	(_water_level_percent+2)^(0+384)
  1361     0B23  1283               	bcf	3,5	;RP0=0, select bank0
  1362     0B24  1303               	bcf	3,6	;RP1=0, select bank0
  1363     0B25  0843               	movf	?___fldiv+1,w
  1364     0B26  1683               	bsf	3,5	;RP0=1, select bank3
  1365     0B27  1703               	bsf	3,6	;RP1=1, select bank3
  1366     0B28  00A1               	movwf	(_water_level_percent+1)^(0+384)
  1367     0B29  1283               	bcf	3,5	;RP0=0, select bank0
  1368     0B2A  1303               	bcf	3,6	;RP1=0, select bank0
  1369     0B2B  0842               	movf	?___fldiv,w
  1370     0B2C  1683               	bsf	3,5	;RP0=1, select bank3
  1371     0B2D  1703               	bsf	3,6	;RP1=1, select bank3
  1372     0B2E  00A0               	movwf	_water_level_percent^(0+384)
  1373     0B2F                     l3394:
  1374                           
  1375                           ;plant.c: 220:         temp_volt = (temperature_ADC / 1024.0) * 5.0;
  1376     0B2F  3040               	movlw	64
  1377     0B30  1283               	bcf	3,5	;RP0=0, select bank0
  1378     0B31  1303               	bcf	3,6	;RP1=0, select bank0
  1379     0B32  00AB               	movwf	___flmul@b+3
  1380     0B33  30A0               	movlw	160
  1381     0B34  00AA               	movwf	___flmul@b+2
  1382     0B35  3000               	movlw	0
  1383     0B36  00A9               	movwf	___flmul@b+1
  1384     0B37  3000               	movlw	0
  1385     0B38  00A8               	movwf	___flmul@b
  1386     0B39  3044               	movlw	68
  1387     0B3A  00C5               	movwf	___fldiv@a+3
  1388     0B3B  3080               	movlw	128
  1389     0B3C  00C4               	movwf	___fldiv@a+2
  1390     0B3D  3000               	movlw	0
  1391     0B3E  00C3               	movwf	___fldiv@a+1
  1392     0B3F  3000               	movlw	0
  1393     0B40  00C2               	movwf	___fldiv@a
  1394     0B41  1683               	bsf	3,5	;RP0=1, select bank3
  1395     0B42  1703               	bsf	3,6	;RP1=1, select bank3
  1396     0B43  0836               	movf	_temperature_ADC^(0+384),w
  1397     0B44  00F0               	movwf	___xxtofl@val
  1398     0B45  0837               	movf	(_temperature_ADC+1)^(0+384),w
  1399     0B46  00F1               	movwf	___xxtofl@val+1
  1400     0B47  01F2               	clrf	___xxtofl@val+2
  1401     0B48  01F3               	clrf	___xxtofl@val+3
  1402     0B49  3000               	movlw	0
  1403     0B4A  120A  118A  2029  120A  158A  	fcall	___xxtofl
  1404     0B4F  0873               	movf	?___xxtofl+3,w
  1405     0B50  1283               	bcf	3,5	;RP0=0, select bank0
  1406     0B51  1303               	bcf	3,6	;RP1=0, select bank0
  1407     0B52  00C9               	movwf	___fldiv@b+3
  1408     0B53  0872               	movf	?___xxtofl+2,w
  1409     0B54  00C8               	movwf	___fldiv@b+2
  1410     0B55  0871               	movf	?___xxtofl+1,w
  1411     0B56  00C7               	movwf	___fldiv@b+1
  1412     0B57  0870               	movf	?___xxtofl,w
  1413     0B58  00C6               	movwf	___fldiv@b
  1414     0B59  120A  158A  206E  120A  158A  	fcall	___fldiv
  1415     0B5E  1283               	bcf	3,5	;RP0=0, select bank0
  1416     0B5F  1303               	bcf	3,6	;RP1=0, select bank0
  1417     0B60  0845               	movf	?___fldiv+3,w
  1418     0B61  00AF               	movwf	___flmul@a+3
  1419     0B62  0844               	movf	?___fldiv+2,w
  1420     0B63  00AE               	movwf	___flmul@a+2
  1421     0B64  0843               	movf	?___fldiv+1,w
  1422     0B65  00AD               	movwf	___flmul@a+1
  1423     0B66  0842               	movf	?___fldiv,w
  1424     0B67  00AC               	movwf	___flmul@a
  1425     0B68  120A  158A  24BB  120A  158A  	fcall	___flmul
  1426     0B6D  1283               	bcf	3,5	;RP0=0, select bank0
  1427     0B6E  1303               	bcf	3,6	;RP1=0, select bank0
  1428     0B6F  082B               	movf	?___flmul+3,w
  1429     0B70  1683               	bsf	3,5	;RP0=1, select bank3
  1430     0B71  1703               	bsf	3,6	;RP1=1, select bank3
  1431     0B72  009B               	movwf	(_temp_volt+3)^(0+384)
  1432     0B73  1283               	bcf	3,5	;RP0=0, select bank0
  1433     0B74  1303               	bcf	3,6	;RP1=0, select bank0
  1434     0B75  082A               	movf	?___flmul+2,w
  1435     0B76  1683               	bsf	3,5	;RP0=1, select bank3
  1436     0B77  1703               	bsf	3,6	;RP1=1, select bank3
  1437     0B78  009A               	movwf	(_temp_volt+2)^(0+384)
  1438     0B79  1283               	bcf	3,5	;RP0=0, select bank0
  1439     0B7A  1303               	bcf	3,6	;RP1=0, select bank0
  1440     0B7B  0829               	movf	?___flmul+1,w
  1441     0B7C  1683               	bsf	3,5	;RP0=1, select bank3
  1442     0B7D  1703               	bsf	3,6	;RP1=1, select bank3
  1443     0B7E  0099               	movwf	(_temp_volt+1)^(0+384)
  1444     0B7F  1283               	bcf	3,5	;RP0=0, select bank0
  1445     0B80  1303               	bcf	3,6	;RP1=0, select bank0
  1446     0B81  0828               	movf	?___flmul,w
  1447     0B82  1683               	bsf	3,5	;RP0=1, select bank3
  1448     0B83  1703               	bsf	3,6	;RP1=1, select bank3
  1449     0B84  0098               	movwf	_temp_volt^(0+384)
  1450     0B85                     l3396:
  1451                           
  1452                           ;plant.c: 221:   temperature_celsius = (temp_volt - 0.5) * 10.0;
  1453     0B85  3041               	movlw	65
  1454     0B86  1283               	bcf	3,5	;RP0=0, select bank0
  1455     0B87  1303               	bcf	3,6	;RP1=0, select bank0
  1456     0B88  00AB               	movwf	___flmul@b+3
  1457     0B89  3020               	movlw	32
  1458     0B8A  00AA               	movwf	___flmul@b+2
  1459     0B8B  3000               	movlw	0
  1460     0B8C  00A9               	movwf	___flmul@b+1
  1461     0B8D  3000               	movlw	0
  1462     0B8E  00A8               	movwf	___flmul@b
  1463     0B8F  30BF               	movlw	191
  1464     0B90  00F3               	movwf	___fladd@b+3
  1465     0B91  3000               	movlw	0
  1466     0B92  00F2               	movwf	___fladd@b+2
  1467     0B93  3000               	movlw	0
  1468     0B94  00F1               	movwf	___fladd@b+1
  1469     0B95  3000               	movlw	0
  1470     0B96  00F0               	movwf	___fladd@b
  1471     0B97  1683               	bsf	3,5	;RP0=1, select bank3
  1472     0B98  1703               	bsf	3,6	;RP1=1, select bank3
  1473     0B99  081B               	movf	(_temp_volt+3)^(0+384),w
  1474     0B9A  00F7               	movwf	___fladd@a+3
  1475     0B9B  081A               	movf	(_temp_volt+2)^(0+384),w
  1476     0B9C  00F6               	movwf	___fladd@a+2
  1477     0B9D  0819               	movf	(_temp_volt+1)^(0+384),w
  1478     0B9E  00F5               	movwf	___fladd@a+1
  1479     0B9F  0818               	movf	_temp_volt^(0+384),w
  1480     0BA0  00F4               	movwf	___fladd@a
  1481     0BA1  160A  118A  259C  120A  158A  	fcall	___fladd
  1482     0BA6  0873               	movf	?___fladd+3,w
  1483     0BA7  1283               	bcf	3,5	;RP0=0, select bank0
  1484     0BA8  1303               	bcf	3,6	;RP1=0, select bank0
  1485     0BA9  00AF               	movwf	___flmul@a+3
  1486     0BAA  0872               	movf	?___fladd+2,w
  1487     0BAB  00AE               	movwf	___flmul@a+2
  1488     0BAC  0871               	movf	?___fladd+1,w
  1489     0BAD  00AD               	movwf	___flmul@a+1
  1490     0BAE  0870               	movf	?___fladd,w
  1491     0BAF  00AC               	movwf	___flmul@a
  1492     0BB0  120A  158A  24BB  120A  158A  	fcall	___flmul
  1493     0BB5  1283               	bcf	3,5	;RP0=0, select bank0
  1494     0BB6  1303               	bcf	3,6	;RP1=0, select bank0
  1495     0BB7  082B               	movf	?___flmul+3,w
  1496     0BB8  1683               	bsf	3,5	;RP0=1, select bank3
  1497     0BB9  1703               	bsf	3,6	;RP1=1, select bank3
  1498     0BBA  009F               	movwf	(_temperature_celsius+3)^(0+384)
  1499     0BBB  1283               	bcf	3,5	;RP0=0, select bank0
  1500     0BBC  1303               	bcf	3,6	;RP1=0, select bank0
  1501     0BBD  082A               	movf	?___flmul+2,w
  1502     0BBE  1683               	bsf	3,5	;RP0=1, select bank3
  1503     0BBF  1703               	bsf	3,6	;RP1=1, select bank3
  1504     0BC0  009E               	movwf	(_temperature_celsius+2)^(0+384)
  1505     0BC1  1283               	bcf	3,5	;RP0=0, select bank0
  1506     0BC2  1303               	bcf	3,6	;RP1=0, select bank0
  1507     0BC3  0829               	movf	?___flmul+1,w
  1508     0BC4  1683               	bsf	3,5	;RP0=1, select bank3
  1509     0BC5  1703               	bsf	3,6	;RP1=1, select bank3
  1510     0BC6  009D               	movwf	(_temperature_celsius+1)^(0+384)
  1511     0BC7  1283               	bcf	3,5	;RP0=0, select bank0
  1512     0BC8  1303               	bcf	3,6	;RP1=0, select bank0
  1513     0BC9  0828               	movf	?___flmul,w
  1514     0BCA  1683               	bsf	3,5	;RP0=1, select bank3
  1515     0BCB  1703               	bsf	3,6	;RP1=1, select bank3
  1516     0BCC  009C               	movwf	_temperature_celsius^(0+384)
  1517     0BCD                     l3398:
  1518                           
  1519                           ;plant.c: 223:   Lcd_Clear();
  1520     0BCD  120A  158A  2003  120A  158A  	fcall	_Lcd_Clear
  1521     0BD2                     l3400:
  1522                           
  1523                           ;plant.c: 224:   Lcd_Set_Cursor(1, 1);
  1524     0BD2  01F4               	clrf	Lcd_Set_Cursor@b
  1525     0BD3  0AF4               	incf	Lcd_Set_Cursor@b,f
  1526     0BD4  3001               	movlw	1
  1527     0BD5  160A  118A  20AF  120A  158A  	fcall	_Lcd_Set_Cursor
  1528     0BDA                     l3402:
  1529                           
  1530                           ;plant.c: 225:         sprintf(s,"Soil: %.1f %%",soil_moisture_percent);
  1531     0BDA  3001               	movlw	(low ((STR_1-__stringbase)| (0+32768)))& (0+255)
  1532     0BDB  1683               	bsf	3,5	;RP0=1, select bank1
  1533     0BDC  1303               	bcf	3,6	;RP1=0, select bank1
  1534     0BDD  00E5               	movwf	sprintf@fmt^(0+128)
  1535     0BDE  1683               	bsf	3,5	;RP0=1, select bank3
  1536     0BDF  1703               	bsf	3,6	;RP1=1, select bank3
  1537     0BE0  0827               	movf	(_soil_moisture_percent+3)^(0+384),w
  1538     0BE1  1683               	bsf	3,5	;RP0=1, select bank1
  1539     0BE2  1303               	bcf	3,6	;RP1=0, select bank1
  1540     0BE3  00E9               	movwf	((?_sprintf+3)^(0+128)+1)
  1541     0BE4  1683               	bsf	3,5	;RP0=1, select bank3
  1542     0BE5  1703               	bsf	3,6	;RP1=1, select bank3
  1543     0BE6  0826               	movf	(_soil_moisture_percent+2)^(0+384),w
  1544     0BE7  1683               	bsf	3,5	;RP0=1, select bank1
  1545     0BE8  1303               	bcf	3,6	;RP1=0, select bank1
  1546     0BE9  00E8               	movwf	((?_sprintf+2)^(0+128)+1)
  1547     0BEA  1683               	bsf	3,5	;RP0=1, select bank3
  1548     0BEB  1703               	bsf	3,6	;RP1=1, select bank3
  1549     0BEC  0825               	movf	(_soil_moisture_percent+1)^(0+384),w
  1550     0BED  1683               	bsf	3,5	;RP0=1, select bank1
  1551     0BEE  1303               	bcf	3,6	;RP1=0, select bank1
  1552     0BEF  00E7               	movwf	((?_sprintf+1)^(0+128)+1)
  1553     0BF0  1683               	bsf	3,5	;RP0=1, select bank3
  1554     0BF1  1703               	bsf	3,6	;RP1=1, select bank3
  1555     0BF2  0824               	movf	_soil_moisture_percent^(0+384),w
  1556     0BF3  1683               	bsf	3,5	;RP0=1, select bank1
  1557     0BF4  1303               	bcf	3,6	;RP1=0, select bank1
  1558     0BF5  00E6               	movwf	(?_sprintf^(0+128)+1)
  1559     0BF6  30B8               	movlw	(low (_s| (0+256)))& (0+255)
  1560     0BF7  160A  158A  2574  120A  158A  	fcall	_sprintf
  1561     0BFC                     l3404:
  1562                           
  1563                           ;plant.c: 226:   Lcd_Write_String(s);
  1564     0BFC  30B8               	movlw	(low (_s| (0+256)))& (0+255)
  1565     0BFD  00F5               	movwf	Lcd_Write_String@a
  1566     0BFE  3001               	movlw	1
  1567     0BFF  00F6               	movwf	Lcd_Write_String@a+1
  1568     0C00  160A  158A  266B  120A  158A  	fcall	_Lcd_Write_String
  1569     0C05                     l3406:
  1570                           
  1571                           ;plant.c: 228:         sprintf(s, "Water: %.2f%%", water_level_percent);
  1572     0C05  300F               	movlw	(low ((STR_2-__stringbase)| (0+32768)))& (0+255)
  1573     0C06  1683               	bsf	3,5	;RP0=1, select bank1
  1574     0C07  1303               	bcf	3,6	;RP1=0, select bank1
  1575     0C08  00E5               	movwf	sprintf@fmt^(0+128)
  1576     0C09  1683               	bsf	3,5	;RP0=1, select bank3
  1577     0C0A  1703               	bsf	3,6	;RP1=1, select bank3
  1578     0C0B  0823               	movf	(_water_level_percent+3)^(0+384),w
  1579     0C0C  1683               	bsf	3,5	;RP0=1, select bank1
  1580     0C0D  1303               	bcf	3,6	;RP1=0, select bank1
  1581     0C0E  00E9               	movwf	((?_sprintf+3)^(0+128)+1)
  1582     0C0F  1683               	bsf	3,5	;RP0=1, select bank3
  1583     0C10  1703               	bsf	3,6	;RP1=1, select bank3
  1584     0C11  0822               	movf	(_water_level_percent+2)^(0+384),w
  1585     0C12  1683               	bsf	3,5	;RP0=1, select bank1
  1586     0C13  1303               	bcf	3,6	;RP1=0, select bank1
  1587     0C14  00E8               	movwf	((?_sprintf+2)^(0+128)+1)
  1588     0C15  1683               	bsf	3,5	;RP0=1, select bank3
  1589     0C16  1703               	bsf	3,6	;RP1=1, select bank3
  1590     0C17  0821               	movf	(_water_level_percent+1)^(0+384),w
  1591     0C18  1683               	bsf	3,5	;RP0=1, select bank1
  1592     0C19  1303               	bcf	3,6	;RP1=0, select bank1
  1593     0C1A  00E7               	movwf	((?_sprintf+1)^(0+128)+1)
  1594     0C1B  1683               	bsf	3,5	;RP0=1, select bank3
  1595     0C1C  1703               	bsf	3,6	;RP1=1, select bank3
  1596     0C1D  0820               	movf	_water_level_percent^(0+384),w
  1597     0C1E  1683               	bsf	3,5	;RP0=1, select bank1
  1598     0C1F  1303               	bcf	3,6	;RP1=0, select bank1
  1599     0C20  00E6               	movwf	(?_sprintf^(0+128)+1)
  1600     0C21  30B8               	movlw	(low (_s| (0+256)))& (0+255)
  1601     0C22  160A  158A  2574  120A  158A  	fcall	_sprintf
  1602     0C27                     l3408:
  1603                           
  1604                           ;plant.c: 229:   Lcd_Set_Cursor(2, 1);
  1605     0C27  01F4               	clrf	Lcd_Set_Cursor@b
  1606     0C28  0AF4               	incf	Lcd_Set_Cursor@b,f
  1607     0C29  3002               	movlw	2
  1608     0C2A  160A  118A  20AF  120A  158A  	fcall	_Lcd_Set_Cursor
  1609     0C2F                     l3410:
  1610                           
  1611                           ;plant.c: 230:   Lcd_Write_String(s);
  1612     0C2F  30B8               	movlw	(low (_s| (0+256)))& (0+255)
  1613     0C30  00F5               	movwf	Lcd_Write_String@a
  1614     0C31  3001               	movlw	1
  1615     0C32  00F6               	movwf	Lcd_Write_String@a+1
  1616     0C33  160A  158A  266B  120A  158A  	fcall	_Lcd_Write_String
  1617     0C38                     l3412:
  1618                           
  1619                           ;plant.c: 232:   sprintf(s, "Temp: %.2f C", temperature_celsius);
  1620     0C38  301D               	movlw	(low ((STR_3-__stringbase)| (0+32768)))& (0+255)
  1621     0C39  1683               	bsf	3,5	;RP0=1, select bank1
  1622     0C3A  1303               	bcf	3,6	;RP1=0, select bank1
  1623     0C3B  00E5               	movwf	sprintf@fmt^(0+128)
  1624     0C3C  1683               	bsf	3,5	;RP0=1, select bank3
  1625     0C3D  1703               	bsf	3,6	;RP1=1, select bank3
  1626     0C3E  081F               	movf	(_temperature_celsius+3)^(0+384),w
  1627     0C3F  1683               	bsf	3,5	;RP0=1, select bank1
  1628     0C40  1303               	bcf	3,6	;RP1=0, select bank1
  1629     0C41  00E9               	movwf	((?_sprintf+3)^(0+128)+1)
  1630     0C42  1683               	bsf	3,5	;RP0=1, select bank3
  1631     0C43  1703               	bsf	3,6	;RP1=1, select bank3
  1632     0C44  081E               	movf	(_temperature_celsius+2)^(0+384),w
  1633     0C45  1683               	bsf	3,5	;RP0=1, select bank1
  1634     0C46  1303               	bcf	3,6	;RP1=0, select bank1
  1635     0C47  00E8               	movwf	((?_sprintf+2)^(0+128)+1)
  1636     0C48  1683               	bsf	3,5	;RP0=1, select bank3
  1637     0C49  1703               	bsf	3,6	;RP1=1, select bank3
  1638     0C4A  081D               	movf	(_temperature_celsius+1)^(0+384),w
  1639     0C4B  1683               	bsf	3,5	;RP0=1, select bank1
  1640     0C4C  1303               	bcf	3,6	;RP1=0, select bank1
  1641     0C4D  00E7               	movwf	((?_sprintf+1)^(0+128)+1)
  1642     0C4E  1683               	bsf	3,5	;RP0=1, select bank3
  1643     0C4F  1703               	bsf	3,6	;RP1=1, select bank3
  1644     0C50  081C               	movf	_temperature_celsius^(0+384),w
  1645     0C51  1683               	bsf	3,5	;RP0=1, select bank1
  1646     0C52  1303               	bcf	3,6	;RP1=0, select bank1
  1647     0C53  00E6               	movwf	(?_sprintf^(0+128)+1)
  1648     0C54  30B8               	movlw	(low (_s| (0+256)))& (0+255)
  1649     0C55  160A  158A  2574  120A  158A  	fcall	_sprintf
  1650     0C5A                     l3414:
  1651                           
  1652                           ;plant.c: 233:   Lcd_Set_Cursor(3, 1);
  1653     0C5A  01F4               	clrf	Lcd_Set_Cursor@b
  1654     0C5B  0AF4               	incf	Lcd_Set_Cursor@b,f
  1655     0C5C  3003               	movlw	3
  1656     0C5D  160A  118A  20AF  120A  158A  	fcall	_Lcd_Set_Cursor
  1657     0C62                     l3416:
  1658                           
  1659                           ;plant.c: 234:   Lcd_Write_String(s);
  1660     0C62  30B8               	movlw	(low (_s| (0+256)))& (0+255)
  1661     0C63  00F5               	movwf	Lcd_Write_String@a
  1662     0C64  3001               	movlw	1
  1663     0C65  00F6               	movwf	Lcd_Write_String@a+1
  1664     0C66  160A  158A  266B  120A  158A  	fcall	_Lcd_Write_String
  1665     0C6B                     l3418:
  1666                           
  1667                           ;plant.c: 236:         Lcd_Set_Cursor(4, 1);
  1668     0C6B  01F4               	clrf	Lcd_Set_Cursor@b
  1669     0C6C  0AF4               	incf	Lcd_Set_Cursor@b,f
  1670     0C6D  3004               	movlw	4
  1671     0C6E  160A  118A  20AF  120A  158A  	fcall	_Lcd_Set_Cursor
  1672     0C73                     l3420:
  1673                           
  1674                           ;plant.c: 237:   Lcd_Write_String("aathil");
  1675     0C73  302A               	movlw	(low ((STR_4-__stringbase)| (0+32768)))& (0+255)
  1676     0C74  00F5               	movwf	Lcd_Write_String@a
  1677     0C75  3080               	movlw	128
  1678     0C76  00F6               	movwf	Lcd_Write_String@a+1
  1679     0C77  160A  158A  266B  120A  158A  	fcall	_Lcd_Write_String
  1680     0C7C                     l3422:
  1681                           
  1682                           ;plant.c: 238:         _delay((unsigned long)((30)*(20000000/4000.0)));
  1683     0C7C  30C3               	movlw	195
  1684     0C7D  1683               	bsf	3,5	;RP0=1, select bank1
  1685     0C7E  1303               	bcf	3,6	;RP1=0, select bank1
  1686     0C7F  00EC               	movwf	(??_main^(0+128)+1)
  1687     0C80  30CC               	movlw	204
  1688     0C81  00EB               	movwf	??_main^(0+128)
  1689     0C82                     u4897:
  1690     0C82  0BEB               	decfsz	??_main^(0+128),f
  1691     0C83  2C82               	goto	u4897
  1692     0C84  0BEC               	decfsz	(??_main^(0+128)+1),f
  1693     0C85  2C82               	goto	u4897
  1694     0C86  0000               	nop
  1695     0C87                     l3424:
  1696                           
  1697                           ;plant.c: 240:         if (water_level_percent<50){
  1698     0C87  1683               	bsf	3,5	;RP0=1, select bank3
  1699     0C88  1703               	bsf	3,6	;RP1=1, select bank3
  1700     0C89  0823               	movf	(_water_level_percent+3)^(0+384),w
  1701     0C8A  1283               	bcf	3,5	;RP0=0, select bank0
  1702     0C8B  1303               	bcf	3,6	;RP1=0, select bank0
  1703     0C8C  00C5               	movwf	___flge@ff1+3
  1704     0C8D  1683               	bsf	3,5	;RP0=1, select bank3
  1705     0C8E  1703               	bsf	3,6	;RP1=1, select bank3
  1706     0C8F  0822               	movf	(_water_level_percent+2)^(0+384),w
  1707     0C90  1283               	bcf	3,5	;RP0=0, select bank0
  1708     0C91  1303               	bcf	3,6	;RP1=0, select bank0
  1709     0C92  00C4               	movwf	___flge@ff1+2
  1710     0C93  1683               	bsf	3,5	;RP0=1, select bank3
  1711     0C94  1703               	bsf	3,6	;RP1=1, select bank3
  1712     0C95  0821               	movf	(_water_level_percent+1)^(0+384),w
  1713     0C96  1283               	bcf	3,5	;RP0=0, select bank0
  1714     0C97  1303               	bcf	3,6	;RP1=0, select bank0
  1715     0C98  00C3               	movwf	___flge@ff1+1
  1716     0C99  1683               	bsf	3,5	;RP0=1, select bank3
  1717     0C9A  1703               	bsf	3,6	;RP1=1, select bank3
  1718     0C9B  0820               	movf	_water_level_percent^(0+384),w
  1719     0C9C  1283               	bcf	3,5	;RP0=0, select bank0
  1720     0C9D  1303               	bcf	3,6	;RP1=0, select bank0
  1721     0C9E  00C2               	movwf	___flge@ff1
  1722     0C9F  3042               	movlw	66
  1723     0CA0  00C9               	movwf	___flge@ff2+3
  1724     0CA1  3048               	movlw	72
  1725     0CA2  00C8               	movwf	___flge@ff2+2
  1726     0CA3  3000               	movlw	0
  1727     0CA4  00C7               	movwf	___flge@ff2+1
  1728     0CA5  3000               	movlw	0
  1729     0CA6  00C6               	movwf	___flge@ff2
  1730     0CA7  160A  118A  21C9  120A  158A  	fcall	___flge
  1731     0CAC  1803               	btfsc	3,0
  1732     0CAD  2CAF               	goto	u4881
  1733     0CAE  2CB0               	goto	u4880
  1734     0CAF                     u4881:
  1735     0CAF  2CB4               	goto	l132
  1736     0CB0                     u4880:
  1737     0CB0                     l3426:
  1738                           
  1739                           ;plant.c: 241:             PORTDbits.RD2=1;
  1740     0CB0  1283               	bcf	3,5	;RP0=0, select bank0
  1741     0CB1  1303               	bcf	3,6	;RP1=0, select bank0
  1742     0CB2  1508               	bsf	8,2	;volatile
  1743                           
  1744                           ;plant.c: 242:         }else{
  1745     0CB3  2A57               	goto	l3384
  1746     0CB4                     l132:
  1747                           
  1748                           ;plant.c: 243:             PORTDbits.RD2=0;
  1749     0CB4  1283               	bcf	3,5	;RP0=0, select bank0
  1750     0CB5  1303               	bcf	3,6	;RP1=0, select bank0
  1751     0CB6  1108               	bcf	8,2	;volatile
  1752     0CB7  2A57               	goto	l3384
  1753     0CB8  120A  118A  2800   	ljmp	start
  1754     0CBB                     __end_of_main:
  1755                           
  1756                           	psect	text1
  1757     1D74                     __ptext1:	
  1758 ;; *************** function _sprintf *****************
  1759 ;; Defined at:
  1760 ;;		line 9 in file "C:\Program Files\Microchip\xc8\v2.46\pic\sources\c99\common\nf_sprintf.c"
  1761 ;; Parameters:    Size  Location     Type
  1762 ;;  s               1    wreg     PTR unsigned char 
  1763 ;;		 -> s(20), 
  1764 ;;  fmt             1   69[BANK1 ] PTR const unsigned char 
  1765 ;;		 -> STR_3(13), STR_2(14), STR_1(14), 
  1766 ;; Auto vars:     Size  Location     Type
  1767 ;;  s               1    1[BANK3 ] PTR unsigned char 
  1768 ;;		 -> s(20), 
  1769 ;;  f              11    2[BANK3 ] struct _IO_FILE
  1770 ;;  ret             2    0        int 
  1771 ;;  ap              1    0[BANK3 ] PTR void [1]
  1772 ;;		 -> ?_sprintf(2), 
  1773 ;; Return value:  Size  Location     Type
  1774 ;;                  2   69[BANK1 ] int 
  1775 ;; Registers used:
  1776 ;;		wreg, fsr0l, fsr0h, status,2, status,0, btemp+1, pclath, cstack
  1777 ;; Tracked objects:
  1778 ;;		On entry : 0/0
  1779 ;;		On exit  : 0/0
  1780 ;;		Unchanged: 0/0
  1781 ;; Data sizes:     COMMON   BANK0   BANK1   BANK3   BANK2
  1782 ;;      Params:         0       0       5       0       0
  1783 ;;      Locals:         0       0       0      13       0
  1784 ;;      Temps:          0       0       1       0       0
  1785 ;;      Totals:         0       0       6      13       0
  1786 ;;Total ram usage:       19 bytes
  1787 ;; Hardware stack levels used: 1
  1788 ;; Hardware stack levels required when called: 7
  1789 ;; This function calls:
  1790 ;;		_vfprintf
  1791 ;; This function is called by:
  1792 ;;		_main
  1793 ;; This function uses a non-reentrant model
  1794 ;;
  1795                           
  1796     1D74                     _sprintf:	
  1797                           ;psect for function _sprintf
  1798                           
  1799                           
  1800                           ;incstack = 0
  1801                           ; Regs used in _sprintf: [wreg-fsr0h+status,2+status,0+btemp+1+pclath+cstack]
  1802                           ;sprintf@s stored from wreg
  1803     1D74  1683               	bsf	3,5	;RP0=1, select bank3
  1804     1D75  1703               	bsf	3,6	;RP1=1, select bank3
  1805     1D76  00D1               	movwf	sprintf@s^(0+384)
  1806     1D77                     l3304:
  1807     1D77  30E6               	movlw	(low ((?_sprintf| 0+1)))& (0+255)
  1808     1D78  00D0               	movwf	sprintf@ap^(0+384)
  1809     1D79  0851               	movf	sprintf@s^(0+384),w
  1810     1D7A  00D2               	movwf	sprintf@f^(0+384)
  1811     1D7B                     l3306:
  1812     1D7B  01D4               	clrf	(sprintf@f^(0+384)+2)
  1813     1D7C  01D5               	clrf	((sprintf@f+1)^(0+384)+2)
  1814     1D7D                     l3308:
  1815     1D7D  01DB               	clrf	(sprintf@f^(0+384)+9)
  1816     1D7E  01DC               	clrf	((sprintf@f+1)^(0+384)+9)
  1817     1D7F                     l3310:
  1818     1D7F  1683               	bsf	3,5	;RP0=1, select bank1
  1819     1D80  1303               	bcf	3,6	;RP1=0, select bank1
  1820     1D81  0865               	movf	sprintf@fmt^(0+128),w
  1821     1D82  00E1               	movwf	vfprintf@fmt^(0+128)
  1822     1D83  30D0               	movlw	(low (sprintf@ap| (0+256)))& (0+255)
  1823     1D84  00E2               	movwf	vfprintf@ap^(0+128)
  1824     1D85  30D2               	movlw	(low (sprintf@f| (0+256)))& (0+255)
  1825     1D86  160A  158A  2531  160A  158A  	fcall	_vfprintf
  1826     1D8B                     l3312:
  1827     1D8B  1683               	bsf	3,5	;RP0=1, select bank3
  1828     1D8C  1703               	bsf	3,6	;RP1=1, select bank3
  1829     1D8D  0854               	movf	(sprintf@f^(0+384)+2),w
  1830     1D8E  0751               	addwf	sprintf@s^(0+384),w
  1831     1D8F  1683               	bsf	3,5	;RP0=1, select bank1
  1832     1D90  1303               	bcf	3,6	;RP1=0, select bank1
  1833     1D91  00EA               	movwf	??_sprintf^(0+128)
  1834     1D92  086A               	movf	??_sprintf^(0+128),w
  1835     1D93  0084               	movwf	4
  1836     1D94  1783               	bsf	3,7	;select IRP bank2
  1837     1D95  0180               	clrf	0
  1838     1D96                     l685:
  1839     1D96  0008               	return
  1840     1D97                     __end_of_sprintf:
  1841                           
  1842                           	psect	text2
  1843     1D31                     __ptext2:	
  1844 ;; *************** function _vfprintf *****************
  1845 ;; Defined at:
  1846 ;;		line 1817 in file "C:\Program Files\Microchip\xc8\v2.46\pic\sources\c99\common\doprnt.c"
  1847 ;; Parameters:    Size  Location     Type
  1848 ;;  fp              1    wreg     PTR struct _IO_FILE
  1849 ;;		 -> sprintf@f(11), 
  1850 ;;  fmt             1   65[BANK1 ] PTR const unsigned char 
  1851 ;;		 -> STR_3(13), STR_2(14), STR_1(14), 
  1852 ;;  ap              1   66[BANK1 ] PTR PTR void 
  1853 ;;		 -> sprintf@ap(1), 
  1854 ;; Auto vars:     Size  Location     Type
  1855 ;;  fp              1   67[BANK1 ] PTR struct _IO_FILE
  1856 ;;		 -> sprintf@f(11), 
  1857 ;;  cfmt            1   68[BANK1 ] PTR unsigned char 
  1858 ;;		 -> STR_3(13), STR_2(14), STR_1(14), 
  1859 ;; Return value:  Size  Location     Type
  1860 ;;                  2   65[BANK1 ] int 
  1861 ;; Registers used:
  1862 ;;		wreg, fsr0l, fsr0h, status,2, status,0, btemp+1, pclath, cstack
  1863 ;; Tracked objects:
  1864 ;;		On entry : 0/0
  1865 ;;		On exit  : 0/0
  1866 ;;		Unchanged: 0/0
  1867 ;; Data sizes:     COMMON   BANK0   BANK1   BANK3   BANK2
  1868 ;;      Params:         0       0       2       0       0
  1869 ;;      Locals:         0       0       2       0       0
  1870 ;;      Temps:          0       0       0       0       0
  1871 ;;      Totals:         0       0       4       0       0
  1872 ;;Total ram usage:        4 bytes
  1873 ;; Hardware stack levels used: 1
  1874 ;; Hardware stack levels required when called: 6
  1875 ;; This function calls:
  1876 ;;		_vfpfcnvrt
  1877 ;; This function is called by:
  1878 ;;		_sprintf
  1879 ;; This function uses a non-reentrant model
  1880 ;;
  1881                           
  1882     1D31                     _vfprintf:	
  1883                           ;psect for function _vfprintf
  1884                           
  1885                           
  1886                           ;incstack = 0
  1887 ;; using string table level
  1888                           ; Regs used in _vfprintf: [wreg-fsr0h+status,2+status,0+btemp+1+pclath+cstack]
  1889                           ;vfprintf@fp stored from wreg
  1890     1D31  1683               	bsf	3,5	;RP0=1, select bank1
  1891     1D32  1303               	bcf	3,6	;RP1=0, select bank1
  1892     1D33  00E3               	movwf	vfprintf@fp^(0+128)
  1893     1D34                     l3200:
  1894                           
  1895                           ;C:\Program Files\Microchip\xc8\v2.46\pic\sources\c99\common\doprnt.c: 1817: int vfprint
      +                          f(FILE *fp, const char *fmt, va_list ap);C:\Program Files\Microchip\xc8\v2.46\pic\source
      +                          s\c99\common\doprnt.c: 1818: {;C:\Program Files\Microchip\xc8\v2.46\pic\sources\c99\comm
      +                          on\doprnt.c: 1820:     char *cfmt;;C:\Program Files\Microchip\xc8\v2.46\pic\sources\c99\
      +                          common\doprnt.c: 1822:     cfmt = (char *)fmt;
  1896     1D34  0861               	movf	vfprintf@fmt^(0+128),w
  1897     1D35  00E4               	movwf	vfprintf@cfmt^(0+128)
  1898                           
  1899                           ;C:\Program Files\Microchip\xc8\v2.46\pic\sources\c99\common\doprnt.c: 1826:     while (
      +                          *cfmt) {
  1900     1D36  2D41               	goto	l3204
  1901     1D37                     l3202:
  1902                           
  1903                           ;C:\Program Files\Microchip\xc8\v2.46\pic\sources\c99\common\doprnt.c: 1830:    vfpfcnvr
      +                          t(fp, &cfmt, ap);
  1904     1D37  30E4               	movlw	(low (vfprintf@cfmt| 0))& (0+255)
  1905     1D38  00D6               	movwf	vfpfcnvrt@fmt^(0+128)
  1906     1D39  0862               	movf	vfprintf@ap^(0+128),w
  1907     1D3A  00D7               	movwf	vfpfcnvrt@ap^(0+128)
  1908     1D3B  0863               	movf	vfprintf@fp^(0+128),w
  1909     1D3C  160A  118A  2485  160A  158A  	fcall	_vfpfcnvrt
  1910     1D41                     l3204:
  1911                           
  1912                           ;C:\Program Files\Microchip\xc8\v2.46\pic\sources\c99\common\doprnt.c: 1826:     while (
      +                          *cfmt) {
  1913     1D41  1683               	bsf	3,5	;RP0=1, select bank1
  1914     1D42  1303               	bcf	3,6	;RP1=0, select bank1
  1915     1D43  0864               	movf	vfprintf@cfmt^(0+128),w
  1916     1D44  0084               	movwf	4
  1917     1D45  160A  158A  200A  160A  158A  	fcall	stringdir
  1918     1D4A  3A00               	xorlw	0
  1919     1D4B  1D03               	skipz
  1920     1D4C  2D4E               	goto	u4611
  1921     1D4D  2D4F               	goto	u4610
  1922     1D4E                     u4611:
  1923     1D4E  2D37               	goto	l3202
  1924     1D4F                     u4610:
  1925     1D4F                     l3206:
  1926                           
  1927                           ;C:\Program Files\Microchip\xc8\v2.46\pic\sources\c99\common\doprnt.c: 1835:  return 0;
  1928     1D4F  01E1               	clrf	?_vfprintf^(0+128)
  1929     1D50  01E2               	clrf	(?_vfprintf+1)^(0+128)
  1930     1D51                     l804:
  1931     1D51  0008               	return
  1932     1D52                     __end_of_vfprintf:
  1933                           
  1934                           	psect	text3
  1935     1485                     __ptext3:	
  1936 ;; *************** function _vfpfcnvrt *****************
  1937 ;; Defined at:
  1938 ;;		line 1177 in file "C:\Program Files\Microchip\xc8\v2.46\pic\sources\c99\common\doprnt.c"
  1939 ;; Parameters:    Size  Location     Type
  1940 ;;  fp              1    wreg     PTR struct _IO_FILE
  1941 ;;		 -> sprintf@f(11), 
  1942 ;;  fmt             1   54[BANK1 ] PTR PTR unsigned char 
  1943 ;;		 -> vfprintf@cfmt(1), 
  1944 ;;  ap              1   55[BANK1 ] PTR PTR void 
  1945 ;;		 -> sprintf@ap(1), 
  1946 ;; Auto vars:     Size  Location     Type
  1947 ;;  fp              1   63[BANK1 ] PTR struct _IO_FILE
  1948 ;;		 -> sprintf@f(11), 
  1949 ;;  convarg         4   58[BANK1 ] struct .
  1950 ;;  cp              1   64[BANK1 ] PTR unsigned char 
  1951 ;;		 -> STR_3(13), STR_2(14), STR_1(14), 
  1952 ;;  c               1   62[BANK1 ] unsigned char 
  1953 ;;  done            1    0        _Bool 
  1954 ;; Return value:  Size  Location     Type
  1955 ;;                  1    wreg      void 
  1956 ;; Registers used:
  1957 ;;		wreg, fsr0l, fsr0h, status,2, status,0, btemp+1, pclath, cstack
  1958 ;; Tracked objects:
  1959 ;;		On entry : 0/0
  1960 ;;		On exit  : 0/0
  1961 ;;		Unchanged: 0/0
  1962 ;; Data sizes:     COMMON   BANK0   BANK1   BANK3   BANK2
  1963 ;;      Params:         0       0       2       0       0
  1964 ;;      Locals:         0       0       7       0       0
  1965 ;;      Temps:          0       0       2       0       0
  1966 ;;      Totals:         0       0      11       0       0
  1967 ;;Total ram usage:       11 bytes
  1968 ;; Hardware stack levels used: 1
  1969 ;; Hardware stack levels required when called: 5
  1970 ;; This function calls:
  1971 ;;		_efgtoa
  1972 ;;		_fputc
  1973 ;;		_read_prec_or_width
  1974 ;; This function is called by:
  1975 ;;		_vfprintf
  1976 ;; This function uses a non-reentrant model
  1977 ;;
  1978                           
  1979     1485                     _vfpfcnvrt:	
  1980                           ;psect for function _vfpfcnvrt
  1981                           
  1982                           
  1983                           ;incstack = 0
  1984 ;; using string table level
  1985                           ; Regs used in _vfpfcnvrt: [wreg-fsr0h+status,2+status,0+btemp+1+pclath+cstack]
  1986                           ;vfpfcnvrt@fp stored from wreg
  1987     1485  1683               	bsf	3,5	;RP0=1, select bank1
  1988     1486  1303               	bcf	3,6	;RP1=0, select bank1
  1989     1487  00DF               	movwf	vfpfcnvrt@fp^(0+128)
  1990     1488                     l3104:
  1991                           
  1992                           ;C:\Program Files\Microchip\xc8\v2.46\pic\sources\c99\common\doprnt.c: 1177: vfpfcnvrt(F
      +                          ILE *fp, char *fmt[], va_list ap);C:\Program Files\Microchip\xc8\v2.46\pic\sources\c99\c
      +                          ommon\doprnt.c: 1178: {;C:\Program Files\Microchip\xc8\v2.46\pic\sources\c99\common\dopr
      +                          nt.c: 1179:     char c, *cp;;C:\Program Files\Microchip\xc8\v2.46\pic\sources\c99\common
      +                          \doprnt.c: 1180:     _Bool done;;C:\Program Files\Microchip\xc8\v2.46\pic\sources\c99\co
      +                          mmon\doprnt.c: 1188:  } convarg;;C:\Program Files\Microchip\xc8\v2.46\pic\sources\c99\co
      +                          mmon\doprnt.c: 1201:     if ((*fmt)[0] == '%') {
  1993     1488  0856               	movf	vfpfcnvrt@fmt^(0+128),w
  1994     1489  0084               	movwf	4
  1995     148A  1383               	bcf	3,7	;select IRP bank0
  1996     148B  0800               	movf	0,w
  1997     148C  0084               	movwf	4
  1998     148D  160A  158A  200A  160A  118A  	fcall	stringdir
  1999     1492  3A25               	xorlw	37
  2000     1493  1D03               	skipz
  2001     1494  2C96               	goto	u4561
  2002     1495  2C97               	goto	u4560
  2003     1496                     u4561:
  2004     1496  2D84               	goto	l3164
  2005     1497                     u4560:
  2006     1497                     l3106:
  2007                           
  2008                           ;C:\Program Files\Microchip\xc8\v2.46\pic\sources\c99\common\doprnt.c: 1202:         ++*
      +                          fmt;
  2009     1497  3001               	movlw	1
  2010     1498  00FF               	movwf	btemp+1
  2011     1499  0856               	movf	vfpfcnvrt@fmt^(0+128),w
  2012     149A  0084               	movwf	4
  2013     149B  087F               	movf	btemp+1,w
  2014     149C  0780               	addwf	0,f
  2015     149D                     l3108:
  2016                           
  2017                           ;C:\Program Files\Microchip\xc8\v2.46\pic\sources\c99\common\doprnt.c: 1204:         fla
      +                          gs = width = 0;
  2018     149D  1683               	bsf	3,5	;RP0=1, select bank3
  2019     149E  1703               	bsf	3,6	;RP1=1, select bank3
  2020     149F  01B4               	clrf	_width^(0+384)
  2021     14A0  01B5               	clrf	(_width+1)^(0+384)
  2022     14A1  1003               	clrc
  2023     14A2  3000               	movlw	0
  2024     14A3  1803               	btfsc	3,0
  2025     14A4  3001               	movlw	1
  2026     14A5  1683               	bsf	3,5	;RP0=1, select bank1
  2027     14A6  1303               	bcf	3,6	;RP1=0, select bank1
  2028     14A7  00EF               	movwf	_flags^(0+128)
  2029     14A8                     l3110:
  2030                           
  2031                           ;C:\Program Files\Microchip\xc8\v2.46\pic\sources\c99\common\doprnt.c: 1205:         pre
      +                          c = -1;
  2032     14A8  30FF               	movlw	255
  2033     14A9  00ED               	movwf	_prec^(0+128)
  2034     14AA  30FF               	movlw	255
  2035     14AB  00EE               	movwf	(_prec^(0+128)+1)
  2036     14AC                     l3112:
  2037                           
  2038                           ;C:\Program Files\Microchip\xc8\v2.46\pic\sources\c99\common\doprnt.c: 1265:         if 
      +                          ((*fmt)[0] == '.') {
  2039     14AC  0856               	movf	vfpfcnvrt@fmt^(0+128),w
  2040     14AD  0084               	movwf	4
  2041     14AE  0800               	movf	0,w
  2042     14AF  0084               	movwf	4
  2043     14B0  160A  158A  200A  160A  118A  	fcall	stringdir
  2044     14B5  3A2E               	xorlw	46
  2045     14B6  1D03               	skipz
  2046     14B7  2CB9               	goto	u4571
  2047     14B8  2CBA               	goto	u4570
  2048     14B9                     u4571:
  2049     14B9  2CCE               	goto	l3118
  2050     14BA                     u4570:
  2051     14BA                     l3114:
  2052                           
  2053                           ;C:\Program Files\Microchip\xc8\v2.46\pic\sources\c99\common\doprnt.c: 1266:            
      +                           ++*fmt;
  2054     14BA  3001               	movlw	1
  2055     14BB  00FF               	movwf	btemp+1
  2056     14BC  0856               	movf	vfpfcnvrt@fmt^(0+128),w
  2057     14BD  0084               	movwf	4
  2058     14BE  087F               	movf	btemp+1,w
  2059     14BF  0780               	addwf	0,f
  2060     14C0                     l3116:
  2061                           
  2062                           ;C:\Program Files\Microchip\xc8\v2.46\pic\sources\c99\common\doprnt.c: 1267:    prec = r
      +                          ead_prec_or_width(fmt, ap);
  2063     14C0  0857               	movf	vfpfcnvrt@ap^(0+128),w
  2064     14C1  00F6               	movwf	read_prec_or_width@ap
  2065     14C2  0856               	movf	vfpfcnvrt@fmt^(0+128),w
  2066     14C3  160A  158A  27A6  160A  118A  	fcall	_read_prec_or_width
  2067     14C8  0877               	movf	?_read_prec_or_width+1,w
  2068     14C9  1683               	bsf	3,5	;RP0=1, select bank1
  2069     14CA  1303               	bcf	3,6	;RP1=0, select bank1
  2070     14CB  00EE               	movwf	(_prec+1)^(0+128)
  2071     14CC  0876               	movf	?_read_prec_or_width,w
  2072     14CD  00ED               	movwf	_prec^(0+128)
  2073     14CE                     l3118:
  2074                           
  2075                           ;C:\Program Files\Microchip\xc8\v2.46\pic\sources\c99\common\doprnt.c: 1689:   cp = *fmt
      +                          ;
  2076     14CE  0856               	movf	vfpfcnvrt@fmt^(0+128),w
  2077     14CF  0084               	movwf	4
  2078     14D0  1383               	bcf	3,7	;select IRP bank0
  2079     14D1  0800               	movf	0,w
  2080     14D2  00E0               	movwf	vfpfcnvrt@cp^(0+128)
  2081     14D3                     l3120:
  2082                           
  2083                           ;C:\Program Files\Microchip\xc8\v2.46\pic\sources\c99\common\doprnt.c: 1690:   c = *cp;
  2084     14D3  0860               	movf	vfpfcnvrt@cp^(0+128),w
  2085     14D4  0084               	movwf	4
  2086     14D5  160A  158A  200A  160A  118A  	fcall	stringdir
  2087     14DA  00DE               	movwf	vfpfcnvrt@c^(0+128)
  2088                           
  2089                           ;C:\Program Files\Microchip\xc8\v2.46\pic\sources\c99\common\doprnt.c: 1691:   switch(c)
      +                           {
  2090     14DB  2CE6               	goto	l3130
  2091     14DC                     l3122:
  2092                           
  2093                           ;C:\Program Files\Microchip\xc8\v2.46\pic\sources\c99\common\doprnt.c: 1695:     cp++;
  2094     14DC  3001               	movlw	1
  2095     14DD  00FF               	movwf	btemp+1
  2096     14DE  087F               	movf	btemp+1,w
  2097     14DF  07E0               	addwf	vfpfcnvrt@cp^(0+128),f
  2098                           
  2099                           ;C:\Program Files\Microchip\xc8\v2.46\pic\sources\c99\common\doprnt.c: 1696:     break;
  2100     14E0  2CF1               	goto	l3132
  2101     14E1                     l3124:
  2102                           
  2103                           ;C:\Program Files\Microchip\xc8\v2.46\pic\sources\c99\common\doprnt.c: 1721:     c = 'l'
      +                          ;
  2104     14E1  306C               	movlw	108
  2105     14E2  00DE               	movwf	vfpfcnvrt@c^(0+128)
  2106                           
  2107                           ;C:\Program Files\Microchip\xc8\v2.46\pic\sources\c99\common\doprnt.c: 1722:     break;
  2108     14E3  2CF1               	goto	l3132
  2109     14E4                     l3126:
  2110                           
  2111                           ;C:\Program Files\Microchip\xc8\v2.46\pic\sources\c99\common\doprnt.c: 1724:     c = 0;
  2112     14E4  01DE               	clrf	vfpfcnvrt@c^(0+128)
  2113                           
  2114                           ;C:\Program Files\Microchip\xc8\v2.46\pic\sources\c99\common\doprnt.c: 1725:     break;
  2115     14E5  2CF1               	goto	l3132
  2116     14E6                     l3130:
  2117     14E6  085E               	movf	vfpfcnvrt@c^(0+128),w
  2118                           
  2119                           ; Switch size 1, requested type "simple"
  2120                           ; Number of cases is 3, Range of values is 76 to 108
  2121                           ; switch strategies available:
  2122                           ; Name         Instructions Cycles
  2123                           ; simple_byte           10     6 (average)
  2124                           ; direct_byte          110    11 (fixed)
  2125                           ; jumptable            263     9 (fixed)
  2126                           ;	Chosen strategy is simple_byte
  2127     14E7  3A4C               	xorlw	76	; case 76
  2128     14E8  1903               	skipnz
  2129     14E9  2CDC               	goto	l3122
  2130     14EA  3A2A               	xorlw	42	; case 102
  2131     14EB  1903               	skipnz
  2132     14EC  2CE1               	goto	l3124
  2133     14ED  3A0A               	xorlw	10	; case 108
  2134     14EE  1903               	skipnz
  2135     14EF  2CDC               	goto	l3122
  2136     14F0  2CE4               	goto	l3126
  2137     14F1                     l3132:
  2138     14F1  0860               	movf	vfpfcnvrt@cp^(0+128),w
  2139     14F2  0084               	movwf	4
  2140     14F3  160A  158A  200A  160A  118A  	fcall	stringdir
  2141     14F8  3A66               	xorlw	102
  2142     14F9  1D03               	skipz
  2143     14FA  2CFC               	goto	u4581
  2144     14FB  2CFD               	goto	u4580
  2145     14FC                     u4581:
  2146     14FC  2D5A               	goto	l3152
  2147     14FD                     u4580:
  2148     14FD  2D2A               	goto	l3140
  2149     14FE                     l3134:
  2150                           
  2151                           ;C:\Program Files\Microchip\xc8\v2.46\pic\sources\c99\common\doprnt.c: 1756:      convar
      +                          g.f = (long double)(*(double *)__va_arg(*(double **)ap, (double)0));
  2152     14FE  0857               	movf	vfpfcnvrt@ap^(0+128),w
  2153     14FF  0084               	movwf	4
  2154     1500  1783               	bsf	3,7	;select IRP bank2
  2155     1501  0800               	movf	0,w
  2156     1502  00FF               	movwf	btemp+1
  2157     1503  3004               	movlw	4
  2158     1504  0780               	addwf	0,f
  2159     1505  087F               	movf	btemp+1,w
  2160     1506  0084               	movwf	4
  2161     1507  1383               	bcf	3,7	;select IRP bank0
  2162     1508  0800               	movf	0,w
  2163     1509  00DA               	movwf	vfpfcnvrt@convarg^(0+128)
  2164     150A  0A84               	incf	4,f
  2165     150B  0800               	movf	0,w
  2166     150C  00DB               	movwf	(vfpfcnvrt@convarg+1)^(0+128)
  2167     150D  0A84               	incf	4,f
  2168     150E  0800               	movf	0,w
  2169     150F  00DC               	movwf	(vfpfcnvrt@convarg+2)^(0+128)
  2170     1510  0A84               	incf	4,f
  2171     1511  0800               	movf	0,w
  2172     1512  00DD               	movwf	(vfpfcnvrt@convarg+3)^(0+128)
  2173                           
  2174                           ;C:\Program Files\Microchip\xc8\v2.46\pic\sources\c99\common\doprnt.c: 1757:      break;
  2175     1513  2D32               	goto	l3142
  2176     1514                     l3136:
  2177                           
  2178                           ;C:\Program Files\Microchip\xc8\v2.46\pic\sources\c99\common\doprnt.c: 1759:      convar
      +                          g.f = (long double)(*(long double *)__va_arg(*(long double **)ap, (long double)0));
  2179     1514  0857               	movf	vfpfcnvrt@ap^(0+128),w
  2180     1515  0084               	movwf	4
  2181     1516  1783               	bsf	3,7	;select IRP bank2
  2182     1517  0800               	movf	0,w
  2183     1518  00FF               	movwf	btemp+1
  2184     1519  3004               	movlw	4
  2185     151A  0780               	addwf	0,f
  2186     151B  087F               	movf	btemp+1,w
  2187     151C  0084               	movwf	4
  2188     151D  1383               	bcf	3,7	;select IRP bank0
  2189     151E  0800               	movf	0,w
  2190     151F  00DA               	movwf	vfpfcnvrt@convarg^(0+128)
  2191     1520  0A84               	incf	4,f
  2192     1521  0800               	movf	0,w
  2193     1522  00DB               	movwf	(vfpfcnvrt@convarg+1)^(0+128)
  2194     1523  0A84               	incf	4,f
  2195     1524  0800               	movf	0,w
  2196     1525  00DC               	movwf	(vfpfcnvrt@convarg+2)^(0+128)
  2197     1526  0A84               	incf	4,f
  2198     1527  0800               	movf	0,w
  2199     1528  00DD               	movwf	(vfpfcnvrt@convarg+3)^(0+128)
  2200                           
  2201                           ;C:\Program Files\Microchip\xc8\v2.46\pic\sources\c99\common\doprnt.c: 1760:      break;
  2202     1529  2D32               	goto	l3142
  2203     152A                     l3140:
  2204     152A  085E               	movf	vfpfcnvrt@c^(0+128),w
  2205                           
  2206                           ; Switch size 1, requested type "simple"
  2207                           ; Number of cases is 2, Range of values is 76 to 108
  2208                           ; switch strategies available:
  2209                           ; Name         Instructions Cycles
  2210                           ; simple_byte            7     4 (average)
  2211                           ; direct_byte          110    11 (fixed)
  2212                           ; jumptable            263     9 (fixed)
  2213                           ;	Chosen strategy is simple_byte
  2214     152B  3A4C               	xorlw	76	; case 76
  2215     152C  1903               	skipnz
  2216     152D  2D14               	goto	l3136
  2217     152E  3A20               	xorlw	32	; case 108
  2218     152F  1903               	skipnz
  2219     1530  2CFE               	goto	l3134
  2220     1531  2D32               	goto	l3142
  2221     1532                     l3142:
  2222                           
  2223                           ;C:\Program Files\Microchip\xc8\v2.46\pic\sources\c99\common\doprnt.c: 1762:    *fmt = c
      +                          p+1;
  2224     1532  0856               	movf	vfpfcnvrt@fmt^(0+128),w
  2225     1533  0084               	movwf	4
  2226     1534  0860               	movf	vfpfcnvrt@cp^(0+128),w
  2227     1535  3E01               	addlw	1
  2228     1536  0080               	movwf	0
  2229                           
  2230                           ;C:\Program Files\Microchip\xc8\v2.46\pic\sources\c99\common\doprnt.c: 1763:    switch (
      +                          *cp) {
  2231     1537  2D4F               	goto	l3150
  2232     1538                     l3144:
  2233                           
  2234                           ;C:\Program Files\Microchip\xc8\v2.46\pic\sources\c99\common\doprnt.c: 1790:      return
      +                           (void) efgtoa(fp, convarg.f, *cp);;	Return value of _vfpfcnvrt is never used
  2235     1538  085D               	movf	(vfpfcnvrt@convarg+3)^(0+128),w
  2236     1539  00A3               	movwf	(efgtoa@f+3)^(0+128)
  2237     153A  085C               	movf	(vfpfcnvrt@convarg+2)^(0+128),w
  2238     153B  00A2               	movwf	(efgtoa@f+2)^(0+128)
  2239     153C  085B               	movf	(vfpfcnvrt@convarg+1)^(0+128),w
  2240     153D  00A1               	movwf	(efgtoa@f+1)^(0+128)
  2241     153E  085A               	movf	vfpfcnvrt@convarg^(0+128),w
  2242     153F  00A0               	movwf	efgtoa@f^(0+128)
  2243     1540  0860               	movf	vfpfcnvrt@cp^(0+128),w
  2244     1541  0084               	movwf	4
  2245     1542  160A  158A  200A  160A  118A  	fcall	stringdir
  2246     1547  00A4               	movwf	efgtoa@c^(0+128)
  2247     1548  085F               	movf	vfpfcnvrt@fp^(0+128),w
  2248     1549  160A  118A  226D  160A  118A  	fcall	_efgtoa
  2249     154E  2D9B               	goto	l796
  2250     154F                     l3150:
  2251     154F  0860               	movf	vfpfcnvrt@cp^(0+128),w
  2252     1550  0084               	movwf	4
  2253     1551  160A  158A  200A  160A  118A  	fcall	stringdir
  2254                           
  2255                           ; Switch size 1, requested type "simple"
  2256                           ; Number of cases is 1, Range of values is 102 to 102
  2257                           ; switch strategies available:
  2258                           ; Name         Instructions Cycles
  2259                           ; simple_byte            4     3 (average)
  2260                           ; direct_byte           14    11 (fixed)
  2261                           ; jumptable            263     9 (fixed)
  2262                           ;	Chosen strategy is simple_byte
  2263     1556  3A66               	xorlw	102	; case 102
  2264     1557  1903               	skipnz
  2265     1558  2D38               	goto	l3144
  2266     1559  2D5A               	goto	l3152
  2267     155A                     l3152:
  2268                           
  2269                           ;C:\Program Files\Microchip\xc8\v2.46\pic\sources\c99\common\doprnt.c: 1798:         if 
      +                          ((*fmt)[0] == '%') {
  2270     155A  0856               	movf	vfpfcnvrt@fmt^(0+128),w
  2271     155B  0084               	movwf	4
  2272     155C  0800               	movf	0,w
  2273     155D  0084               	movwf	4
  2274     155E  160A  158A  200A  160A  118A  	fcall	stringdir
  2275     1563  3A25               	xorlw	37
  2276     1564  1D03               	skipz
  2277     1565  2D67               	goto	u4591
  2278     1566  2D68               	goto	u4590
  2279     1567                     u4591:
  2280     1567  2D7A               	goto	l3160
  2281     1568                     u4590:
  2282     1568                     l3154:
  2283                           
  2284                           ;C:\Program Files\Microchip\xc8\v2.46\pic\sources\c99\common\doprnt.c: 1799:            
      +                           ++*fmt;
  2285     1568  3001               	movlw	1
  2286     1569  00FF               	movwf	btemp+1
  2287     156A  0856               	movf	vfpfcnvrt@fmt^(0+128),w
  2288     156B  0084               	movwf	4
  2289     156C  087F               	movf	btemp+1,w
  2290     156D  0780               	addwf	0,f
  2291     156E                     l3156:
  2292                           
  2293                           ;C:\Program Files\Microchip\xc8\v2.46\pic\sources\c99\common\doprnt.c: 1800:            
      +                           fputc((int)'%', fp);
  2294     156E  3025               	movlw	37
  2295     156F  00F0               	movwf	fputc@c
  2296     1570  3000               	movlw	0
  2297     1571  00F1               	movwf	fputc@c+1
  2298     1572  085F               	movf	vfpfcnvrt@fp^(0+128),w
  2299     1573  00F2               	movwf	fputc@fp
  2300     1574  160A  158A  2750  160A  118A  	fcall	_fputc
  2301     1579  2D9B               	goto	l796
  2302     157A                     l3160:
  2303                           
  2304                           ;C:\Program Files\Microchip\xc8\v2.46\pic\sources\c99\common\doprnt.c: 1806:         ++*
      +                          fmt;
  2305     157A  3001               	movlw	1
  2306     157B  00FF               	movwf	btemp+1
  2307     157C  1683               	bsf	3,5	;RP0=1, select bank1
  2308     157D  1303               	bcf	3,6	;RP1=0, select bank1
  2309     157E  0856               	movf	vfpfcnvrt@fmt^(0+128),w
  2310     157F  0084               	movwf	4
  2311     1580  087F               	movf	btemp+1,w
  2312     1581  1383               	bcf	3,7	;select IRP bank0
  2313     1582  0780               	addwf	0,f
  2314     1583  2D9B               	goto	l796
  2315     1584                     l3164:
  2316                           
  2317                           ;C:\Program Files\Microchip\xc8\v2.46\pic\sources\c99\common\doprnt.c: 1811:     fputc((
      +                          int)(*fmt)[0], fp);
  2318     1584  0856               	movf	vfpfcnvrt@fmt^(0+128),w
  2319     1585  0084               	movwf	4
  2320     1586  0800               	movf	0,w
  2321     1587  0084               	movwf	4
  2322     1588  160A  158A  200A  160A  118A  	fcall	stringdir
  2323     158D  00D8               	movwf	??_vfpfcnvrt^(0+128)
  2324     158E  01D9               	clrf	(??_vfpfcnvrt^(0+128)+1)
  2325     158F  0858               	movf	??_vfpfcnvrt^(0+128),w
  2326     1590  00F0               	movwf	fputc@c
  2327     1591  0859               	movf	(??_vfpfcnvrt+1)^(0+128),w
  2328     1592  00F1               	movwf	fputc@c+1
  2329     1593  085F               	movf	vfpfcnvrt@fp^(0+128),w
  2330     1594  00F2               	movwf	fputc@fp
  2331     1595  160A  158A  2750  160A  118A  	fcall	_fputc
  2332     159A  2D7A               	goto	l3160
  2333     159B                     l796:
  2334     159B  0008               	return
  2335     159C                     __end_of_vfpfcnvrt:
  2336                           
  2337                           	psect	text4
  2338     1FA6                     __ptext4:	
  2339 ;; *************** function _read_prec_or_width *****************
  2340 ;; Defined at:
  2341 ;;		line 1158 in file "C:\Program Files\Microchip\xc8\v2.46\pic\sources\c99\common\doprnt.c"
  2342 ;; Parameters:    Size  Location     Type
  2343 ;;  fmt             1    wreg     PTR PTR const unsigned c
  2344 ;;		 -> vfprintf@cfmt(1), 
  2345 ;;  ap              1    6[COMMON] PTR PTR void [1]
  2346 ;;		 -> sprintf@ap(1), 
  2347 ;; Auto vars:     Size  Location     Type
  2348 ;;  fmt             1   11[COMMON] PTR PTR const unsigned c
  2349 ;;		 -> vfprintf@cfmt(1), 
  2350 ;;  c               1    8[COMMON] unsigned char 
  2351 ;;  n               2    9[COMMON] int 
  2352 ;; Return value:  Size  Location     Type
  2353 ;;                  2    6[COMMON] int 
  2354 ;; Registers used:
  2355 ;;		wreg, fsr0l, fsr0h, status,2, status,0, btemp+1, pclath, cstack
  2356 ;; Tracked objects:
  2357 ;;		On entry : 0/0
  2358 ;;		On exit  : 0/0
  2359 ;;		Unchanged: 0/0
  2360 ;; Data sizes:     COMMON   BANK0   BANK1   BANK3   BANK2
  2361 ;;      Params:         2       0       0       0       0
  2362 ;;      Locals:         4       0       0       0       0
  2363 ;;      Temps:          0       0       0       0       0
  2364 ;;      Totals:         6       0       0       0       0
  2365 ;;Total ram usage:        6 bytes
  2366 ;; Hardware stack levels used: 1
  2367 ;; Hardware stack levels required when called: 1
  2368 ;; This function calls:
  2369 ;;		___wmul
  2370 ;; This function is called by:
  2371 ;;		_vfpfcnvrt
  2372 ;; This function uses a non-reentrant model
  2373 ;;
  2374                           
  2375     1FA6                     _read_prec_or_width:	
  2376                           ;psect for function _read_prec_or_width
  2377                           
  2378                           
  2379                           ;incstack = 0
  2380                           ; Regs used in _read_prec_or_width: [wreg-fsr0h+status,2+status,0+btemp+1+pclath+cstack]
  2381                           ;read_prec_or_width@fmt stored from wreg
  2382     1FA6  00FB               	movwf	read_prec_or_width@fmt
  2383     1FA7                     l3078:
  2384                           
  2385                           ;C:\Program Files\Microchip\xc8\v2.46\pic\sources\c99\common\doprnt.c: 1159:     int n =
      +                           0;
  2386     1FA7  01F9               	clrf	read_prec_or_width@n
  2387     1FA8  01FA               	clrf	read_prec_or_width@n+1
  2388     1FA9                     l3080:
  2389                           
  2390                           ;C:\Program Files\Microchip\xc8\v2.46\pic\sources\c99\common\doprnt.c: 1160:     if ((*f
      +                          mt)[0] == '*') {
  2391     1FA9  087B               	movf	read_prec_or_width@fmt,w
  2392     1FAA  0084               	movwf	4
  2393     1FAB  1383               	bcf	3,7	;select IRP bank0
  2394     1FAC  0800               	movf	0,w
  2395     1FAD  0084               	movwf	4
  2396     1FAE  160A  158A  200A  160A  158A  	fcall	stringdir
  2397     1FB3  3A2A               	xorlw	42
  2398     1FB4  1D03               	skipz
  2399     1FB5  2FB7               	goto	u4501
  2400     1FB6  2FB8               	goto	u4500
  2401     1FB7                     u4501:
  2402     1FB7  2FEA               	goto	l3088
  2403     1FB8                     u4500:
  2404     1FB8                     l3082:
  2405                           
  2406                           ;C:\Program Files\Microchip\xc8\v2.46\pic\sources\c99\common\doprnt.c: 1161:         ++*
      +                          fmt;
  2407     1FB8  3001               	movlw	1
  2408     1FB9  00FF               	movwf	btemp+1
  2409     1FBA  087B               	movf	read_prec_or_width@fmt,w
  2410     1FBB  0084               	movwf	4
  2411     1FBC  087F               	movf	btemp+1,w
  2412     1FBD  0780               	addwf	0,f
  2413                           
  2414                           ;C:\Program Files\Microchip\xc8\v2.46\pic\sources\c99\common\doprnt.c: 1162:         n =
      +                           (*(int *)__va_arg(*(int **)*ap, (int)0));
  2415     1FBE  0876               	movf	read_prec_or_width@ap,w
  2416     1FBF  0084               	movwf	4
  2417     1FC0  1783               	bsf	3,7	;select IRP bank2
  2418     1FC1  0800               	movf	0,w
  2419     1FC2  00FF               	movwf	btemp+1
  2420     1FC3  3002               	movlw	2
  2421     1FC4  0780               	addwf	0,f
  2422     1FC5  087F               	movf	btemp+1,w
  2423     1FC6  0084               	movwf	4
  2424     1FC7  1383               	bcf	3,7	;select IRP bank0
  2425     1FC8  0800               	movf	0,w
  2426     1FC9  00F9               	movwf	read_prec_or_width@n
  2427     1FCA  0A84               	incf	4,f
  2428     1FCB  0800               	movf	0,w
  2429     1FCC  00FA               	movwf	read_prec_or_width@n+1
  2430                           
  2431                           ;C:\Program Files\Microchip\xc8\v2.46\pic\sources\c99\common\doprnt.c: 1163:     } else 
      +                          {
  2432     1FCD  2FFB               	goto	l3090
  2433     1FCE                     l3084:
  2434                           
  2435                           ;C:\Program Files\Microchip\xc8\v2.46\pic\sources\c99\common\doprnt.c: 1166:            
      +                           n = n * 10 + c;
  2436     1FCE  087A               	movf	read_prec_or_width@n+1,w
  2437     1FCF  00F1               	movwf	___wmul@multiplier+1
  2438     1FD0  0879               	movf	read_prec_or_width@n,w
  2439     1FD1  00F0               	movwf	___wmul@multiplier
  2440     1FD2  300A               	movlw	10
  2441     1FD3  00F2               	movwf	___wmul@multiplicand
  2442     1FD4  3000               	movlw	0
  2443     1FD5  00F3               	movwf	___wmul@multiplicand+1
  2444     1FD6  160A  158A  25BB  160A  158A  	fcall	___wmul
  2445     1FDB  0878               	movf	read_prec_or_width@c,w
  2446     1FDC  0770               	addwf	?___wmul,w
  2447     1FDD  00F9               	movwf	read_prec_or_width@n
  2448     1FDE  3000               	movlw	0
  2449     1FDF  1803               	skipnc
  2450     1FE0  3001               	movlw	1
  2451     1FE1  0771               	addwf	?___wmul+1,w
  2452     1FE2  00FA               	movwf	read_prec_or_width@n+1
  2453     1FE3                     l3086:
  2454                           
  2455                           ;C:\Program Files\Microchip\xc8\v2.46\pic\sources\c99\common\doprnt.c: 1167:            
      +                           ++*fmt;
  2456     1FE3  3001               	movlw	1
  2457     1FE4  00FF               	movwf	btemp+1
  2458     1FE5  087B               	movf	read_prec_or_width@fmt,w
  2459     1FE6  0084               	movwf	4
  2460     1FE7  087F               	movf	btemp+1,w
  2461     1FE8  1383               	bcf	3,7	;select IRP bank0
  2462     1FE9  0780               	addwf	0,f
  2463     1FEA                     l3088:
  2464                           
  2465                           ;C:\Program Files\Microchip\xc8\v2.46\pic\sources\c99\common\doprnt.c: 1165:         whi
      +                          le ((c = ((unsigned)(*fmt)[0]) - '0') < 10) {
  2466     1FEA  087B               	movf	read_prec_or_width@fmt,w
  2467     1FEB  0084               	movwf	4
  2468     1FEC  0800               	movf	0,w
  2469     1FED  0084               	movwf	4
  2470     1FEE  160A  158A  200A  160A  158A  	fcall	stringdir
  2471     1FF3  3ED0               	addlw	208
  2472     1FF4  00F8               	movwf	read_prec_or_width@c
  2473     1FF5  300A               	movlw	10
  2474     1FF6  0278               	subwf	read_prec_or_width@c,w
  2475     1FF7  1C03               	skipc
  2476     1FF8  2FFA               	goto	u4511
  2477     1FF9  2FFB               	goto	u4510
  2478     1FFA                     u4511:
  2479     1FFA  2FCE               	goto	l3084
  2480     1FFB                     u4510:
  2481     1FFB                     l3090:
  2482                           
  2483                           ;C:\Program Files\Microchip\xc8\v2.46\pic\sources\c99\common\doprnt.c: 1170:     return 
      +                          n;
  2484     1FFB  087A               	movf	read_prec_or_width@n+1,w
  2485     1FFC  00F7               	movwf	?_read_prec_or_width+1
  2486     1FFD  0879               	movf	read_prec_or_width@n,w
  2487     1FFE  00F6               	movwf	?_read_prec_or_width
  2488     1FFF                     l776:
  2489     1FFF  0008               	return
  2490     2000                     __end_of_read_prec_or_width:
  2491                           
  2492                           	psect	text5
  2493     1DBB                     __ptext5:	
  2494 ;; *************** function ___wmul *****************
  2495 ;; Defined at:
  2496 ;;		line 15 in file "C:\Program Files\Microchip\xc8\v2.46\pic\sources\c99\common\Umul16.c"
  2497 ;; Parameters:    Size  Location     Type
  2498 ;;  multiplier      2    0[COMMON] unsigned int 
  2499 ;;  multiplicand    2    2[COMMON] unsigned int 
  2500 ;; Auto vars:     Size  Location     Type
  2501 ;;  product         2    4[COMMON] unsigned int 
  2502 ;; Return value:  Size  Location     Type
  2503 ;;                  2    0[COMMON] unsigned int 
  2504 ;; Registers used:
  2505 ;;		wreg, status,2, status,0
  2506 ;; Tracked objects:
  2507 ;;		On entry : 0/0
  2508 ;;		On exit  : 0/0
  2509 ;;		Unchanged: 0/0
  2510 ;; Data sizes:     COMMON   BANK0   BANK1   BANK3   BANK2
  2511 ;;      Params:         4       0       0       0       0
  2512 ;;      Locals:         2       0       0       0       0
  2513 ;;      Temps:          0       0       0       0       0
  2514 ;;      Totals:         6       0       0       0       0
  2515 ;;Total ram usage:        6 bytes
  2516 ;; Hardware stack levels used: 1
  2517 ;; This function calls:
  2518 ;;		Nothing
  2519 ;; This function is called by:
  2520 ;;		_read_prec_or_width
  2521 ;; This function uses a non-reentrant model
  2522 ;;
  2523                           
  2524     1DBB                     ___wmul:	
  2525                           ;psect for function ___wmul
  2526                           
  2527     1DBB                     l2396:	
  2528                           ;incstack = 0
  2529                           ; Regs used in ___wmul: [wreg+status,2+status,0]
  2530                           
  2531     1DBB  01F4               	clrf	___wmul@product
  2532     1DBC  01F5               	clrf	___wmul@product+1
  2533     1DBD                     l2398:
  2534     1DBD  1C70               	btfss	___wmul@multiplier,0
  2535     1DBE  2DC0               	goto	u2991
  2536     1DBF  2DC1               	goto	u2990
  2537     1DC0                     u2991:
  2538     1DC0  2DC7               	goto	l222
  2539     1DC1                     u2990:
  2540     1DC1                     l2400:
  2541     1DC1  0872               	movf	___wmul@multiplicand,w
  2542     1DC2  07F4               	addwf	___wmul@product,f
  2543     1DC3  1803               	skipnc
  2544     1DC4  0AF5               	incf	___wmul@product+1,f
  2545     1DC5  0873               	movf	___wmul@multiplicand+1,w
  2546     1DC6  07F5               	addwf	___wmul@product+1,f
  2547     1DC7                     l222:
  2548     1DC7  3001               	movlw	1
  2549     1DC8                     u3005:
  2550     1DC8  1003               	clrc
  2551     1DC9  0DF2               	rlf	___wmul@multiplicand,f
  2552     1DCA  0DF3               	rlf	___wmul@multiplicand+1,f
  2553     1DCB  3EFF               	addlw	-1
  2554     1DCC  1D03               	skipz
  2555     1DCD  2DC8               	goto	u3005
  2556     1DCE                     l2402:
  2557     1DCE  3001               	movlw	1
  2558     1DCF                     u3015:
  2559     1DCF  1003               	clrc
  2560     1DD0  0CF1               	rrf	___wmul@multiplier+1,f
  2561     1DD1  0CF0               	rrf	___wmul@multiplier,f
  2562     1DD2  3EFF               	addlw	-1
  2563     1DD3  1D03               	skipz
  2564     1DD4  2DCF               	goto	u3015
  2565     1DD5                     l2404:
  2566     1DD5  0870               	movf	___wmul@multiplier,w
  2567     1DD6  0471               	iorwf	___wmul@multiplier+1,w
  2568     1DD7  1D03               	btfss	3,2
  2569     1DD8  2DDA               	goto	u3021
  2570     1DD9  2DDB               	goto	u3020
  2571     1DDA                     u3021:
  2572     1DDA  2DBD               	goto	l2398
  2573     1DDB                     u3020:
  2574     1DDB                     l2406:
  2575     1DDB  0875               	movf	___wmul@product+1,w
  2576     1DDC  00F1               	movwf	?___wmul+1
  2577     1DDD  0874               	movf	___wmul@product,w
  2578     1DDE  00F0               	movwf	?___wmul
  2579     1DDF                     l224:
  2580     1DDF  0008               	return
  2581     1DE0                     __end_of___wmul:
  2582                           
  2583                           	psect	text6
  2584     126D                     __ptext6:	
  2585 ;; *************** function _efgtoa *****************
  2586 ;; Defined at:
  2587 ;;		line 587 in file "C:\Program Files\Microchip\xc8\v2.46\pic\sources\c99\common\doprnt.c"
  2588 ;; Parameters:    Size  Location     Type
  2589 ;;  fp              1    wreg     PTR struct _IO_FILE
  2590 ;;		 -> sprintf@f(11), 
  2591 ;;  f               4    0[BANK1 ] PTR struct _IO_FILE
  2592 ;;  c               1    4[BANK1 ] unsigned char 
  2593 ;; Auto vars:     Size  Location     Type
  2594 ;;  fp              1   24[BANK1 ] PTR struct _IO_FILE
  2595 ;;		 -> sprintf@f(11), 
  2596 ;;  u               4   50[BANK1 ] struct flui
  2597 ;;  g               4   46[BANK1 ] struct flui
  2598 ;;  l               4   39[BANK1 ] struct flui
  2599 ;;  h               4   35[BANK1 ] struct flui
  2600 ;;  ou              4   29[BANK1 ] struct flui
  2601 ;;  n               2   44[BANK1 ] int 
  2602 ;;  i               2   33[BANK1 ] int 
  2603 ;;  w               2   27[BANK1 ] int 
  2604 ;;  e               2   25[BANK1 ] int 
  2605 ;;  m               2   22[BANK1 ] int 
  2606 ;;  d               2   20[BANK1 ] int 
  2607 ;;  t               2   13[BANK1 ] int 
  2608 ;;  p               2   11[BANK1 ] int 
  2609 ;;  ne              2    9[BANK1 ] int 
  2610 ;;  sign            1   43[BANK1 ] unsigned char 
  2611 ;;  nmode           1   19[BANK1 ] unsigned char 
  2612 ;;  mode            1   18[BANK1 ] unsigned char 
  2613 ;;  pp              1   17[BANK1 ] unsigned char 
  2614 ;;  esign           1    0        unsigned char 
  2615 ;; Return value:  Size  Location     Type
  2616 ;;                  1    wreg      void 
  2617 ;; Registers used:
  2618 ;;		wreg, fsr0l, fsr0h, status,2, status,0, btemp+1, pclath, cstack
  2619 ;; Tracked objects:
  2620 ;;		On entry : 0/0
  2621 ;;		On exit  : 0/0
  2622 ;;		Unchanged: 0/0
  2623 ;; Data sizes:     COMMON   BANK0   BANK1   BANK3   BANK2
  2624 ;;      Params:         0       0       5       0       0
  2625 ;;      Locals:         0       0      45       0       0
  2626 ;;      Temps:          0       0       4       0       0
  2627 ;;      Totals:         0       0      54       0       0
  2628 ;;Total ram usage:       54 bytes
  2629 ;; Hardware stack levels used: 1
  2630 ;; Hardware stack levels required when called: 4
  2631 ;; This function calls:
  2632 ;;		___fladd
  2633 ;;		___fldiv
  2634 ;;		___fleq
  2635 ;;		___flge
  2636 ;;		___flmul
  2637 ;;		___flneg
  2638 ;;		___flsub
  2639 ;;		___fltol
  2640 ;;		___fpclassifyf
  2641 ;;		_floorf
  2642 ;;		_labs
  2643 ;;		_memcpy
  2644 ;;		_pad
  2645 ;;		_strcpy
  2646 ;; This function is called by:
  2647 ;;		_vfpfcnvrt
  2648 ;; This function uses a non-reentrant model
  2649 ;;
  2650                           
  2651     126D                     _efgtoa:	
  2652                           ;psect for function _efgtoa
  2653                           
  2654                           
  2655                           ;incstack = 0
  2656                           ; Regs used in _efgtoa: [wreg-fsr0h+status,2+status,0+btemp+1+pclath+cstack]
  2657                           ;efgtoa@fp stored from wreg
  2658     126D  1683               	bsf	3,5	;RP0=1, select bank1
  2659     126E  1303               	bcf	3,6	;RP1=0, select bank1
  2660     126F  00B8               	movwf	efgtoa@fp^(0+128)
  2661     1270                     l2870:
  2662                           
  2663                           ;C:\Program Files\Microchip\xc8\v2.46\pic\sources\c99\common\doprnt.c: 587: static void 
      +                          efgtoa(FILE *fp, long double f, char c);C:\Program Files\Microchip\xc8\v2.46\pic\sources
      +                          \c99\common\doprnt.c: 588: {;C:\Program Files\Microchip\xc8\v2.46\pic\sources\c99\common
      +                          \doprnt.c: 589:     char mode, nmode, pp, sign, esign;;C:\Program Files\Microchip\xc8\v2
      +                          .46\pic\sources\c99\common\doprnt.c: 590:     int d, e, i, m, n, ne, p, t, w;;C:\Program
      +                           Files\Microchip\xc8\v2.46\pic\sources\c99\common\doprnt.c: 591:     long double h, l;
  2664     1270  01CB               	clrf	efgtoa@sign^(0+128)
  2665     1271                     l2872:
  2666                           
  2667                           ;C:\Program Files\Microchip\xc8\v2.46\pic\sources\c99\common\doprnt.c: 596:     g.f = f;
  2668     1271  0823               	movf	(efgtoa@f+3)^(0+128),w
  2669     1272  00D1               	movwf	(efgtoa@g+3)^(0+128)
  2670     1273  0822               	movf	(efgtoa@f+2)^(0+128),w
  2671     1274  00D0               	movwf	(efgtoa@g+2)^(0+128)
  2672     1275  0821               	movf	(efgtoa@f+1)^(0+128),w
  2673     1276  00CF               	movwf	(efgtoa@g+1)^(0+128)
  2674     1277  0820               	movf	efgtoa@f^(0+128),w
  2675     1278  00CE               	movwf	efgtoa@g^(0+128)
  2676     1279                     l2874:
  2677                           
  2678                           ;C:\Program Files\Microchip\xc8\v2.46\pic\sources\c99\common\doprnt.c: 597:     if (g.f 
      +                          < 0.0) {
  2679     1279  0851               	movf	(efgtoa@g+3)^(0+128),w
  2680     127A  1283               	bcf	3,5	;RP0=0, select bank0
  2681     127B  1303               	bcf	3,6	;RP1=0, select bank0
  2682     127C  00C5               	movwf	___flge@ff1+3
  2683     127D  1683               	bsf	3,5	;RP0=1, select bank1
  2684     127E  1303               	bcf	3,6	;RP1=0, select bank1
  2685     127F  0850               	movf	(efgtoa@g+2)^(0+128),w
  2686     1280  1283               	bcf	3,5	;RP0=0, select bank0
  2687     1281  1303               	bcf	3,6	;RP1=0, select bank0
  2688     1282  00C4               	movwf	___flge@ff1+2
  2689     1283  1683               	bsf	3,5	;RP0=1, select bank1
  2690     1284  1303               	bcf	3,6	;RP1=0, select bank1
  2691     1285  084F               	movf	(efgtoa@g+1)^(0+128),w
  2692     1286  1283               	bcf	3,5	;RP0=0, select bank0
  2693     1287  1303               	bcf	3,6	;RP1=0, select bank0
  2694     1288  00C3               	movwf	___flge@ff1+1
  2695     1289  1683               	bsf	3,5	;RP0=1, select bank1
  2696     128A  1303               	bcf	3,6	;RP1=0, select bank1
  2697     128B  084E               	movf	efgtoa@g^(0+128),w
  2698     128C  1283               	bcf	3,5	;RP0=0, select bank0
  2699     128D  1303               	bcf	3,6	;RP1=0, select bank0
  2700     128E  00C2               	movwf	___flge@ff1
  2701     128F  3000               	movlw	0
  2702     1290  00C9               	movwf	___flge@ff2+3
  2703     1291  3000               	movlw	0
  2704     1292  00C8               	movwf	___flge@ff2+2
  2705     1293  3000               	movlw	0
  2706     1294  00C7               	movwf	___flge@ff2+1
  2707     1295  3000               	movlw	0
  2708     1296  00C6               	movwf	___flge@ff2
  2709     1297  160A  118A  21C9  160A  118A  	fcall	___flge
  2710     129C  1803               	btfsc	3,0
  2711     129D  2A9F               	goto	u4151
  2712     129E  2AA0               	goto	u4150
  2713     129F                     u4151:
  2714     129F  2ABB               	goto	l2880
  2715     12A0                     u4150:
  2716     12A0                     l2876:
  2717                           
  2718                           ;C:\Program Files\Microchip\xc8\v2.46\pic\sources\c99\common\doprnt.c: 598:         sign
      +                           = 1;
  2719     12A0  1683               	bsf	3,5	;RP0=1, select bank1
  2720     12A1  1303               	bcf	3,6	;RP1=0, select bank1
  2721     12A2  01CB               	clrf	efgtoa@sign^(0+128)
  2722     12A3  0ACB               	incf	efgtoa@sign^(0+128),f
  2723     12A4                     l2878:
  2724                           
  2725                           ;C:\Program Files\Microchip\xc8\v2.46\pic\sources\c99\common\doprnt.c: 599:         g.f 
      +                          = -g.f;
  2726     12A4  0851               	movf	(efgtoa@g+3)^(0+128),w
  2727     12A5  00F3               	movwf	___flneg@f1+3
  2728     12A6  0850               	movf	(efgtoa@g+2)^(0+128),w
  2729     12A7  00F2               	movwf	___flneg@f1+2
  2730     12A8  084F               	movf	(efgtoa@g+1)^(0+128),w
  2731     12A9  00F1               	movwf	___flneg@f1+1
  2732     12AA  084E               	movf	efgtoa@g^(0+128),w
  2733     12AB  00F0               	movwf	___flneg@f1
  2734     12AC  160A  158A  24CB  160A  118A  	fcall	___flneg
  2735     12B1  0873               	movf	?___flneg+3,w
  2736     12B2  1683               	bsf	3,5	;RP0=1, select bank1
  2737     12B3  1303               	bcf	3,6	;RP1=0, select bank1
  2738     12B4  00D1               	movwf	(efgtoa@g+3)^(0+128)
  2739     12B5  0872               	movf	?___flneg+2,w
  2740     12B6  00D0               	movwf	(efgtoa@g+2)^(0+128)
  2741     12B7  0871               	movf	?___flneg+1,w
  2742     12B8  00CF               	movwf	(efgtoa@g+1)^(0+128)
  2743     12B9  0870               	movf	?___flneg,w
  2744     12BA  00CE               	movwf	efgtoa@g^(0+128)
  2745     12BB                     l2880:
  2746                           
  2747                           ;C:\Program Files\Microchip\xc8\v2.46\pic\sources\c99\common\doprnt.c: 603:     n = 0;
  2748     12BB  1683               	bsf	3,5	;RP0=1, select bank1
  2749     12BC  1303               	bcf	3,6	;RP1=0, select bank1
  2750     12BD  01CC               	clrf	efgtoa@n^(0+128)
  2751     12BE  01CD               	clrf	(efgtoa@n+1)^(0+128)
  2752     12BF                     l2882:
  2753                           
  2754                           ;C:\Program Files\Microchip\xc8\v2.46\pic\sources\c99\common\doprnt.c: 604:     w = widt
      +                          h;
  2755     12BF  1683               	bsf	3,5	;RP0=1, select bank3
  2756     12C0  1703               	bsf	3,6	;RP1=1, select bank3
  2757     12C1  0835               	movf	(_width+1)^(0+384),w
  2758     12C2  1683               	bsf	3,5	;RP0=1, select bank1
  2759     12C3  1303               	bcf	3,6	;RP1=0, select bank1
  2760     12C4  00BC               	movwf	(efgtoa@w+1)^(0+128)
  2761     12C5  1683               	bsf	3,5	;RP0=1, select bank3
  2762     12C6  1703               	bsf	3,6	;RP1=1, select bank3
  2763     12C7  0834               	movf	_width^(0+384),w
  2764     12C8  1683               	bsf	3,5	;RP0=1, select bank1
  2765     12C9  1303               	bcf	3,6	;RP1=0, select bank1
  2766     12CA  00BB               	movwf	efgtoa@w^(0+128)
  2767     12CB                     l2884:
  2768                           
  2769                           ;C:\Program Files\Microchip\xc8\v2.46\pic\sources\c99\common\doprnt.c: 605:     if (sign
  2770     12CB  084B               	movf	efgtoa@sign^(0+128),w
  2771     12CC  1903               	btfsc	3,2
  2772     12CD  2ACF               	goto	u4161
  2773     12CE  2AD0               	goto	u4160
  2774     12CF                     u4161:
  2775     12CF  2AE0               	goto	l2892
  2776     12D0                     u4160:
  2777     12D0                     l2886:
  2778                           
  2779                           ;C:\Program Files\Microchip\xc8\v2.46\pic\sources\c99\common\doprnt.c: 609:    ) {;C:\Pr
      +                          ogram Files\Microchip\xc8\v2.46\pic\sources\c99\common\doprnt.c: 610:   sign = sign ? '-
      +                          ' : '+';
  2780     12D0  084B               	movf	efgtoa@sign^(0+128),w
  2781     12D1  1D03               	btfss	3,2
  2782     12D2  2AD4               	goto	u4171
  2783     12D3  2AD5               	goto	u4170
  2784     12D4                     u4171:
  2785     12D4  2ADA               	goto	l2890
  2786     12D5                     u4170:
  2787     12D5                     l2888:
  2788     12D5  302B               	movlw	43
  2789     12D6  00AF               	movwf	_efgtoa$789^(0+128)
  2790     12D7  3000               	movlw	0
  2791     12D8  00B0               	movwf	(_efgtoa$789^(0+128)+1)
  2792     12D9  2ADE               	goto	l724
  2793     12DA                     l2890:
  2794     12DA  302D               	movlw	45
  2795     12DB  00AF               	movwf	_efgtoa$789^(0+128)
  2796     12DC  3000               	movlw	0
  2797     12DD  00B0               	movwf	(_efgtoa$789^(0+128)+1)
  2798     12DE                     l724:
  2799     12DE  082F               	movf	_efgtoa$789^(0+128),w
  2800     12DF  00CB               	movwf	efgtoa@sign^(0+128)
  2801     12E0                     l2892:
  2802                           
  2803                           ;C:\Program Files\Microchip\xc8\v2.46\pic\sources\c99\common\doprnt.c: 619:     if (( __
      +                          fpclassifyf(g.f) == 1 )) {
  2804     12E0  0851               	movf	(efgtoa@g+3)^(0+128),w
  2805     12E1  00F3               	movwf	___fpclassifyf@x+3
  2806     12E2  0850               	movf	(efgtoa@g+2)^(0+128),w
  2807     12E3  00F2               	movwf	___fpclassifyf@x+2
  2808     12E4  084F               	movf	(efgtoa@g+1)^(0+128),w
  2809     12E5  00F1               	movwf	___fpclassifyf@x+1
  2810     12E6  084E               	movf	efgtoa@g^(0+128),w
  2811     12E7  00F0               	movwf	___fpclassifyf@x
  2812     12E8  160A  118A  213C  160A  118A  	fcall	___fpclassifyf
  2813     12ED  0370               	decf	?___fpclassifyf,w
  2814     12EE  0471               	iorwf	?___fpclassifyf+1,w
  2815     12EF  1D03               	btfss	3,2
  2816     12F0  2AF2               	goto	u4181
  2817     12F1  2AF3               	goto	u4180
  2818     12F2                     u4181:
  2819     12F2  2B2A               	goto	l2906
  2820     12F3                     u4180:
  2821     12F3                     l2894:
  2822                           
  2823                           ;C:\Program Files\Microchip\xc8\v2.46\pic\sources\c99\common\doprnt.c: 620:   if (sign) 
      +                          {
  2824     12F3  1683               	bsf	3,5	;RP0=1, select bank1
  2825     12F4  1303               	bcf	3,6	;RP1=0, select bank1
  2826     12F5  084B               	movf	efgtoa@sign^(0+128),w
  2827     12F6  1903               	btfsc	3,2
  2828     12F7  2AF9               	goto	u4191
  2829     12F8  2AFA               	goto	u4190
  2830     12F9                     u4191:
  2831     12F9  2B0A               	goto	l2898
  2832     12FA                     u4190:
  2833     12FA                     l2896:
  2834                           
  2835                           ;C:\Program Files\Microchip\xc8\v2.46\pic\sources\c99\common\doprnt.c: 621:    dbuf[0] =
      +                           sign;
  2836     12FA  084B               	movf	efgtoa@sign^(0+128),w
  2837     12FB  1283               	bcf	3,5	;RP0=0, select bank2
  2838     12FC  1703               	bsf	3,6	;RP1=1, select bank2
  2839     12FD  0090               	movwf	_dbuf^(0+256)
  2840                           
  2841                           ;C:\Program Files\Microchip\xc8\v2.46\pic\sources\c99\common\doprnt.c: 622:    w--;
  2842     12FE  30FF               	movlw	255
  2843     12FF  1683               	bsf	3,5	;RP0=1, select bank1
  2844     1300  1303               	bcf	3,6	;RP1=0, select bank1
  2845     1301  07BB               	addwf	efgtoa@w^(0+128),f
  2846     1302  1803               	skipnc
  2847     1303  0ABC               	incf	(efgtoa@w+1)^(0+128),f
  2848     1304  30FF               	movlw	255
  2849     1305  07BC               	addwf	(efgtoa@w+1)^(0+128),f
  2850                           
  2851                           ;C:\Program Files\Microchip\xc8\v2.46\pic\sources\c99\common\doprnt.c: 623:    n = 1;
  2852     1306  3001               	movlw	1
  2853     1307  00CC               	movwf	efgtoa@n^(0+128)
  2854     1308  3000               	movlw	0
  2855     1309  00CD               	movwf	(efgtoa@n^(0+128)+1)
  2856     130A                     l2898:
  2857                           
  2858                           ;C:\Program Files\Microchip\xc8\v2.46\pic\sources\c99\common\doprnt.c: 631:   {;C:\Progr
      +                          am Files\Microchip\xc8\v2.46\pic\sources\c99\common\doprnt.c: 632:             strcpy(&d
      +                          buf[n], "inf");
  2859     130A  3031               	movlw	(low ((STR_5-__stringbase)| (0+32768)))& (0+255)
  2860     130B  00F0               	movwf	strcpy@src
  2861     130C  084C               	movf	efgtoa@n^(0+128),w
  2862     130D  3E10               	addlw	(low (_dbuf| (0+256)))& (0+255)
  2863     130E  160A  158A  2516  160A  118A  	fcall	_strcpy
  2864     1313                     l2900:
  2865                           
  2866                           ;C:\Program Files\Microchip\xc8\v2.46\pic\sources\c99\common\doprnt.c: 633:         };C:
      +                          \Program Files\Microchip\xc8\v2.46\pic\sources\c99\common\doprnt.c: 634:         w -= ((
      +                          sizeof("inf")/sizeof("inf"[0]))-1);
  2867     1313  30FD               	movlw	253
  2868     1314  1683               	bsf	3,5	;RP0=1, select bank1
  2869     1315  1303               	bcf	3,6	;RP1=0, select bank1
  2870     1316  07BB               	addwf	efgtoa@w^(0+128),f
  2871     1317  1803               	skipnc
  2872     1318  0ABC               	incf	(efgtoa@w+1)^(0+128),f
  2873     1319  30FF               	movlw	255
  2874     131A  07BC               	addwf	(efgtoa@w+1)^(0+128),f
  2875     131B                     l2902:
  2876                           
  2877                           ;C:\Program Files\Microchip\xc8\v2.46\pic\sources\c99\common\doprnt.c: 635:         retu
      +                          rn (void) pad(fp, &dbuf[0], w);
  2878     131B  3010               	movlw	(low (_dbuf| (0+256)))& (0+255)
  2879     131C  00FB               	movwf	pad@buf
  2880     131D  083C               	movf	(efgtoa@w+1)^(0+128),w
  2881     131E  00FD               	movwf	pad@p+1
  2882     131F  083B               	movf	efgtoa@w^(0+128),w
  2883     1320  00FC               	movwf	pad@p
  2884     1321  0838               	movf	efgtoa@fp^(0+128),w
  2885     1322  160A  158A  2631  160A  118A  	fcall	_pad
  2886     1327                     L1:
  2887     1327  120A  118A  2FE5   	goto	l727
  2888     132A                     l2906:
  2889                           
  2890                           ;C:\Program Files\Microchip\xc8\v2.46\pic\sources\c99\common\doprnt.c: 637:     if (( __
      +                          fpclassifyf(g.f) == 0 )) {
  2891     132A  1683               	bsf	3,5	;RP0=1, select bank1
  2892     132B  1303               	bcf	3,6	;RP1=0, select bank1
  2893     132C  0851               	movf	(efgtoa@g+3)^(0+128),w
  2894     132D  00F3               	movwf	___fpclassifyf@x+3
  2895     132E  0850               	movf	(efgtoa@g+2)^(0+128),w
  2896     132F  00F2               	movwf	___fpclassifyf@x+2
  2897     1330  084F               	movf	(efgtoa@g+1)^(0+128),w
  2898     1331  00F1               	movwf	___fpclassifyf@x+1
  2899     1332  084E               	movf	efgtoa@g^(0+128),w
  2900     1333  00F0               	movwf	___fpclassifyf@x
  2901     1334  160A  118A  213C  160A  118A  	fcall	___fpclassifyf
  2902     1339  0870               	movf	?___fpclassifyf,w
  2903     133A  0471               	iorwf	?___fpclassifyf+1,w
  2904     133B  1D03               	btfss	3,2
  2905     133C  2B3E               	goto	u4201
  2906     133D  2B41               	goto	u4200
  2907     133E                     u4201:
  2908     133E  120A  118A  28E1   	goto	l2920
  2909     1341                     u4200:
  2910     1341                     l2908:
  2911                           
  2912                           ;C:\Program Files\Microchip\xc8\v2.46\pic\sources\c99\common\doprnt.c: 638:   if (sign) 
      +                          {
  2913     1341  1683               	bsf	3,5	;RP0=1, select bank1
  2914     1342  1303               	bcf	3,6	;RP1=0, select bank1
  2915     1343  084B               	movf	efgtoa@sign^(0+128),w
  2916     1344  1903               	btfsc	3,2
  2917     1345  2B47               	goto	u4211
  2918     1346  2B48               	goto	u4210
  2919     1347                     u4211:
  2920     1347  2B58               	goto	l2912
  2921     1348                     u4210:
  2922     1348                     l2910:
  2923                           
  2924                           ;C:\Program Files\Microchip\xc8\v2.46\pic\sources\c99\common\doprnt.c: 639:    dbuf[0] =
      +                           sign;
  2925     1348  084B               	movf	efgtoa@sign^(0+128),w
  2926     1349  1283               	bcf	3,5	;RP0=0, select bank2
  2927     134A  1703               	bsf	3,6	;RP1=1, select bank2
  2928     134B  0090               	movwf	_dbuf^(0+256)
  2929                           
  2930                           ;C:\Program Files\Microchip\xc8\v2.46\pic\sources\c99\common\doprnt.c: 640:    w--;
  2931     134C  30FF               	movlw	255
  2932     134D  1683               	bsf	3,5	;RP0=1, select bank1
  2933     134E  1303               	bcf	3,6	;RP1=0, select bank1
  2934     134F  07BB               	addwf	efgtoa@w^(0+128),f
  2935     1350  1803               	skipnc
  2936     1351  0ABC               	incf	(efgtoa@w+1)^(0+128),f
  2937     1352  30FF               	movlw	255
  2938     1353  07BC               	addwf	(efgtoa@w+1)^(0+128),f
  2939                           
  2940                           ;C:\Program Files\Microchip\xc8\v2.46\pic\sources\c99\common\doprnt.c: 641:    n = 1;
  2941     1354  3001               	movlw	1
  2942     1355  00CC               	movwf	efgtoa@n^(0+128)
  2943     1356  3000               	movlw	0
  2944     1357  00CD               	movwf	(efgtoa@n^(0+128)+1)
  2945     1358                     l2912:
  2946                           
  2947                           ;C:\Program Files\Microchip\xc8\v2.46\pic\sources\c99\common\doprnt.c: 649:   {;C:\Progr
      +                          am Files\Microchip\xc8\v2.46\pic\sources\c99\common\doprnt.c: 650:             strcpy(&d
      +                          buf[n], "nan");
  2948     1358  3035               	movlw	(low ((STR_8-__stringbase)| (0+32768)))& (0+255)
  2949     1359  00F0               	movwf	strcpy@src
  2950     135A  084C               	movf	efgtoa@n^(0+128),w
  2951     135B  3E10               	addlw	(low (_dbuf| (0+256)))& (0+255)
  2952     135C  160A  158A  2516  160A  118A  	fcall	_strcpy
  2953     1361                     l2914:
  2954                           
  2955                           ;C:\Program Files\Microchip\xc8\v2.46\pic\sources\c99\common\doprnt.c: 651:         };C:
      +                          \Program Files\Microchip\xc8\v2.46\pic\sources\c99\common\doprnt.c: 652:         w -= ((
      +                          sizeof("nan")/sizeof("nan"[0]))-1);
  2956     1361  30FD               	movlw	253
  2957     1362  1683               	bsf	3,5	;RP0=1, select bank1
  2958     1363  1303               	bcf	3,6	;RP1=0, select bank1
  2959     1364  07BB               	addwf	efgtoa@w^(0+128),f
  2960     1365  1803               	skipnc
  2961     1366  0ABC               	incf	(efgtoa@w+1)^(0+128),f
  2962     1367  30FF               	movlw	255
  2963     1368  07BC               	addwf	(efgtoa@w+1)^(0+128),f
  2964     1369                     l2916:
  2965                           
  2966                           ;C:\Program Files\Microchip\xc8\v2.46\pic\sources\c99\common\doprnt.c: 653:         retu
      +                          rn (void) pad(fp, &dbuf[0], w);
  2967     1369  3010               	movlw	(low (_dbuf| (0+256)))& (0+255)
  2968     136A  00FB               	movwf	pad@buf
  2969     136B  083C               	movf	(efgtoa@w+1)^(0+128),w
  2970     136C  00FD               	movwf	pad@p+1
  2971     136D  083B               	movf	efgtoa@w^(0+128),w
  2972     136E  00FC               	movwf	pad@p
  2973     136F  0838               	movf	efgtoa@fp^(0+128),w
  2974     1370  160A  158A  2631  160A  118A  	fcall	_pad
  2975     1375  2B27               	goto	L1
  2976                           
  2977                           	psect	text7
  2978     1D16                     __ptext7:	
  2979 ;; *************** function _strcpy *****************
  2980 ;; Defined at:
  2981 ;;		line 3 in file "C:\Program Files\Microchip\xc8\v2.46\pic\sources\c99\common\strcpy.c"
  2982 ;; Parameters:    Size  Location     Type
  2983 ;;  dest            1    wreg     PTR unsigned char 
  2984 ;;		 -> dbuf(80), 
  2985 ;;  src             1    0[COMMON] PTR const unsigned char 
  2986 ;;		 -> STR_8(4), STR_5(4), 
  2987 ;; Auto vars:     Size  Location     Type
  2988 ;;  dest            1    2[COMMON] PTR unsigned char 
  2989 ;;		 -> dbuf(80), 
  2990 ;;  d               1    1[COMMON] PTR unsigned char 
  2991 ;;		 -> dbuf(80), 
  2992 ;; Return value:  Size  Location     Type
  2993 ;;                  1    wreg      PTR unsigned char 
  2994 ;; Registers used:
  2995 ;;		wreg, fsr0l, fsr0h, status,2, status,0, btemp+1, pclath
  2996 ;; Tracked objects:
  2997 ;;		On entry : 0/0
  2998 ;;		On exit  : 0/0
  2999 ;;		Unchanged: 0/0
  3000 ;; Data sizes:     COMMON   BANK0   BANK1   BANK3   BANK2
  3001 ;;      Params:         1       0       0       0       0
  3002 ;;      Locals:         2       0       0       0       0
  3003 ;;      Temps:          0       0       0       0       0
  3004 ;;      Totals:         3       0       0       0       0
  3005 ;;Total ram usage:        3 bytes
  3006 ;; Hardware stack levels used: 2
  3007 ;; This function calls:
  3008 ;;		Nothing
  3009 ;; This function is called by:
  3010 ;;		_efgtoa
  3011 ;; This function uses a non-reentrant model
  3012 ;;
  3013                           
  3014     1D16                     _strcpy:	
  3015                           ;psect for function _strcpy
  3016                           
  3017                           
  3018                           ;incstack = 0
  3019                           ; Regs used in _strcpy: [wreg-fsr0h+status,2+status,0+btemp+1+pclath]
  3020                           ;strcpy@dest stored from wreg
  3021     1D16  00F2               	movwf	strcpy@dest
  3022     1D17                     l2818:
  3023     1D17  0872               	movf	strcpy@dest,w
  3024     1D18  00F1               	movwf	strcpy@d
  3025     1D19                     l2820:
  3026     1D19  3001               	movlw	1
  3027     1D1A  07F0               	addwf	strcpy@src,f
  3028     1D1B  30FF               	movlw	-1
  3029     1D1C  0770               	addwf	strcpy@src,w
  3030     1D1D  0084               	movwf	4
  3031     1D1E  160A  158A  200A  160A  158A  	fcall	stringdir
  3032     1D23  00FF               	movwf	btemp+1
  3033     1D24  0871               	movf	strcpy@d,w
  3034     1D25  0084               	movwf	4
  3035     1D26  3001               	movlw	1
  3036     1D27  07F1               	addwf	strcpy@d,f
  3037     1D28  087F               	movf	btemp+1,w
  3038     1D29  1783               	bsf	3,7	;select IRP bank2
  3039     1D2A  0080               	movwf	0
  3040     1D2B  0800               	movf	0,w
  3041     1D2C  1D03               	btfss	3,2
  3042     1D2D  2D2F               	goto	u4001
  3043     1D2E  2D30               	goto	u4000
  3044     1D2F                     u4001:
  3045     1D2F  2D19               	goto	l2820
  3046     1D30                     u4000:
  3047     1D30                     l870:
  3048     1D30  0008               	return
  3049     1D31                     __end_of_strcpy:
  3050                           
  3051                           	psect	text8
  3052     1E31                     __ptext8:	
  3053 ;; *************** function _pad *****************
  3054 ;; Defined at:
  3055 ;;		line 193 in file "C:\Program Files\Microchip\xc8\v2.46\pic\sources\c99\common\doprnt.c"
  3056 ;; Parameters:    Size  Location     Type
  3057 ;;  fp              1    wreg     PTR struct _IO_FILE
  3058 ;;		 -> sprintf@f(11), 
  3059 ;;  buf             1   11[COMMON] PTR unsigned char 
  3060 ;;		 -> dbuf(80), 
  3061 ;;  p               2   12[COMMON] int 
  3062 ;; Auto vars:     Size  Location     Type
  3063 ;;  fp              1    7[BANK0 ] PTR struct _IO_FILE
  3064 ;;		 -> sprintf@f(11), 
  3065 ;;  i               2    5[BANK0 ] int 
  3066 ;; Return value:  Size  Location     Type
  3067 ;;                  1    wreg      void 
  3068 ;; Registers used:
  3069 ;;		wreg, fsr0l, fsr0h, status,2, status,0, pclath, cstack
  3070 ;; Tracked objects:
  3071 ;;		On entry : 0/0
  3072 ;;		On exit  : 0/0
  3073 ;;		Unchanged: 0/0
  3074 ;; Data sizes:     COMMON   BANK0   BANK1   BANK3   BANK2
  3075 ;;      Params:         3       0       0       0       0
  3076 ;;      Locals:         0       3       0       0       0
  3077 ;;      Temps:          0       1       0       0       0
  3078 ;;      Totals:         3       4       0       0       0
  3079 ;;Total ram usage:        7 bytes
  3080 ;; Hardware stack levels used: 1
  3081 ;; Hardware stack levels required when called: 3
  3082 ;; This function calls:
  3083 ;;		_fputc
  3084 ;;		_fputs
  3085 ;; This function is called by:
  3086 ;;		_efgtoa
  3087 ;; This function uses a non-reentrant model
  3088 ;;
  3089                           
  3090     1E31                     _pad:	
  3091                           ;psect for function _pad
  3092                           
  3093                           
  3094                           ;incstack = 0
  3095                           ; Regs used in _pad: [wreg-fsr0h+status,2+status,0+pclath+cstack]
  3096                           ;pad@fp stored from wreg
  3097     1E31  1283               	bcf	3,5	;RP0=0, select bank0
  3098     1E32  1303               	bcf	3,6	;RP1=0, select bank0
  3099     1E33  00A7               	movwf	pad@fp
  3100     1E34                     l2782:
  3101                           
  3102                           ;C:\Program Files\Microchip\xc8\v2.46\pic\sources\c99\common\doprnt.c: 193: static void 
      +                          pad(FILE *fp, char *buf, int p);C:\Program Files\Microchip\xc8\v2.46\pic\sources\c99\com
      +                          mon\doprnt.c: 194: {;C:\Program Files\Microchip\xc8\v2.46\pic\sources\c99\common\doprnt.
      +                          c: 195:     int i;;C:\Program Files\Microchip\xc8\v2.46\pic\sources\c99\common\doprnt.c:
      +                           205:  if (p < 0) {
  3103     1E34  1FFD               	btfss	pad@p+1,7
  3104     1E35  2E37               	goto	u3901
  3105     1E36  2E38               	goto	u3900
  3106     1E37                     u3901:
  3107     1E37  2E3A               	goto	l712
  3108     1E38                     u3900:
  3109     1E38                     l2784:
  3110                           
  3111                           ;C:\Program Files\Microchip\xc8\v2.46\pic\sources\c99\common\doprnt.c: 206:   p = 0;
  3112     1E38  01FC               	clrf	pad@p
  3113     1E39  01FD               	clrf	pad@p+1
  3114     1E3A                     l712:	
  3115                           ;C:\Program Files\Microchip\xc8\v2.46\pic\sources\c99\common\doprnt.c: 207:  }
  3116                           
  3117                           
  3118                           ;C:\Program Files\Microchip\xc8\v2.46\pic\sources\c99\common\doprnt.c: 208:     i = 0;
  3119     1E3A  01A5               	clrf	pad@i
  3120     1E3B  01A6               	clrf	pad@i+1
  3121                           
  3122                           ;C:\Program Files\Microchip\xc8\v2.46\pic\sources\c99\common\doprnt.c: 209:     while (i
      +                           < p) {
  3123     1E3C  2E52               	goto	l2790
  3124     1E3D                     l2786:
  3125                           
  3126                           ;C:\Program Files\Microchip\xc8\v2.46\pic\sources\c99\common\doprnt.c: 210:         fput
      +                          c(' ', fp);
  3127     1E3D  3020               	movlw	32
  3128     1E3E  00F0               	movwf	fputc@c
  3129     1E3F  3000               	movlw	0
  3130     1E40  00F1               	movwf	fputc@c+1
  3131     1E41  1283               	bcf	3,5	;RP0=0, select bank0
  3132     1E42  1303               	bcf	3,6	;RP1=0, select bank0
  3133     1E43  0827               	movf	pad@fp,w
  3134     1E44  00F2               	movwf	fputc@fp
  3135     1E45  160A  158A  2750  160A  158A  	fcall	_fputc
  3136     1E4A                     l2788:
  3137                           
  3138                           ;C:\Program Files\Microchip\xc8\v2.46\pic\sources\c99\common\doprnt.c: 211:         ++i;
  3139     1E4A  3001               	movlw	1
  3140     1E4B  1283               	bcf	3,5	;RP0=0, select bank0
  3141     1E4C  1303               	bcf	3,6	;RP1=0, select bank0
  3142     1E4D  07A5               	addwf	pad@i,f
  3143     1E4E  1803               	skipnc
  3144     1E4F  0AA6               	incf	pad@i+1,f
  3145     1E50  3000               	movlw	0
  3146     1E51  07A6               	addwf	pad@i+1,f
  3147     1E52                     l2790:
  3148                           
  3149                           ;C:\Program Files\Microchip\xc8\v2.46\pic\sources\c99\common\doprnt.c: 209:     while (i
      +                           < p) {
  3150     1E52  0826               	movf	pad@i+1,w
  3151     1E53  3A80               	xorlw	128
  3152     1E54  00A4               	movwf	??_pad
  3153     1E55  087D               	movf	pad@p+1,w
  3154     1E56  3A80               	xorlw	128
  3155     1E57  0224               	subwf	??_pad,w
  3156     1E58  1D03               	skipz
  3157     1E59  2E5C               	goto	u3915
  3158     1E5A  087C               	movf	pad@p,w
  3159     1E5B  0225               	subwf	pad@i,w
  3160     1E5C                     u3915:
  3161     1E5C  1C03               	skipc
  3162     1E5D  2E5F               	goto	u3911
  3163     1E5E  2E60               	goto	u3910
  3164     1E5F                     u3911:
  3165     1E5F  2E3D               	goto	l2786
  3166     1E60                     u3910:
  3167     1E60                     l2792:
  3168                           
  3169                           ;C:\Program Files\Microchip\xc8\v2.46\pic\sources\c99\common\doprnt.c: 218:         fput
      +                          s((const char *)buf, fp);
  3170     1E60  1283               	bcf	3,5	;RP0=0, select bank0
  3171     1E61  1303               	bcf	3,6	;RP1=0, select bank0
  3172     1E62  0827               	movf	pad@fp,w
  3173     1E63  00F8               	movwf	fputs@fp
  3174     1E64  087B               	movf	pad@buf,w
  3175     1E65  160A  158A  2607  160A  158A  	fcall	_fputs
  3176     1E6A                     l716:
  3177     1E6A  0008               	return
  3178     1E6B                     __end_of_pad:
  3179                           
  3180                           	psect	text9
  3181     1E07                     __ptext9:	
  3182 ;; *************** function _fputs *****************
  3183 ;; Defined at:
  3184 ;;		line 8 in file "C:\Program Files\Microchip\xc8\v2.46\pic\sources\c99\common\nf_fputs.c"
  3185 ;; Parameters:    Size  Location     Type
  3186 ;;  s               1    wreg     PTR const unsigned char 
  3187 ;;		 -> dbuf(80), 
  3188 ;;  fp              1    8[COMMON] PTR struct _IO_FILE
  3189 ;;		 -> sprintf@f(11), 
  3190 ;; Auto vars:     Size  Location     Type
  3191 ;;  s               1    3[BANK0 ] PTR const unsigned char 
  3192 ;;		 -> dbuf(80), 
  3193 ;;  i               2    1[BANK0 ] int 
  3194 ;;  c               1    0[BANK0 ] unsigned char 
  3195 ;; Return value:  Size  Location     Type
  3196 ;;                  2    8[COMMON] int 
  3197 ;; Registers used:
  3198 ;;		wreg, fsr0l, fsr0h, status,2, status,0, pclath, cstack
  3199 ;; Tracked objects:
  3200 ;;		On entry : 0/0
  3201 ;;		On exit  : 0/0
  3202 ;;		Unchanged: 0/0
  3203 ;; Data sizes:     COMMON   BANK0   BANK1   BANK3   BANK2
  3204 ;;      Params:         1       0       0       0       0
  3205 ;;      Locals:         0       4       0       0       0
  3206 ;;      Temps:          2       0       0       0       0
  3207 ;;      Totals:         3       4       0       0       0
  3208 ;;Total ram usage:        7 bytes
  3209 ;; Hardware stack levels used: 1
  3210 ;; Hardware stack levels required when called: 2
  3211 ;; This function calls:
  3212 ;;		_fputc
  3213 ;; This function is called by:
  3214 ;;		_pad
  3215 ;; This function uses a non-reentrant model
  3216 ;;
  3217                           
  3218     1E07                     _fputs:	
  3219                           ;psect for function _fputs
  3220                           
  3221                           
  3222                           ;incstack = 0
  3223                           ; Regs used in _fputs: [wreg-fsr0h+status,2+status,0+pclath+cstack]
  3224                           ;fputs@s stored from wreg
  3225     1E07  1283               	bcf	3,5	;RP0=0, select bank0
  3226     1E08  1303               	bcf	3,6	;RP1=0, select bank0
  3227     1E09  00A3               	movwf	fputs@s
  3228     1E0A                     l2388:
  3229     1E0A  01A1               	clrf	fputs@i
  3230     1E0B  01A2               	clrf	fputs@i+1
  3231     1E0C  2E23               	goto	l2394
  3232     1E0D                     l2390:
  3233     1E0D  0820               	movf	fputs@c,w
  3234     1E0E  00F9               	movwf	??_fputs
  3235     1E0F  01FA               	clrf	??_fputs+1
  3236     1E10  0879               	movf	??_fputs,w
  3237     1E11  00F0               	movwf	fputc@c
  3238     1E12  087A               	movf	??_fputs+1,w
  3239     1E13  00F1               	movwf	fputc@c+1
  3240     1E14  0878               	movf	fputs@fp,w
  3241     1E15  00F2               	movwf	fputc@fp
  3242     1E16  160A  158A  2750  160A  158A  	fcall	_fputc
  3243     1E1B                     l2392:
  3244     1E1B  3001               	movlw	1
  3245     1E1C  1283               	bcf	3,5	;RP0=0, select bank0
  3246     1E1D  1303               	bcf	3,6	;RP1=0, select bank0
  3247     1E1E  07A1               	addwf	fputs@i,f
  3248     1E1F  1803               	skipnc
  3249     1E20  0AA2               	incf	fputs@i+1,f
  3250     1E21  3000               	movlw	0
  3251     1E22  07A2               	addwf	fputs@i+1,f
  3252     1E23                     l2394:
  3253     1E23  0821               	movf	fputs@i,w
  3254     1E24  0723               	addwf	fputs@s,w
  3255     1E25  00F9               	movwf	??_fputs
  3256     1E26  0879               	movf	??_fputs,w
  3257     1E27  0084               	movwf	4
  3258     1E28  1783               	bsf	3,7	;select IRP bank2
  3259     1E29  0800               	movf	0,w
  3260     1E2A  00A0               	movwf	fputs@c
  3261     1E2B  0820               	movf	fputs@c,w
  3262     1E2C  1D03               	btfss	3,2
  3263     1E2D  2E2F               	goto	u2981
  3264     1E2E  2E30               	goto	u2980
  3265     1E2F                     u2981:
  3266     1E2F  2E0D               	goto	l2390
  3267     1E30                     u2980:
  3268     1E30                     l861:
  3269     1E30  0008               	return
  3270     1E31                     __end_of_fputs:
  3271                           
  3272                           	psect	text10
  3273     1F50                     __ptext10:	
  3274 ;; *************** function _fputc *****************
  3275 ;; Defined at:
  3276 ;;		line 8 in file "C:\Program Files\Microchip\xc8\v2.46\pic\sources\c99\common\nf_fputc.c"
  3277 ;; Parameters:    Size  Location     Type
  3278 ;;  c               2    0[COMMON] int 
  3279 ;;  fp              1    2[COMMON] PTR struct _IO_FILE
  3280 ;;		 -> sprintf@f(11), 
  3281 ;; Auto vars:     Size  Location     Type
  3282 ;;		None
  3283 ;; Return value:  Size  Location     Type
  3284 ;;                  2    0[COMMON] int 
  3285 ;; Registers used:
  3286 ;;		wreg, fsr0l, fsr0h, status,2, status,0, pclath, cstack
  3287 ;; Tracked objects:
  3288 ;;		On entry : 0/0
  3289 ;;		On exit  : 0/0
  3290 ;;		Unchanged: 0/0
  3291 ;; Data sizes:     COMMON   BANK0   BANK1   BANK3   BANK2
  3292 ;;      Params:         3       0       0       0       0
  3293 ;;      Locals:         0       0       0       0       0
  3294 ;;      Temps:          5       0       0       0       0
  3295 ;;      Totals:         8       0       0       0       0
  3296 ;;Total ram usage:        8 bytes
  3297 ;; Hardware stack levels used: 1
  3298 ;; Hardware stack levels required when called: 1
  3299 ;; This function calls:
  3300 ;;		_putch
  3301 ;; This function is called by:
  3302 ;;		_pad
  3303 ;;		_vfpfcnvrt
  3304 ;;		_fputs
  3305 ;; This function uses a non-reentrant model
  3306 ;;
  3307                           
  3308     1F50                     _fputc:	
  3309                           ;psect for function _fputc
  3310                           
  3311     1F50                     l2160:	
  3312                           ;incstack = 0
  3313                           ; Regs used in _fputc: [wreg-fsr0h+status,2+status,0+pclath+cstack]
  3314                           
  3315     1F50  0872               	movf	fputc@fp,w
  3316     1F51  1903               	btfsc	3,2
  3317     1F52  2F54               	goto	u2451
  3318     1F53  2F55               	goto	u2450
  3319     1F54                     u2451:
  3320     1F54  2F5A               	goto	l2164
  3321     1F55                     u2450:
  3322     1F55                     l2162:
  3323     1F55  0872               	movf	fputc@fp,w
  3324     1F56  1D03               	btfss	3,2
  3325     1F57  2F59               	goto	u2461
  3326     1F58  2F5A               	goto	u2460
  3327     1F59                     u2461:
  3328     1F59  2F61               	goto	l2166
  3329     1F5A                     u2460:
  3330     1F5A                     l2164:
  3331     1F5A  0870               	movf	fputc@c,w
  3332     1F5B  120A  158A  2002  160A  158A  	fcall	_putch
  3333     1F60  2FA5               	goto	l853
  3334     1F61                     l2166:
  3335     1F61  0872               	movf	fputc@fp,w
  3336     1F62  3E09               	addlw	9
  3337     1F63  0084               	movwf	4
  3338     1F64  1783               	bsf	3,7	;select IRP bank2
  3339     1F65  0800               	movf	0,w
  3340     1F66  00F3               	movwf	??_fputc
  3341     1F67  0A84               	incf	4,f
  3342     1F68  0800               	movf	0,w
  3343     1F69  00F4               	movwf	??_fputc+1
  3344     1F6A  0873               	movf	??_fputc,w
  3345     1F6B  0474               	iorwf	??_fputc+1,w
  3346     1F6C  1903               	btfsc	3,2
  3347     1F6D  2F6F               	goto	u2471
  3348     1F6E  2F70               	goto	u2470
  3349     1F6F                     u2471:
  3350     1F6F  2F8E               	goto	l2170
  3351     1F70                     u2470:
  3352     1F70                     l2168:
  3353     1F70  0872               	movf	fputc@fp,w
  3354     1F71  3E09               	addlw	9
  3355     1F72  0084               	movwf	4
  3356     1F73  0800               	movf	0,w
  3357     1F74  00F3               	movwf	??_fputc
  3358     1F75  0A84               	incf	4,f
  3359     1F76  0800               	movf	0,w
  3360     1F77  00F4               	movwf	??_fputc+1
  3361     1F78  0872               	movf	fputc@fp,w
  3362     1F79  3E02               	addlw	2
  3363     1F7A  0084               	movwf	4
  3364     1F7B  0800               	movf	0,w
  3365     1F7C  00F5               	movwf	??_fputc+2
  3366     1F7D  0A84               	incf	4,f
  3367     1F7E  0800               	movf	0,w
  3368     1F7F  00F6               	movwf	??_fputc+3
  3369     1F80  0876               	movf	??_fputc+3,w
  3370     1F81  3A80               	xorlw	128
  3371     1F82  00F7               	movwf	??_fputc+4
  3372     1F83  0874               	movf	??_fputc+1,w
  3373     1F84  3A80               	xorlw	128
  3374     1F85  0277               	subwf	??_fputc+4,w
  3375     1F86  1D03               	skipz
  3376     1F87  2F8A               	goto	u2485
  3377     1F88  0873               	movf	??_fputc,w
  3378     1F89  0275               	subwf	??_fputc+2,w
  3379     1F8A                     u2485:
  3380     1F8A  1803               	skipnc
  3381     1F8B  2F8D               	goto	u2481
  3382     1F8C  2F8E               	goto	u2480
  3383     1F8D                     u2481:
  3384     1F8D  2FA5               	goto	l853
  3385     1F8E                     u2480:
  3386     1F8E                     l2170:
  3387     1F8E  0872               	movf	fputc@fp,w
  3388     1F8F  3E02               	addlw	2
  3389     1F90  0084               	movwf	4
  3390     1F91  1783               	bsf	3,7	;select IRP bank2
  3391     1F92  0800               	movf	0,w
  3392     1F93  00F3               	movwf	??_fputc
  3393     1F94  0872               	movf	fputc@fp,w
  3394     1F95  0084               	movwf	4
  3395     1F96  0800               	movf	0,w
  3396     1F97  0773               	addwf	??_fputc,w
  3397     1F98  00F4               	movwf	??_fputc+1
  3398     1F99  0874               	movf	??_fputc+1,w
  3399     1F9A  0084               	movwf	4
  3400     1F9B  0870               	movf	fputc@c,w
  3401     1F9C  0080               	movwf	0
  3402     1F9D  0872               	movf	fputc@fp,w
  3403     1F9E  3E02               	addlw	2
  3404     1F9F  0084               	movwf	4
  3405     1FA0  3001               	movlw	1
  3406     1FA1  0780               	addwf	0,f
  3407     1FA2  0A84               	incf	4,f
  3408     1FA3  1803               	skipnc
  3409     1FA4  0A80               	incf	0,f
  3410     1FA5                     l853:
  3411     1FA5  0008               	return
  3412     1FA6                     __end_of_fputc:
  3413                           
  3414                           	psect	text11
  3415     0802                     __ptext11:	
  3416 ;; *************** function _putch *****************
  3417 ;; Defined at:
  3418 ;;		line 7 in file "C:\Program Files\Microchip\xc8\v2.46\pic\sources\c99\common\putch.c"
  3419 ;; Parameters:    Size  Location     Type
  3420 ;;  c               1    wreg     unsigned char 
  3421 ;; Auto vars:     Size  Location     Type
  3422 ;;  c               1    0[COMMON] unsigned char 
  3423 ;; Return value:  Size  Location     Type
  3424 ;;                  1    wreg      void 
  3425 ;; Registers used:
  3426 ;;		wreg
  3427 ;; Tracked objects:
  3428 ;;		On entry : 0/0
  3429 ;;		On exit  : 0/0
  3430 ;;		Unchanged: 0/0
  3431 ;; Data sizes:     COMMON   BANK0   BANK1   BANK3   BANK2
  3432 ;;      Params:         0       0       0       0       0
  3433 ;;      Locals:         0       0       0       0       0
  3434 ;;      Temps:          0       0       0       0       0
  3435 ;;      Totals:         0       0       0       0       0
  3436 ;;Total ram usage:        0 bytes
  3437 ;; Hardware stack levels used: 1
  3438 ;; This function calls:
  3439 ;;		Nothing
  3440 ;; This function is called by:
  3441 ;;		_fputc
  3442 ;; This function uses a non-reentrant model
  3443 ;;
  3444                           
  3445     0802                     _putch:	
  3446                           ;psect for function _putch
  3447                           
  3448     0802                     l864:	
  3449                           ;incstack = 0
  3450                           ; Regs used in _putch: [wreg]
  3451                           
  3452     0802  0008               	return
  3453     0803                     __end_of_putch:
  3454                           
  3455                           	psect	text12
  3456     0003                     __ptext12:	
  3457 ;; *************** function _memcpy *****************
  3458 ;; Defined at:
  3459 ;;		line 4 in file "C:\Program Files\Microchip\xc8\v2.46\pic\sources\c99\common\memcpy.c"
  3460 ;; Parameters:    Size  Location     Type
  3461 ;;  d1              1    wreg     PTR void 
  3462 ;;		 -> dbuf(80), 
  3463 ;;  s1              1    0[COMMON] PTR const void 
  3464 ;;		 -> dbuf(80), 
  3465 ;;  n               2    1[COMMON] unsigned int 
  3466 ;; Auto vars:     Size  Location     Type
  3467 ;;  d1              1    4[COMMON] PTR void 
  3468 ;;		 -> dbuf(80), 
  3469 ;;  s               1    6[COMMON] PTR const unsigned char 
  3470 ;;		 -> dbuf(80), 
  3471 ;;  d               1    5[COMMON] PTR unsigned char 
  3472 ;;		 -> dbuf(80), 
  3473 ;;  tmp             1    3[COMMON] unsigned char 
  3474 ;; Return value:  Size  Location     Type
  3475 ;;                  1    wreg      PTR void 
  3476 ;; Registers used:
  3477 ;;		wreg, fsr0l, fsr0h, status,2, status,0, btemp+1
  3478 ;; Tracked objects:
  3479 ;;		On entry : 0/0
  3480 ;;		On exit  : 0/0
  3481 ;;		Unchanged: 0/0
  3482 ;; Data sizes:     COMMON   BANK0   BANK1   BANK3   BANK2
  3483 ;;      Params:         3       0       0       0       0
  3484 ;;      Locals:         4       0       0       0       0
  3485 ;;      Temps:          0       0       0       0       0
  3486 ;;      Totals:         7       0       0       0       0
  3487 ;;Total ram usage:        7 bytes
  3488 ;; Hardware stack levels used: 1
  3489 ;; This function calls:
  3490 ;;		Nothing
  3491 ;; This function is called by:
  3492 ;;		_efgtoa
  3493 ;; This function uses a non-reentrant model
  3494 ;;
  3495                           
  3496     0003                     _memcpy:	
  3497                           ;psect for function _memcpy
  3498                           
  3499                           
  3500                           ;incstack = 0
  3501                           ; Regs used in _memcpy: [wreg-fsr0h+status,2+status,0+btemp+1]
  3502                           ;memcpy@d1 stored from wreg
  3503     0003  00F4               	movwf	memcpy@d1
  3504     0004                     l2860:
  3505     0004  0870               	movf	memcpy@s1,w
  3506     0005  00F6               	movwf	memcpy@s
  3507     0006  0874               	movf	memcpy@d1,w
  3508     0007  00F5               	movwf	memcpy@d
  3509     0008  281A               	goto	l2868
  3510     0009                     l2862:
  3511     0009  0876               	movf	memcpy@s,w
  3512     000A  0084               	movwf	4
  3513     000B  1783               	bsf	3,7	;select IRP bank2
  3514     000C  0800               	movf	0,w
  3515     000D  00F3               	movwf	memcpy@tmp
  3516     000E                     l2864:
  3517     000E  3001               	movlw	1
  3518     000F  00FF               	movwf	btemp+1
  3519     0010  087F               	movf	btemp+1,w
  3520     0011  07F6               	addwf	memcpy@s,f
  3521     0012                     l2866:
  3522     0012  0875               	movf	memcpy@d,w
  3523     0013  0084               	movwf	4
  3524     0014  0873               	movf	memcpy@tmp,w
  3525     0015  0080               	movwf	0
  3526     0016  3001               	movlw	1
  3527     0017  00FF               	movwf	btemp+1
  3528     0018  087F               	movf	btemp+1,w
  3529     0019  07F5               	addwf	memcpy@d,f
  3530     001A                     l2868:
  3531     001A  3001               	movlw	1
  3532     001B  02F1               	subwf	memcpy@n,f
  3533     001C  3000               	movlw	0
  3534     001D  1C03               	skipc
  3535     001E  03F2               	decf	memcpy@n+1,f
  3536     001F  02F2               	subwf	memcpy@n+1,f
  3537     0020  0A71               	incf	memcpy@n,w
  3538     0021  1D03               	skipz
  3539     0022  2827               	goto	u4141
  3540     0023  0A72               	incf	memcpy@n+1,w
  3541     0024  1D03               	btfss	3,2
  3542     0025  2827               	goto	u4141
  3543     0026  2828               	goto	u4140
  3544     0027                     u4141:
  3545     0027  2809               	goto	l2862
  3546     0028                     u4140:
  3547     0028                     l841:
  3548     0028  0008               	return
  3549     0029                     __end_of_memcpy:
  3550                           
  3551                           	psect	text13
  3552     1CE7                     __ptext13:	
  3553 ;; *************** function _labs *****************
  3554 ;; Defined at:
  3555 ;;		line 1 in file "C:\Program Files\Microchip\xc8\v2.46\pic\sources\c99\common\labs.c"
  3556 ;; Parameters:    Size  Location     Type
  3557 ;;  a               4    0[COMMON] long 
  3558 ;; Auto vars:     Size  Location     Type
  3559 ;;		None
  3560 ;; Return value:  Size  Location     Type
  3561 ;;                  4    0[COMMON] long 
  3562 ;; Registers used:
  3563 ;;		wreg, status,2, status,0
  3564 ;; Tracked objects:
  3565 ;;		On entry : 0/0
  3566 ;;		On exit  : 0/0
  3567 ;;		Unchanged: 0/0
  3568 ;; Data sizes:     COMMON   BANK0   BANK1   BANK3   BANK2
  3569 ;;      Params:         4       0       0       0       0
  3570 ;;      Locals:         0       0       0       0       0
  3571 ;;      Temps:          0       0       0       0       0
  3572 ;;      Totals:         4       0       0       0       0
  3573 ;;Total ram usage:        4 bytes
  3574 ;; Hardware stack levels used: 1
  3575 ;; This function calls:
  3576 ;;		Nothing
  3577 ;; This function is called by:
  3578 ;;		_efgtoa
  3579 ;; This function uses a non-reentrant model
  3580 ;;
  3581                           
  3582     1CE7                     _labs:	
  3583                           ;psect for function _labs
  3584                           
  3585     1CE7                     l2822:	
  3586                           ;incstack = 0
  3587                           ; Regs used in _labs: [wreg+status,2+status,0]
  3588                           
  3589     1CE7  1BF3               	btfsc	labs@a+3,7
  3590     1CE8  2CEA               	goto	u4011
  3591     1CE9  2CEB               	goto	u4010
  3592     1CEA                     u4011:
  3593     1CEA  2CEC               	goto	l2826
  3594     1CEB                     u4010:
  3595     1CEB                     l2824:
  3596     1CEB  2CFB               	goto	l835
  3597     1CEC                     l2826:
  3598     1CEC  0970               	comf	labs@a,w
  3599     1CED  00F0               	movwf	?_labs
  3600     1CEE  0971               	comf	labs@a+1,w
  3601     1CEF  00F1               	movwf	?_labs+1
  3602     1CF0  0972               	comf	labs@a+2,w
  3603     1CF1  00F2               	movwf	?_labs+2
  3604     1CF2  0973               	comf	labs@a+3,w
  3605     1CF3  00F3               	movwf	?_labs+3
  3606     1CF4  0AF0               	incf	?_labs,f
  3607     1CF5  1903               	skipnz
  3608     1CF6  0AF1               	incf	?_labs+1,f
  3609     1CF7  1903               	skipnz
  3610     1CF8  0AF2               	incf	?_labs+2,f
  3611     1CF9  1903               	skipnz
  3612     1CFA  0AF3               	incf	?_labs+3,f
  3613     1CFB                     l835:
  3614     1CFB  0008               	return
  3615     1CFC                     __end_of_labs:
  3616                           
  3617                           	psect	text14
  3618     1376                     __ptext14:	
  3619 ;; *************** function _floorf *****************
  3620 ;; Defined at:
  3621 ;;		line 3 in file "C:\Program Files\Microchip\xc8\v2.46\pic\sources\c99\common\floorf.c"
  3622 ;; Parameters:    Size  Location     Type
  3623 ;;  x               4   60[BANK0 ] float 
  3624 ;; Auto vars:     Size  Location     Type
  3625 ;;  u               4   76[BANK0 ] struct .
  3626 ;;  m               4   70[BANK0 ] unsigned long 
  3627 ;;  e               2   74[BANK0 ] int 
  3628 ;; Return value:  Size  Location     Type
  3629 ;;                  4   60[BANK0 ] float 
  3630 ;; Registers used:
  3631 ;;		wreg, status,2, status,0, btemp+1
  3632 ;; Tracked objects:
  3633 ;;		On entry : 0/0
  3634 ;;		On exit  : 0/0
  3635 ;;		Unchanged: 0/0
  3636 ;; Data sizes:     COMMON   BANK0   BANK1   BANK3   BANK2
  3637 ;;      Params:         0       4       0       0       0
  3638 ;;      Locals:         0      10       0       0       0
  3639 ;;      Temps:          0       6       0       0       0
  3640 ;;      Totals:         0      20       0       0       0
  3641 ;;Total ram usage:       20 bytes
  3642 ;; Hardware stack levels used: 1
  3643 ;; This function calls:
  3644 ;;		Nothing
  3645 ;; This function is called by:
  3646 ;;		_efgtoa
  3647 ;; This function uses a non-reentrant model
  3648 ;;
  3649                           
  3650     1376                     _floorf:	
  3651                           ;psect for function _floorf
  3652                           
  3653     1376                     l2830:	
  3654                           ;incstack = 0
  3655                           ; Regs used in _floorf: [wreg+status,2+status,0+btemp+1]
  3656                           
  3657     1376  1683               	bsf	3,5	;RP0=1, select bank3
  3658     1377  1703               	bsf	3,6	;RP1=1, select bank3
  3659     1378  0813               	movf	(floorf@F521+3)^(0+384),w
  3660     1379  1283               	bcf	3,5	;RP0=0, select bank0
  3661     137A  1303               	bcf	3,6	;RP1=0, select bank0
  3662     137B  00EF               	movwf	floorf@u+3
  3663     137C  1683               	bsf	3,5	;RP0=1, select bank3
  3664     137D  1703               	bsf	3,6	;RP1=1, select bank3
  3665     137E  0812               	movf	(floorf@F521+2)^(0+384),w
  3666     137F  1283               	bcf	3,5	;RP0=0, select bank0
  3667     1380  1303               	bcf	3,6	;RP1=0, select bank0
  3668     1381  00EE               	movwf	floorf@u+2
  3669     1382  1683               	bsf	3,5	;RP0=1, select bank3
  3670     1383  1703               	bsf	3,6	;RP1=1, select bank3
  3671     1384  0811               	movf	(floorf@F521+1)^(0+384),w
  3672     1385  1283               	bcf	3,5	;RP0=0, select bank0
  3673     1386  1303               	bcf	3,6	;RP1=0, select bank0
  3674     1387  00ED               	movwf	floorf@u+1
  3675     1388  1683               	bsf	3,5	;RP0=1, select bank3
  3676     1389  1703               	bsf	3,6	;RP1=1, select bank3
  3677     138A  0810               	movf	floorf@F521^(0+384),w
  3678     138B  1283               	bcf	3,5	;RP0=0, select bank0
  3679     138C  1303               	bcf	3,6	;RP1=0, select bank0
  3680     138D  00EC               	movwf	floorf@u
  3681     138E  085F               	movf	floorf@x+3,w
  3682     138F  00EF               	movwf	floorf@u+3
  3683     1390  085E               	movf	floorf@x+2,w
  3684     1391  00EE               	movwf	floorf@u+2
  3685     1392  085D               	movf	floorf@x+1,w
  3686     1393  00ED               	movwf	floorf@u+1
  3687     1394  085C               	movf	floorf@x,w
  3688     1395  00EC               	movwf	floorf@u
  3689     1396                     l2832:
  3690     1396  086C               	movf	floorf@u,w
  3691     1397  00E0               	movwf	??_floorf
  3692     1398  086D               	movf	floorf@u+1,w
  3693     1399  00E1               	movwf	??_floorf+1
  3694     139A  086E               	movf	floorf@u+2,w
  3695     139B  00E2               	movwf	??_floorf+2
  3696     139C  086F               	movf	floorf@u+3,w
  3697     139D  00E3               	movwf	??_floorf+3
  3698     139E  3017               	movlw	23
  3699     139F                     u4025:
  3700     139F  1003               	clrc
  3701     13A0  0CE3               	rrf	??_floorf+3,f
  3702     13A1  0CE2               	rrf	??_floorf+2,f
  3703     13A2  0CE1               	rrf	??_floorf+1,f
  3704     13A3  0CE0               	rrf	??_floorf,f
  3705     13A4                     u4020:
  3706     13A4  3EFF               	addlw	-1
  3707     13A5  1D03               	skipz
  3708     13A6  2B9F               	goto	u4025
  3709     13A7  30FF               	movlw	255
  3710     13A8  0560               	andwf	??_floorf,w
  3711     13A9  00E4               	movwf	??_floorf+4
  3712     13AA  3000               	movlw	0
  3713     13AB  0561               	andwf	??_floorf+1,w
  3714     13AC  00E5               	movwf	??_floorf+5
  3715     13AD  0864               	movf	??_floorf+4,w
  3716     13AE  3E81               	addlw	129
  3717     13AF  00EA               	movwf	floorf@e
  3718     13B0  0865               	movf	??_floorf+5,w
  3719     13B1  1803               	skipnc
  3720     13B2  3E01               	addlw	1
  3721     13B3  3EFF               	addlw	255
  3722     13B4  00EB               	movwf	floorf@e+1
  3723     13B5                     l2834:
  3724     13B5  086B               	movf	floorf@e+1,w
  3725     13B6  3A80               	xorlw	128
  3726     13B7  00FF               	movwf	btemp+1
  3727     13B8  3080               	movlw	128
  3728     13B9  027F               	subwf	btemp+1,w
  3729     13BA  1D03               	skipz
  3730     13BB  2BBE               	goto	u4035
  3731     13BC  3017               	movlw	23
  3732     13BD  026A               	subwf	floorf@e,w
  3733     13BE                     u4035:
  3734     13BE  1C03               	skipc
  3735     13BF  2BC1               	goto	u4031
  3736     13C0  2BC2               	goto	u4030
  3737     13C1                     u4031:
  3738     13C1  2BC3               	goto	l820
  3739     13C2                     u4030:
  3740     13C2                     l2836:
  3741     13C2  2C84               	goto	l821
  3742     13C3                     l820:
  3743     13C3  1283               	bcf	3,5	;RP0=0, select bank0
  3744     13C4  1303               	bcf	3,6	;RP1=0, select bank0
  3745     13C5  1BEB               	btfsc	floorf@e+1,7
  3746     13C6  2BC8               	goto	u4041
  3747     13C7  2BC9               	goto	u4040
  3748     13C8                     u4041:
  3749     13C8  2C39               	goto	l2850
  3750     13C9                     u4040:
  3751     13C9                     l2838:
  3752     13C9  0A6A               	incf	floorf@e,w
  3753     13CA  00FF               	movwf	btemp+1
  3754     13CB  30FF               	movlw	255
  3755     13CC  00E0               	movwf	??_floorf
  3756     13CD  30FF               	movlw	255
  3757     13CE  00E1               	movwf	??_floorf+1
  3758     13CF  307F               	movlw	127
  3759     13D0  00E2               	movwf	??_floorf+2
  3760     13D1  3000               	movlw	0
  3761     13D2  00E3               	movwf	??_floorf+3
  3762     13D3  2BD9               	goto	u4050
  3763     13D4                     u4055:
  3764     13D4  0D63               	rlf	??_floorf+3,w
  3765     13D5  0CE3               	rrf	??_floorf+3,f
  3766     13D6  0CE2               	rrf	??_floorf+2,f
  3767     13D7  0CE1               	rrf	??_floorf+1,f
  3768     13D8  0CE0               	rrf	??_floorf,f
  3769     13D9                     u4050:
  3770     13D9  0BFF               	decfsz	btemp+1,f
  3771     13DA  2BD4               	goto	u4055
  3772     13DB  0863               	movf	??_floorf+3,w
  3773     13DC  00E9               	movwf	floorf@m+3
  3774     13DD  0862               	movf	??_floorf+2,w
  3775     13DE  00E8               	movwf	floorf@m+2
  3776     13DF  0861               	movf	??_floorf+1,w
  3777     13E0  00E7               	movwf	floorf@m+1
  3778     13E1  0860               	movf	??_floorf,w
  3779     13E2  00E6               	movwf	floorf@m
  3780     13E3                     l2840:
  3781     13E3  0866               	movf	floorf@m,w
  3782     13E4  056C               	andwf	floorf@u,w
  3783     13E5  00E0               	movwf	??_floorf
  3784     13E6  0867               	movf	floorf@m+1,w
  3785     13E7  056D               	andwf	floorf@u+1,w
  3786     13E8  00E1               	movwf	??_floorf+1
  3787     13E9  0868               	movf	floorf@m+2,w
  3788     13EA  056E               	andwf	floorf@u+2,w
  3789     13EB  00E2               	movwf	??_floorf+2
  3790     13EC  0869               	movf	floorf@m+3,w
  3791     13ED  056F               	andwf	floorf@u+3,w
  3792     13EE  00E3               	movwf	??_floorf+3
  3793     13EF  0863               	movf	??_floorf+3,w
  3794     13F0  0462               	iorwf	??_floorf+2,w
  3795     13F1  0461               	iorwf	??_floorf+1,w
  3796     13F2  0460               	iorwf	??_floorf,w
  3797     13F3  1D03               	skipz
  3798     13F4  2BF6               	goto	u4061
  3799     13F5  2BF7               	goto	u4060
  3800     13F6                     u4061:
  3801     13F6  2BF8               	goto	l2844
  3802     13F7                     u4060:
  3803     13F7  2BC2               	goto	l2836
  3804     13F8                     l2844:
  3805     13F8  086C               	movf	floorf@u,w
  3806     13F9  00E0               	movwf	??_floorf
  3807     13FA  086D               	movf	floorf@u+1,w
  3808     13FB  00E1               	movwf	??_floorf+1
  3809     13FC  086E               	movf	floorf@u+2,w
  3810     13FD  00E2               	movwf	??_floorf+2
  3811     13FE  086F               	movf	floorf@u+3,w
  3812     13FF  00E3               	movwf	??_floorf+3
  3813     1400  301F               	movlw	31
  3814     1401                     u4075:
  3815     1401  1003               	clrc
  3816     1402  0CE3               	rrf	??_floorf+3,f
  3817     1403  0CE2               	rrf	??_floorf+2,f
  3818     1404  0CE1               	rrf	??_floorf+1,f
  3819     1405  0CE0               	rrf	??_floorf,f
  3820     1406                     u4070:
  3821     1406  3EFF               	addlw	-1
  3822     1407  1D03               	skipz
  3823     1408  2C01               	goto	u4075
  3824     1409  0863               	movf	??_floorf+3,w
  3825     140A  0462               	iorwf	??_floorf+2,w
  3826     140B  0461               	iorwf	??_floorf+1,w
  3827     140C  0460               	iorwf	??_floorf,w
  3828     140D  1903               	skipnz
  3829     140E  2C10               	goto	u4081
  3830     140F  2C11               	goto	u4080
  3831     1410                     u4081:
  3832     1410  2C28               	goto	l2848
  3833     1411                     u4080:
  3834     1411                     l2846:
  3835     1411  0866               	movf	floorf@m,w
  3836     1412  07EC               	addwf	floorf@u,f
  3837     1413  0867               	movf	floorf@m+1,w
  3838     1414  1103               	clrz
  3839     1415  1803               	skipnc
  3840     1416  3E01               	addlw	1
  3841     1417  1903               	skipnz
  3842     1418  2C1A               	goto	u4091
  3843     1419  07ED               	addwf	floorf@u+1,f
  3844     141A                     u4091:
  3845     141A  0868               	movf	floorf@m+2,w
  3846     141B  1103               	clrz
  3847     141C  1803               	skipnc
  3848     141D  3E01               	addlw	1
  3849     141E  1903               	skipnz
  3850     141F  2C21               	goto	u4092
  3851     1420  07EE               	addwf	floorf@u+2,f
  3852     1421                     u4092:
  3853     1421  0869               	movf	floorf@m+3,w
  3854     1422  1103               	clrz
  3855     1423  1803               	skipnc
  3856     1424  3E01               	addlw	1
  3857     1425  1903               	skipnz
  3858     1426  2C28               	goto	u4093
  3859     1427  07EF               	addwf	floorf@u+3,f
  3860     1428                     u4093:
  3861     1428                     l2848:
  3862     1428  0966               	comf	floorf@m,w
  3863     1429  00E0               	movwf	??_floorf
  3864     142A  0967               	comf	floorf@m+1,w
  3865     142B  00E1               	movwf	??_floorf+1
  3866     142C  0968               	comf	floorf@m+2,w
  3867     142D  00E2               	movwf	??_floorf+2
  3868     142E  0969               	comf	floorf@m+3,w
  3869     142F  00E3               	movwf	??_floorf+3
  3870     1430  0860               	movf	??_floorf,w
  3871     1431  05EC               	andwf	floorf@u,f
  3872     1432  0861               	movf	??_floorf+1,w
  3873     1433  05ED               	andwf	floorf@u+1,f
  3874     1434  0862               	movf	??_floorf+2,w
  3875     1435  05EE               	andwf	floorf@u+2,f
  3876     1436  0863               	movf	??_floorf+3,w
  3877     1437  05EF               	andwf	floorf@u+3,f
  3878     1438  2C7C               	goto	l825
  3879     1439                     l2850:
  3880     1439  086C               	movf	floorf@u,w
  3881     143A  00E0               	movwf	??_floorf
  3882     143B  086D               	movf	floorf@u+1,w
  3883     143C  00E1               	movwf	??_floorf+1
  3884     143D  086E               	movf	floorf@u+2,w
  3885     143E  00E2               	movwf	??_floorf+2
  3886     143F  086F               	movf	floorf@u+3,w
  3887     1440  00E3               	movwf	??_floorf+3
  3888     1441  301F               	movlw	31
  3889     1442                     u4105:
  3890     1442  1003               	clrc
  3891     1443  0CE3               	rrf	??_floorf+3,f
  3892     1444  0CE2               	rrf	??_floorf+2,f
  3893     1445  0CE1               	rrf	??_floorf+1,f
  3894     1446  0CE0               	rrf	??_floorf,f
  3895     1447                     u4100:
  3896     1447  3EFF               	addlw	-1
  3897     1448  1D03               	skipz
  3898     1449  2C42               	goto	u4105
  3899     144A  0863               	movf	??_floorf+3,w
  3900     144B  0462               	iorwf	??_floorf+2,w
  3901     144C  0461               	iorwf	??_floorf+1,w
  3902     144D  0460               	iorwf	??_floorf,w
  3903     144E  1D03               	skipz
  3904     144F  2C51               	goto	u4111
  3905     1450  2C52               	goto	u4110
  3906     1451                     u4111:
  3907     1451  2C5B               	goto	l2854
  3908     1452                     u4110:
  3909     1452                     l2852:
  3910     1452  3000               	movlw	0
  3911     1453  00EF               	movwf	floorf@u+3
  3912     1454  3000               	movlw	0
  3913     1455  00EE               	movwf	floorf@u+2
  3914     1456  3000               	movlw	0
  3915     1457  00ED               	movwf	floorf@u+1
  3916     1458  3000               	movlw	0
  3917     1459  00EC               	movwf	floorf@u
  3918     145A  2C7C               	goto	l825
  3919     145B                     l2854:
  3920     145B  086C               	movf	floorf@u,w
  3921     145C  00E0               	movwf	??_floorf
  3922     145D  086D               	movf	floorf@u+1,w
  3923     145E  00E1               	movwf	??_floorf+1
  3924     145F  086E               	movf	floorf@u+2,w
  3925     1460  00E2               	movwf	??_floorf+2
  3926     1461  086F               	movf	floorf@u+3,w
  3927     1462  00E3               	movwf	??_floorf+3
  3928     1463  3001               	movlw	1
  3929     1464                     u4125:
  3930     1464  1003               	clrc
  3931     1465  0DE0               	rlf	??_floorf,f
  3932     1466  0DE1               	rlf	??_floorf+1,f
  3933     1467  0DE2               	rlf	??_floorf+2,f
  3934     1468  0DE3               	rlf	??_floorf+3,f
  3935     1469                     u4120:
  3936     1469  3EFF               	addlw	-1
  3937     146A  1D03               	skipz
  3938     146B  2C64               	goto	u4125
  3939     146C  0863               	movf	??_floorf+3,w
  3940     146D  0462               	iorwf	??_floorf+2,w
  3941     146E  0461               	iorwf	??_floorf+1,w
  3942     146F  0460               	iorwf	??_floorf,w
  3943     1470  1903               	skipnz
  3944     1471  2C73               	goto	u4131
  3945     1472  2C74               	goto	u4130
  3946     1473                     u4131:
  3947     1473  2C7C               	goto	l825
  3948     1474                     u4130:
  3949     1474                     l2856:
  3950     1474  30BF               	movlw	191
  3951     1475  00EF               	movwf	floorf@u+3
  3952     1476  3080               	movlw	128
  3953     1477  00EE               	movwf	floorf@u+2
  3954     1478  3000               	movlw	0
  3955     1479  00ED               	movwf	floorf@u+1
  3956     147A  3000               	movlw	0
  3957     147B  00EC               	movwf	floorf@u
  3958     147C                     l825:
  3959     147C  086F               	movf	floorf@u+3,w
  3960     147D  00DF               	movwf	?_floorf+3
  3961     147E  086E               	movf	floorf@u+2,w
  3962     147F  00DE               	movwf	?_floorf+2
  3963     1480  086D               	movf	floorf@u+1,w
  3964     1481  00DD               	movwf	?_floorf+1
  3965     1482  086C               	movf	floorf@u,w
  3966     1483  00DC               	movwf	?_floorf
  3967     1484                     l821:
  3968     1484  0008               	return
  3969     1485                     __end_of_floorf:
  3970                           
  3971                           	psect	text15
  3972     113C                     __ptext15:	
  3973 ;; *************** function ___fpclassifyf *****************
  3974 ;; Defined at:
  3975 ;;		line 4 in file "C:\Program Files\Microchip\xc8\v2.46\pic\sources\c99\common\__fpclassifyf.c"
  3976 ;; Parameters:    Size  Location     Type
  3977 ;;  x               4    0[COMMON] float 
  3978 ;; Auto vars:     Size  Location     Type
  3979 ;;  u               4    2[BANK0 ] struct .
  3980 ;;  e               2    0[BANK0 ] int 
  3981 ;; Return value:  Size  Location     Type
  3982 ;;                  2    0[COMMON] int 
  3983 ;; Registers used:
  3984 ;;		wreg, status,2, status,0
  3985 ;; Tracked objects:
  3986 ;;		On entry : 0/0
  3987 ;;		On exit  : 0/0
  3988 ;;		Unchanged: 0/0
  3989 ;; Data sizes:     COMMON   BANK0   BANK1   BANK3   BANK2
  3990 ;;      Params:         4       0       0       0       0
  3991 ;;      Locals:         0       6       0       0       0
  3992 ;;      Temps:          6       0       0       0       0
  3993 ;;      Totals:        10       6       0       0       0
  3994 ;;Total ram usage:       16 bytes
  3995 ;; Hardware stack levels used: 1
  3996 ;; This function calls:
  3997 ;;		Nothing
  3998 ;; This function is called by:
  3999 ;;		_efgtoa
  4000 ;; This function uses a non-reentrant model
  4001 ;;
  4002                           
  4003     113C                     ___fpclassifyf:	
  4004                           ;psect for function ___fpclassifyf
  4005                           
  4006     113C                     l2794:	
  4007                           ;incstack = 0
  4008                           ; Regs used in ___fpclassifyf: [wreg+status,2+status,0]
  4009                           
  4010     113C  1683               	bsf	3,5	;RP0=1, select bank3
  4011     113D  1703               	bsf	3,6	;RP1=1, select bank3
  4012     113E  0817               	movf	(___fpclassifyf@F465+3)^(0+384),w
  4013     113F  1283               	bcf	3,5	;RP0=0, select bank0
  4014     1140  1303               	bcf	3,6	;RP1=0, select bank0
  4015     1141  00A5               	movwf	___fpclassifyf@u+3
  4016     1142  1683               	bsf	3,5	;RP0=1, select bank3
  4017     1143  1703               	bsf	3,6	;RP1=1, select bank3
  4018     1144  0816               	movf	(___fpclassifyf@F465+2)^(0+384),w
  4019     1145  1283               	bcf	3,5	;RP0=0, select bank0
  4020     1146  1303               	bcf	3,6	;RP1=0, select bank0
  4021     1147  00A4               	movwf	___fpclassifyf@u+2
  4022     1148  1683               	bsf	3,5	;RP0=1, select bank3
  4023     1149  1703               	bsf	3,6	;RP1=1, select bank3
  4024     114A  0815               	movf	(___fpclassifyf@F465+1)^(0+384),w
  4025     114B  1283               	bcf	3,5	;RP0=0, select bank0
  4026     114C  1303               	bcf	3,6	;RP1=0, select bank0
  4027     114D  00A3               	movwf	___fpclassifyf@u+1
  4028     114E  1683               	bsf	3,5	;RP0=1, select bank3
  4029     114F  1703               	bsf	3,6	;RP1=1, select bank3
  4030     1150  0814               	movf	___fpclassifyf@F465^(0+384),w
  4031     1151  1283               	bcf	3,5	;RP0=0, select bank0
  4032     1152  1303               	bcf	3,6	;RP1=0, select bank0
  4033     1153  00A2               	movwf	___fpclassifyf@u
  4034     1154  0873               	movf	___fpclassifyf@x+3,w
  4035     1155  00A5               	movwf	___fpclassifyf@u+3
  4036     1156  0872               	movf	___fpclassifyf@x+2,w
  4037     1157  00A4               	movwf	___fpclassifyf@u+2
  4038     1158  0871               	movf	___fpclassifyf@x+1,w
  4039     1159  00A3               	movwf	___fpclassifyf@u+1
  4040     115A  0870               	movf	___fpclassifyf@x,w
  4041     115B  00A2               	movwf	___fpclassifyf@u
  4042     115C                     l2796:
  4043     115C  0822               	movf	___fpclassifyf@u,w
  4044     115D  00F4               	movwf	??___fpclassifyf
  4045     115E  0823               	movf	___fpclassifyf@u+1,w
  4046     115F  00F5               	movwf	??___fpclassifyf+1
  4047     1160  0824               	movf	___fpclassifyf@u+2,w
  4048     1161  00F6               	movwf	??___fpclassifyf+2
  4049     1162  0825               	movf	___fpclassifyf@u+3,w
  4050     1163  00F7               	movwf	??___fpclassifyf+3
  4051     1164  3017               	movlw	23
  4052     1165                     u3925:
  4053     1165  1003               	clrc
  4054     1166  0CF7               	rrf	??___fpclassifyf+3,f
  4055     1167  0CF6               	rrf	??___fpclassifyf+2,f
  4056     1168  0CF5               	rrf	??___fpclassifyf+1,f
  4057     1169  0CF4               	rrf	??___fpclassifyf,f
  4058     116A                     u3920:
  4059     116A  3EFF               	addlw	-1
  4060     116B  1D03               	skipz
  4061     116C  2965               	goto	u3925
  4062     116D  30FF               	movlw	255
  4063     116E  0574               	andwf	??___fpclassifyf,w
  4064     116F  00A0               	movwf	___fpclassifyf@e
  4065     1170  3000               	movlw	0
  4066     1171  0575               	andwf	??___fpclassifyf+1,w
  4067     1172  00A1               	movwf	___fpclassifyf@e+1
  4068     1173                     l2798:
  4069     1173  0820               	movf	___fpclassifyf@e,w
  4070     1174  0421               	iorwf	___fpclassifyf@e+1,w
  4071     1175  1D03               	btfss	3,2
  4072     1176  2978               	goto	u3931
  4073     1177  2979               	goto	u3930
  4074     1178                     u3931:
  4075     1178  299C               	goto	l2808
  4076     1179                     u3930:
  4077     1179                     l2800:
  4078     1179  0822               	movf	___fpclassifyf@u,w
  4079     117A  00F4               	movwf	??___fpclassifyf
  4080     117B  0823               	movf	___fpclassifyf@u+1,w
  4081     117C  00F5               	movwf	??___fpclassifyf+1
  4082     117D  0824               	movf	___fpclassifyf@u+2,w
  4083     117E  00F6               	movwf	??___fpclassifyf+2
  4084     117F  0825               	movf	___fpclassifyf@u+3,w
  4085     1180  00F7               	movwf	??___fpclassifyf+3
  4086     1181  3001               	movlw	1
  4087     1182                     u3945:
  4088     1182  1003               	clrc
  4089     1183  0DF4               	rlf	??___fpclassifyf,f
  4090     1184  0DF5               	rlf	??___fpclassifyf+1,f
  4091     1185  0DF6               	rlf	??___fpclassifyf+2,f
  4092     1186  0DF7               	rlf	??___fpclassifyf+3,f
  4093     1187                     u3940:
  4094     1187  3EFF               	addlw	-1
  4095     1188  1D03               	skipz
  4096     1189  2982               	goto	u3945
  4097     118A  0877               	movf	??___fpclassifyf+3,w
  4098     118B  0476               	iorwf	??___fpclassifyf+2,w
  4099     118C  0475               	iorwf	??___fpclassifyf+1,w
  4100     118D  0474               	iorwf	??___fpclassifyf,w
  4101     118E  1D03               	skipz
  4102     118F  2991               	goto	u3951
  4103     1190  2992               	goto	u3950
  4104     1191                     u3951:
  4105     1191  2997               	goto	l2804
  4106     1192                     u3950:
  4107     1192                     l2802:
  4108     1192  3002               	movlw	2
  4109     1193  00F0               	movwf	?___fpclassifyf
  4110     1194  3000               	movlw	0
  4111     1195  00F1               	movwf	?___fpclassifyf+1
  4112     1196  29C8               	goto	l814
  4113     1197                     l2804:
  4114     1197  3003               	movlw	3
  4115     1198  00F0               	movwf	?___fpclassifyf
  4116     1199  3000               	movlw	0
  4117     119A  00F1               	movwf	?___fpclassifyf+1
  4118     119B  29C8               	goto	l814
  4119     119C                     l2808:
  4120     119C  0A20               	incf	___fpclassifyf@e,w
  4121     119D  0421               	iorwf	___fpclassifyf@e+1,w
  4122     119E  1D03               	btfss	3,2
  4123     119F  29A1               	goto	u3961
  4124     11A0  29A2               	goto	u3960
  4125     11A1                     u3961:
  4126     11A1  29C4               	goto	l2814
  4127     11A2                     u3960:
  4128     11A2                     l2810:
  4129     11A2  0822               	movf	___fpclassifyf@u,w
  4130     11A3  00F4               	movwf	??___fpclassifyf
  4131     11A4  0823               	movf	___fpclassifyf@u+1,w
  4132     11A5  00F5               	movwf	??___fpclassifyf+1
  4133     11A6  0824               	movf	___fpclassifyf@u+2,w
  4134     11A7  00F6               	movwf	??___fpclassifyf+2
  4135     11A8  0825               	movf	___fpclassifyf@u+3,w
  4136     11A9  00F7               	movwf	??___fpclassifyf+3
  4137     11AA  3009               	movlw	9
  4138     11AB                     u3975:
  4139     11AB  1003               	clrc
  4140     11AC  0DF4               	rlf	??___fpclassifyf,f
  4141     11AD  0DF5               	rlf	??___fpclassifyf+1,f
  4142     11AE  0DF6               	rlf	??___fpclassifyf+2,f
  4143     11AF  0DF7               	rlf	??___fpclassifyf+3,f
  4144     11B0                     u3970:
  4145     11B0  3EFF               	addlw	-1
  4146     11B1  1D03               	skipz
  4147     11B2  29AB               	goto	u3975
  4148     11B3  0877               	movf	??___fpclassifyf+3,w
  4149     11B4  0476               	iorwf	??___fpclassifyf+2,w
  4150     11B5  0475               	iorwf	??___fpclassifyf+1,w
  4151     11B6  0474               	iorwf	??___fpclassifyf,w
  4152     11B7  1903               	skipnz
  4153     11B8  29BA               	goto	u3981
  4154     11B9  29BC               	goto	u3980
  4155     11BA                     u3981:
  4156     11BA  3001               	movlw	1
  4157     11BB  29BD               	goto	u3990
  4158     11BC                     u3980:
  4159     11BC  3000               	movlw	0
  4160     11BD                     u3990:
  4161     11BD  00F8               	movwf	??___fpclassifyf+4
  4162     11BE  01F9               	clrf	??___fpclassifyf+5
  4163     11BF  0878               	movf	??___fpclassifyf+4,w
  4164     11C0  00F0               	movwf	?___fpclassifyf
  4165     11C1  0879               	movf	??___fpclassifyf+5,w
  4166     11C2  00F1               	movwf	?___fpclassifyf+1
  4167     11C3  29C8               	goto	l814
  4168     11C4                     l2814:
  4169     11C4  3004               	movlw	4
  4170     11C5  00F0               	movwf	?___fpclassifyf
  4171     11C6  3000               	movlw	0
  4172     11C7  00F1               	movwf	?___fpclassifyf+1
  4173     11C8                     l814:
  4174     11C8  0008               	return
  4175     11C9                     __end_of___fpclassifyf:
  4176                           
  4177                           	psect	text16
  4178     1039                     __ptext16:	
  4179 ;; *************** function ___fltol *****************
  4180 ;; Defined at:
  4181 ;;		line 43 in file "C:\Program Files\Microchip\xc8\v2.46\pic\sources\c99\common\fltol.c"
  4182 ;; Parameters:    Size  Location     Type
  4183 ;;  f1              4    0[COMMON] int 
  4184 ;; Auto vars:     Size  Location     Type
  4185 ;;  exp1            1    9[COMMON] unsigned char 
  4186 ;;  sign1           1    8[COMMON] unsigned char 
  4187 ;; Return value:  Size  Location     Type
  4188 ;;                  4    0[COMMON] long 
  4189 ;; Registers used:
  4190 ;;		wreg, status,2, status,0, btemp+1
  4191 ;; Tracked objects:
  4192 ;;		On entry : 0/0
  4193 ;;		On exit  : 0/0
  4194 ;;		Unchanged: 0/0
  4195 ;; Data sizes:     COMMON   BANK0   BANK1   BANK3   BANK2
  4196 ;;      Params:         4       0       0       0       0
  4197 ;;      Locals:         2       0       0       0       0
  4198 ;;      Temps:          4       0       0       0       0
  4199 ;;      Totals:        10       0       0       0       0
  4200 ;;Total ram usage:       10 bytes
  4201 ;; Hardware stack levels used: 1
  4202 ;; This function calls:
  4203 ;;		Nothing
  4204 ;; This function is called by:
  4205 ;;		_efgtoa
  4206 ;; This function uses a non-reentrant model
  4207 ;;
  4208                           
  4209     1039                     ___fltol:	
  4210                           ;psect for function ___fltol
  4211                           
  4212     1039                     l2450:	
  4213                           ;incstack = 0
  4214                           ; Regs used in ___fltol: [wreg+status,2+status,0+btemp+1]
  4215                           
  4216     1039  1003               	clrc
  4217     103A  0D72               	rlf	___fltol@f1+2,w
  4218     103B  0D73               	rlf	___fltol@f1+3,w
  4219     103C  00F9               	movwf	___fltol@exp1
  4220     103D  0879               	movf	___fltol@exp1,w
  4221     103E  1D03               	btfss	3,2
  4222     103F  2841               	goto	u3141
  4223     1040  2842               	goto	u3140
  4224     1041                     u3141:
  4225     1041  284B               	goto	l2456
  4226     1042                     u3140:
  4227     1042                     l2452:
  4228     1042  3000               	movlw	0
  4229     1043  00F3               	movwf	?___fltol+3
  4230     1044  3000               	movlw	0
  4231     1045  00F2               	movwf	?___fltol+2
  4232     1046  3000               	movlw	0
  4233     1047  00F1               	movwf	?___fltol+1
  4234     1048  3000               	movlw	0
  4235     1049  00F0               	movwf	?___fltol
  4236     104A  28AE               	goto	l416
  4237     104B                     l2456:
  4238     104B  0870               	movf	___fltol@f1,w
  4239     104C  00F4               	movwf	??___fltol
  4240     104D  0871               	movf	___fltol@f1+1,w
  4241     104E  00F5               	movwf	??___fltol+1
  4242     104F  0872               	movf	___fltol@f1+2,w
  4243     1050  00F6               	movwf	??___fltol+2
  4244     1051  0873               	movf	___fltol@f1+3,w
  4245     1052  00F7               	movwf	??___fltol+3
  4246     1053  301F               	movlw	31
  4247     1054                     u3155:
  4248     1054  1003               	clrc
  4249     1055  0CF7               	rrf	??___fltol+3,f
  4250     1056  0CF6               	rrf	??___fltol+2,f
  4251     1057  0CF5               	rrf	??___fltol+1,f
  4252     1058  0CF4               	rrf	??___fltol,f
  4253     1059                     u3150:
  4254     1059  3EFF               	addlw	-1
  4255     105A  1D03               	skipz
  4256     105B  2854               	goto	u3155
  4257     105C  0874               	movf	??___fltol,w
  4258     105D  00F8               	movwf	___fltol@sign1
  4259     105E                     l2458:
  4260     105E  17F2               	bsf	___fltol@f1+2,7
  4261     105F                     l2460:
  4262     105F  30FF               	movlw	255
  4263     1060  05F0               	andwf	___fltol@f1,f
  4264     1061  30FF               	movlw	255
  4265     1062  05F1               	andwf	___fltol@f1+1,f
  4266     1063  30FF               	movlw	255
  4267     1064  05F2               	andwf	___fltol@f1+2,f
  4268     1065  3000               	movlw	0
  4269     1066  05F3               	andwf	___fltol@f1+3,f
  4270     1067                     l2462:
  4271     1067  3096               	movlw	150
  4272     1068  02F9               	subwf	___fltol@exp1,f
  4273     1069                     l2464:
  4274     1069  1FF9               	btfss	___fltol@exp1,7
  4275     106A  286C               	goto	u3161
  4276     106B  286D               	goto	u3160
  4277     106C                     u3161:
  4278     106C  2887               	goto	l2476
  4279     106D                     u3160:
  4280     106D                     l2466:
  4281     106D  0879               	movf	___fltol@exp1,w
  4282     106E  3A80               	xorlw	128
  4283     106F  3E97               	addlw	151
  4284     1070  1803               	skipnc
  4285     1071  2873               	goto	u3171
  4286     1072  2874               	goto	u3170
  4287     1073                     u3171:
  4288     1073  2875               	goto	l2472
  4289     1074                     u3170:
  4290     1074  2842               	goto	l2452
  4291     1075                     l2472:
  4292     1075  3001               	movlw	1
  4293     1076                     u3185:
  4294     1076  1003               	clrc
  4295     1077  0CF3               	rrf	___fltol@f1+3,f
  4296     1078  0CF2               	rrf	___fltol@f1+2,f
  4297     1079  0CF1               	rrf	___fltol@f1+1,f
  4298     107A  0CF0               	rrf	___fltol@f1,f
  4299     107B  3EFF               	addlw	-1
  4300     107C  1D03               	skipz
  4301     107D  2876               	goto	u3185
  4302     107E                     l2474:
  4303     107E  3001               	movlw	1
  4304     107F  00FF               	movwf	btemp+1
  4305     1080  087F               	movf	btemp+1,w
  4306     1081  07F9               	addwf	___fltol@exp1,f
  4307     1082  1D03               	btfss	3,2
  4308     1083  2885               	goto	u3191
  4309     1084  2886               	goto	u3190
  4310     1085                     u3191:
  4311     1085  2875               	goto	l2472
  4312     1086                     u3190:
  4313     1086  289E               	goto	l2484
  4314     1087                     l2476:
  4315     1087  3020               	movlw	32
  4316     1088  0279               	subwf	___fltol@exp1,w
  4317     1089  1C03               	skipc
  4318     108A  288C               	goto	u3201
  4319     108B  288D               	goto	u3200
  4320     108C                     u3201:
  4321     108C  2899               	goto	l423
  4322     108D                     u3200:
  4323     108D  2842               	goto	l2452
  4324     108E                     l2482:
  4325     108E  3001               	movlw	1
  4326     108F  00F4               	movwf	??___fltol
  4327     1090                     u3215:
  4328     1090  1003               	clrc
  4329     1091  0DF0               	rlf	___fltol@f1,f
  4330     1092  0DF1               	rlf	___fltol@f1+1,f
  4331     1093  0DF2               	rlf	___fltol@f1+2,f
  4332     1094  0DF3               	rlf	___fltol@f1+3,f
  4333     1095  0BF4               	decfsz	??___fltol,f
  4334     1096  2890               	goto	u3215
  4335     1097  3001               	movlw	1
  4336     1098  02F9               	subwf	___fltol@exp1,f
  4337     1099                     l423:
  4338     1099  0879               	movf	___fltol@exp1,w
  4339     109A  1D03               	btfss	3,2
  4340     109B  289D               	goto	u3221
  4341     109C  289E               	goto	u3220
  4342     109D                     u3221:
  4343     109D  288E               	goto	l2482
  4344     109E                     u3220:
  4345     109E                     l2484:
  4346     109E  0878               	movf	___fltol@sign1,w
  4347     109F  1903               	btfsc	3,2
  4348     10A0  28A2               	goto	u3231
  4349     10A1  28A3               	goto	u3230
  4350     10A2                     u3231:
  4351     10A2  28AE               	goto	l426
  4352     10A3                     u3230:
  4353     10A3                     l2486:
  4354     10A3  09F0               	comf	___fltol@f1,f
  4355     10A4  09F1               	comf	___fltol@f1+1,f
  4356     10A5  09F2               	comf	___fltol@f1+2,f
  4357     10A6  09F3               	comf	___fltol@f1+3,f
  4358     10A7  0AF0               	incf	___fltol@f1,f
  4359     10A8  1903               	skipnz
  4360     10A9  0AF1               	incf	___fltol@f1+1,f
  4361     10AA  1903               	skipnz
  4362     10AB  0AF2               	incf	___fltol@f1+2,f
  4363     10AC  1903               	skipnz
  4364     10AD  0AF3               	incf	___fltol@f1+3,f
  4365     10AE                     l426:
  4366     10AE                     l416:
  4367     10AE  0008               	return
  4368     10AF                     __end_of___fltol:
  4369                           
  4370                           	psect	text17
  4371     1D97                     __ptext17:	
  4372 ;; *************** function ___flsub *****************
  4373 ;; Defined at:
  4374 ;;		line 242 in file "C:\Program Files\Microchip\xc8\v2.46\pic\sources\c99\common\sprcadd.c"
  4375 ;; Parameters:    Size  Location     Type
  4376 ;;  a               4   34[BANK0 ] long 
  4377 ;;  b               4   38[BANK0 ] long 
  4378 ;; Auto vars:     Size  Location     Type
  4379 ;;		None
  4380 ;; Return value:  Size  Location     Type
  4381 ;;                  4   34[BANK0 ] long 
  4382 ;; Registers used:
  4383 ;;		wreg, status,2, status,0, btemp+1, pclath, cstack
  4384 ;; Tracked objects:
  4385 ;;		On entry : 0/0
  4386 ;;		On exit  : 0/0
  4387 ;;		Unchanged: 0/0
  4388 ;; Data sizes:     COMMON   BANK0   BANK1   BANK3   BANK2
  4389 ;;      Params:         0       8       0       0       0
  4390 ;;      Locals:         0       0       0       0       0
  4391 ;;      Temps:          0       0       0       0       0
  4392 ;;      Totals:         0       8       0       0       0
  4393 ;;Total ram usage:        8 bytes
  4394 ;; Hardware stack levels used: 1
  4395 ;; Hardware stack levels required when called: 1
  4396 ;; This function calls:
  4397 ;;		___fladd
  4398 ;; This function is called by:
  4399 ;;		_efgtoa
  4400 ;; This function uses a non-reentrant model
  4401 ;;
  4402                           
  4403     1D97                     ___flsub:	
  4404                           ;psect for function ___flsub
  4405                           
  4406     1D97                     l2488:	
  4407                           ;incstack = 0
  4408                           ; Regs used in ___flsub: [wreg+status,2+status,0+btemp+1+pclath+cstack]
  4409                           
  4410     1D97  3080               	movlw	128
  4411     1D98  1283               	bcf	3,5	;RP0=0, select bank0
  4412     1D99  1303               	bcf	3,6	;RP1=0, select bank0
  4413     1D9A  06C5               	xorwf	___flsub@a+3,f
  4414     1D9B                     l2490:
  4415     1D9B  0849               	movf	___flsub@b+3,w
  4416     1D9C  00F3               	movwf	___fladd@b+3
  4417     1D9D  0848               	movf	___flsub@b+2,w
  4418     1D9E  00F2               	movwf	___fladd@b+2
  4419     1D9F  0847               	movf	___flsub@b+1,w
  4420     1DA0  00F1               	movwf	___fladd@b+1
  4421     1DA1  0846               	movf	___flsub@b,w
  4422     1DA2  00F0               	movwf	___fladd@b
  4423     1DA3  0845               	movf	___flsub@a+3,w
  4424     1DA4  00F7               	movwf	___fladd@a+3
  4425     1DA5  0844               	movf	___flsub@a+2,w
  4426     1DA6  00F6               	movwf	___fladd@a+2
  4427     1DA7  0843               	movf	___flsub@a+1,w
  4428     1DA8  00F5               	movwf	___fladd@a+1
  4429     1DA9  0842               	movf	___flsub@a,w
  4430     1DAA  00F4               	movwf	___fladd@a
  4431     1DAB  160A  118A  259C  160A  158A  	fcall	___fladd
  4432     1DB0  0873               	movf	?___fladd+3,w
  4433     1DB1  1283               	bcf	3,5	;RP0=0, select bank0
  4434     1DB2  1303               	bcf	3,6	;RP1=0, select bank0
  4435     1DB3  00C5               	movwf	?___flsub+3
  4436     1DB4  0872               	movf	?___fladd+2,w
  4437     1DB5  00C4               	movwf	?___flsub+2
  4438     1DB6  0871               	movf	?___fladd+1,w
  4439     1DB7  00C3               	movwf	?___flsub+1
  4440     1DB8  0870               	movf	?___fladd,w
  4441     1DB9  00C2               	movwf	?___flsub
  4442     1DBA                     l569:
  4443     1DBA  0008               	return
  4444     1DBB                     __end_of___flsub:
  4445                           
  4446                           	psect	text18
  4447     159C                     __ptext18:	
  4448 ;; *************** function ___fladd *****************
  4449 ;; Defined at:
  4450 ;;		line 10 in file "C:\Program Files\Microchip\xc8\v2.46\pic\sources\c99\common\sprcadd.c"
  4451 ;; Parameters:    Size  Location     Type
  4452 ;;  b               4    0[COMMON] long 
  4453 ;;  a               4    4[COMMON] long 
  4454 ;; Auto vars:     Size  Location     Type
  4455 ;;  grs             1   11[COMMON] unsigned char 
  4456 ;;  bexp            1   10[COMMON] unsigned char 
  4457 ;;  aexp            1    9[COMMON] unsigned char 
  4458 ;;  signs           1    8[COMMON] unsigned char 
  4459 ;; Return value:  Size  Location     Type
  4460 ;;                  4    0[COMMON] unsigned char 
  4461 ;; Registers used:
  4462 ;;		wreg, status,2, status,0, btemp+1
  4463 ;; Tracked objects:
  4464 ;;		On entry : 0/0
  4465 ;;		On exit  : 0/0
  4466 ;;		Unchanged: 0/0
  4467 ;; Data sizes:     COMMON   BANK0   BANK1   BANK3   BANK2
  4468 ;;      Params:         8       0       0       0       0
  4469 ;;      Locals:         4       0       0       0       0
  4470 ;;      Temps:          0       8       0       0       0
  4471 ;;      Totals:        12       8       0       0       0
  4472 ;;Total ram usage:       20 bytes
  4473 ;; Hardware stack levels used: 1
  4474 ;; This function calls:
  4475 ;;		Nothing
  4476 ;; This function is called by:
  4477 ;;		_main
  4478 ;;		___flsub
  4479 ;;		_efgtoa
  4480 ;; This function uses a non-reentrant model
  4481 ;;
  4482                           
  4483     159C                     ___fladd:	
  4484                           ;psect for function ___fladd
  4485                           
  4486     159C                     l2174:	
  4487                           ;incstack = 0
  4488                           ; Regs used in ___fladd: [wreg+status,2+status,0+btemp+1]
  4489                           
  4490     159C  0873               	movf	___fladd@b+3,w
  4491     159D  3980               	andlw	128
  4492     159E  00F8               	movwf	___fladd@signs
  4493     159F                     l2176:
  4494     159F  0873               	movf	___fladd@b+3,w
  4495     15A0  1283               	bcf	3,5	;RP0=0, select bank0
  4496     15A1  1303               	bcf	3,6	;RP1=0, select bank0
  4497     15A2  00A0               	movwf	??___fladd
  4498     15A3  0720               	addwf	??___fladd,w
  4499     15A4  00FA               	movwf	___fladd@bexp
  4500     15A5                     l2178:
  4501     15A5  1FF2               	btfss	___fladd@b+2,7
  4502     15A6  2DA8               	goto	u2491
  4503     15A7  2DA9               	goto	u2490
  4504     15A8                     u2491:
  4505     15A8  2DAA               	goto	l2182
  4506     15A9                     u2490:
  4507     15A9                     l2180:
  4508     15A9  147A               	bsf	___fladd@bexp,0
  4509     15AA                     l2182:
  4510     15AA  087A               	movf	___fladd@bexp,w
  4511     15AB  1903               	btfsc	3,2
  4512     15AC  2DAE               	goto	u2501
  4513     15AD  2DAF               	goto	u2500
  4514     15AE                     u2501:
  4515     15AE  2DBF               	goto	l2192
  4516     15AF                     u2500:
  4517     15AF                     l2184:
  4518     15AF  0A7A               	incf	___fladd@bexp,w
  4519     15B0  1D03               	btfss	3,2
  4520     15B1  2DB3               	goto	u2511
  4521     15B2  2DB4               	goto	u2510
  4522     15B3                     u2511:
  4523     15B3  2DBC               	goto	l2188
  4524     15B4                     u2510:
  4525     15B4                     l2186:
  4526     15B4  3000               	movlw	0
  4527     15B5  00F3               	movwf	___fladd@b+3
  4528     15B6  3000               	movlw	0
  4529     15B7  00F2               	movwf	___fladd@b+2
  4530     15B8  3000               	movlw	0
  4531     15B9  00F1               	movwf	___fladd@b+1
  4532     15BA  3000               	movlw	0
  4533     15BB  00F0               	movwf	___fladd@b
  4534     15BC                     l2188:
  4535     15BC  17F2               	bsf	___fladd@b+2,7
  4536     15BD                     l2190:
  4537     15BD  01F3               	clrf	___fladd@b+3
  4538     15BE  2DC7               	goto	l2194
  4539     15BF                     l2192:
  4540     15BF  3000               	movlw	0
  4541     15C0  00F3               	movwf	___fladd@b+3
  4542     15C1  3000               	movlw	0
  4543     15C2  00F2               	movwf	___fladd@b+2
  4544     15C3  3000               	movlw	0
  4545     15C4  00F1               	movwf	___fladd@b+1
  4546     15C5  3000               	movlw	0
  4547     15C6  00F0               	movwf	___fladd@b
  4548     15C7                     l2194:
  4549     15C7  0877               	movf	___fladd@a+3,w
  4550     15C8  3980               	andlw	128
  4551     15C9  00F9               	movwf	___fladd@aexp
  4552     15CA                     l2196:
  4553     15CA  0879               	movf	___fladd@aexp,w
  4554     15CB  0678               	xorwf	___fladd@signs,w
  4555     15CC  1903               	skipnz
  4556     15CD  2DCF               	goto	u2521
  4557     15CE  2DD0               	goto	u2520
  4558     15CF                     u2521:
  4559     15CF  2DD1               	goto	l2200
  4560     15D0                     u2520:
  4561     15D0                     l2198:
  4562     15D0  1778               	bsf	___fladd@signs,6
  4563     15D1                     l2200:
  4564     15D1  0877               	movf	___fladd@a+3,w
  4565     15D2  00A0               	movwf	??___fladd
  4566     15D3  0720               	addwf	??___fladd,w
  4567     15D4  00F9               	movwf	___fladd@aexp
  4568     15D5                     l2202:
  4569     15D5  1FF6               	btfss	___fladd@a+2,7
  4570     15D6  2DD8               	goto	u2531
  4571     15D7  2DD9               	goto	u2530
  4572     15D8                     u2531:
  4573     15D8  2DDA               	goto	l2206
  4574     15D9                     u2530:
  4575     15D9                     l2204:
  4576     15D9  1479               	bsf	___fladd@aexp,0
  4577     15DA                     l2206:
  4578     15DA  0879               	movf	___fladd@aexp,w
  4579     15DB  1903               	btfsc	3,2
  4580     15DC  2DDE               	goto	u2541
  4581     15DD  2DDF               	goto	u2540
  4582     15DE                     u2541:
  4583     15DE  2DEF               	goto	l2216
  4584     15DF                     u2540:
  4585     15DF                     l2208:
  4586     15DF  0A79               	incf	___fladd@aexp,w
  4587     15E0  1D03               	btfss	3,2
  4588     15E1  2DE3               	goto	u2551
  4589     15E2  2DE4               	goto	u2550
  4590     15E3                     u2551:
  4591     15E3  2DEC               	goto	l2212
  4592     15E4                     u2550:
  4593     15E4                     l2210:
  4594     15E4  3000               	movlw	0
  4595     15E5  00F7               	movwf	___fladd@a+3
  4596     15E6  3000               	movlw	0
  4597     15E7  00F6               	movwf	___fladd@a+2
  4598     15E8  3000               	movlw	0
  4599     15E9  00F5               	movwf	___fladd@a+1
  4600     15EA  3000               	movlw	0
  4601     15EB  00F4               	movwf	___fladd@a
  4602     15EC                     l2212:
  4603     15EC  17F6               	bsf	___fladd@a+2,7
  4604     15ED                     l2214:
  4605     15ED  01F7               	clrf	___fladd@a+3
  4606     15EE  2DF7               	goto	l523
  4607     15EF                     l2216:
  4608     15EF  3000               	movlw	0
  4609     15F0  00F7               	movwf	___fladd@a+3
  4610     15F1  3000               	movlw	0
  4611     15F2  00F6               	movwf	___fladd@a+2
  4612     15F3  3000               	movlw	0
  4613     15F4  00F5               	movwf	___fladd@a+1
  4614     15F5  3000               	movlw	0
  4615     15F6  00F4               	movwf	___fladd@a
  4616     15F7                     l523:
  4617     15F7  087A               	movf	___fladd@bexp,w
  4618     15F8  0279               	subwf	___fladd@aexp,w
  4619     15F9  1803               	skipnc
  4620     15FA  2DFC               	goto	u2561
  4621     15FB  2DFD               	goto	u2560
  4622     15FC                     u2561:
  4623     15FC  2E23               	goto	l2252
  4624     15FD                     u2560:
  4625     15FD                     l2218:
  4626     15FD  1F78               	btfss	___fladd@signs,6
  4627     15FE  2E00               	goto	u2571
  4628     15FF  2E01               	goto	u2570
  4629     1600                     u2571:
  4630     1600  2E05               	goto	l2222
  4631     1601                     u2570:
  4632     1601                     l2220:
  4633     1601  3080               	movlw	128
  4634     1602  00FF               	movwf	btemp+1
  4635     1603  087F               	movf	btemp+1,w
  4636     1604  06F8               	xorwf	___fladd@signs,f
  4637     1605                     l2222:
  4638     1605  087A               	movf	___fladd@bexp,w
  4639     1606  00FB               	movwf	___fladd@grs
  4640     1607                     l2224:
  4641     1607  0879               	movf	___fladd@aexp,w
  4642     1608  00FA               	movwf	___fladd@bexp
  4643     1609                     l2226:
  4644     1609  087B               	movf	___fladd@grs,w
  4645     160A  00F9               	movwf	___fladd@aexp
  4646     160B                     l2228:
  4647     160B  0870               	movf	___fladd@b,w
  4648     160C  00FB               	movwf	___fladd@grs
  4649     160D                     l2230:
  4650     160D  0874               	movf	___fladd@a,w
  4651     160E  00F0               	movwf	___fladd@b
  4652     160F                     l2232:
  4653     160F  087B               	movf	___fladd@grs,w
  4654     1610  00F4               	movwf	___fladd@a
  4655     1611                     l2234:
  4656     1611  0871               	movf	___fladd@b+1,w
  4657     1612  00FB               	movwf	___fladd@grs
  4658     1613                     l2236:
  4659     1613  0875               	movf	___fladd@a+1,w
  4660     1614  00F1               	movwf	___fladd@b+1
  4661     1615                     l2238:
  4662     1615  087B               	movf	___fladd@grs,w
  4663     1616  00F5               	movwf	___fladd@a+1
  4664     1617                     l2240:
  4665     1617  0872               	movf	___fladd@b+2,w
  4666     1618  00FB               	movwf	___fladd@grs
  4667     1619                     l2242:
  4668     1619  0876               	movf	___fladd@a+2,w
  4669     161A  00F2               	movwf	___fladd@b+2
  4670     161B                     l2244:
  4671     161B  087B               	movf	___fladd@grs,w
  4672     161C  00F6               	movwf	___fladd@a+2
  4673     161D                     l2246:
  4674     161D  0873               	movf	___fladd@b+3,w
  4675     161E  00FB               	movwf	___fladd@grs
  4676     161F                     l2248:
  4677     161F  0877               	movf	___fladd@a+3,w
  4678     1620  00F3               	movwf	___fladd@b+3
  4679     1621                     l2250:
  4680     1621  087B               	movf	___fladd@grs,w
  4681     1622  00F7               	movwf	___fladd@a+3
  4682     1623                     l2252:
  4683     1623  01FB               	clrf	___fladd@grs
  4684     1624                     l2254:
  4685     1624  0879               	movf	___fladd@aexp,w
  4686     1625  00A0               	movwf	??___fladd
  4687     1626  01A1               	clrf	??___fladd+1
  4688     1627  0821               	movf	??___fladd+1,w
  4689     1628  00A3               	movwf	??___fladd+3
  4690     1629  087A               	movf	___fladd@bexp,w
  4691     162A  0220               	subwf	??___fladd,w
  4692     162B  00A2               	movwf	??___fladd+2
  4693     162C  1C03               	skipc
  4694     162D  03A3               	decf	??___fladd+3,f
  4695     162E  0823               	movf	??___fladd+3,w
  4696     162F  3A80               	xorlw	128
  4697     1630  00FF               	movwf	btemp+1
  4698     1631  3080               	movlw	128
  4699     1632  027F               	subwf	btemp+1,w
  4700     1633  1D03               	skipz
  4701     1634  2E37               	goto	u2585
  4702     1635  301A               	movlw	26
  4703     1636  0222               	subwf	??___fladd+2,w
  4704     1637                     u2585:
  4705     1637  1C03               	skipc
  4706     1638  2E3A               	goto	u2581
  4707     1639  2E3B               	goto	u2580
  4708     163A                     u2581:
  4709     163A  2E74               	goto	l2270
  4710     163B                     u2580:
  4711     163B                     l2256:
  4712     163B  0873               	movf	___fladd@b+3,w
  4713     163C  0472               	iorwf	___fladd@b+2,w
  4714     163D  0471               	iorwf	___fladd@b+1,w
  4715     163E  0470               	iorwf	___fladd@b,w
  4716     163F  1D03               	skipz
  4717     1640  2E42               	goto	u2591
  4718     1641  2E44               	goto	u2590
  4719     1642                     u2591:
  4720     1642  3001               	movlw	1
  4721     1643  2E45               	goto	u2600
  4722     1644                     u2590:
  4723     1644  3000               	movlw	0
  4724     1645                     u2600:
  4725     1645  00FB               	movwf	___fladd@grs
  4726     1646  3000               	movlw	0
  4727     1647  00F3               	movwf	___fladd@b+3
  4728     1648  3000               	movlw	0
  4729     1649  00F2               	movwf	___fladd@b+2
  4730     164A  3000               	movlw	0
  4731     164B  00F1               	movwf	___fladd@b+1
  4732     164C  3000               	movlw	0
  4733     164D  00F0               	movwf	___fladd@b
  4734     164E  0879               	movf	___fladd@aexp,w
  4735     164F  00FA               	movwf	___fladd@bexp
  4736     1650  2E7A               	goto	l527
  4737     1651                     l529:
  4738     1651  1C7B               	btfss	___fladd@grs,0
  4739     1652  2E54               	goto	u2611
  4740     1653  2E55               	goto	u2610
  4741     1654                     u2611:
  4742     1654  2E5E               	goto	l2260
  4743     1655                     u2610:
  4744     1655                     l2258:
  4745     1655  087B               	movf	___fladd@grs,w
  4746     1656  1283               	bcf	3,5	;RP0=0, select bank0
  4747     1657  1303               	bcf	3,6	;RP1=0, select bank0
  4748     1658  00A0               	movwf	??___fladd
  4749     1659  1003               	clrc
  4750     165A  0C20               	rrf	??___fladd,w
  4751     165B  3801               	iorlw	1
  4752     165C  00FB               	movwf	___fladd@grs
  4753     165D  2E60               	goto	l2262
  4754     165E                     l2260:
  4755     165E  1003               	clrc
  4756     165F  0CFB               	rrf	___fladd@grs,f
  4757     1660                     l2262:
  4758     1660  1C70               	btfss	___fladd@b,0
  4759     1661  2E63               	goto	u2621
  4760     1662  2E64               	goto	u2620
  4761     1663                     u2621:
  4762     1663  2E65               	goto	l2266
  4763     1664                     u2620:
  4764     1664                     l2264:
  4765     1664  17FB               	bsf	___fladd@grs,7
  4766     1665                     l2266:
  4767     1665  3001               	movlw	1
  4768     1666  1283               	bcf	3,5	;RP0=0, select bank0
  4769     1667  1303               	bcf	3,6	;RP1=0, select bank0
  4770     1668  00A0               	movwf	??___fladd
  4771     1669                     u2635:
  4772     1669  0D73               	rlf	___fladd@b+3,w
  4773     166A  0CF3               	rrf	___fladd@b+3,f
  4774     166B  0CF2               	rrf	___fladd@b+2,f
  4775     166C  0CF1               	rrf	___fladd@b+1,f
  4776     166D  0CF0               	rrf	___fladd@b,f
  4777     166E  0BA0               	decfsz	??___fladd& (0+127),f
  4778     166F  2E69               	goto	u2635
  4779     1670                     l2268:
  4780     1670  3001               	movlw	1
  4781     1671  00FF               	movwf	btemp+1
  4782     1672  087F               	movf	btemp+1,w
  4783     1673  07FA               	addwf	___fladd@bexp,f
  4784     1674                     l2270:
  4785     1674  0879               	movf	___fladd@aexp,w
  4786     1675  027A               	subwf	___fladd@bexp,w
  4787     1676  1C03               	skipc
  4788     1677  2E79               	goto	u2641
  4789     1678  2E7A               	goto	u2640
  4790     1679                     u2641:
  4791     1679  2E51               	goto	l529
  4792     167A                     u2640:
  4793     167A                     l527:
  4794     167A  1B78               	btfsc	___fladd@signs,6
  4795     167B  2E7D               	goto	u2651
  4796     167C  2E7E               	goto	u2650
  4797     167D                     u2651:
  4798     167D  2ECB               	goto	l2296
  4799     167E                     u2650:
  4800     167E                     l2272:
  4801     167E  087A               	movf	___fladd@bexp,w
  4802     167F  1D03               	btfss	3,2
  4803     1680  2E82               	goto	u2661
  4804     1681  2E83               	goto	u2660
  4805     1682                     u2661:
  4806     1682  2E8C               	goto	l2278
  4807     1683                     u2660:
  4808     1683                     l2274:
  4809     1683  3000               	movlw	0
  4810     1684  00F3               	movwf	?___fladd+3
  4811     1685  3000               	movlw	0
  4812     1686  00F2               	movwf	?___fladd+2
  4813     1687  3000               	movlw	0
  4814     1688  00F1               	movwf	?___fladd+1
  4815     1689  3000               	movlw	0
  4816     168A  00F0               	movwf	?___fladd
  4817     168B  2FFF               	goto	l536
  4818     168C                     l2278:
  4819     168C  0874               	movf	___fladd@a,w
  4820     168D  07F0               	addwf	___fladd@b,f
  4821     168E  0875               	movf	___fladd@a+1,w
  4822     168F  1103               	clrz
  4823     1690  1803               	skipnc
  4824     1691  3E01               	addlw	1
  4825     1692  1903               	skipnz
  4826     1693  2E95               	goto	u2671
  4827     1694  07F1               	addwf	___fladd@b+1,f
  4828     1695                     u2671:
  4829     1695  0876               	movf	___fladd@a+2,w
  4830     1696  1103               	clrz
  4831     1697  1803               	skipnc
  4832     1698  3E01               	addlw	1
  4833     1699  1903               	skipnz
  4834     169A  2E9C               	goto	u2672
  4835     169B  07F2               	addwf	___fladd@b+2,f
  4836     169C                     u2672:
  4837     169C  0877               	movf	___fladd@a+3,w
  4838     169D  1103               	clrz
  4839     169E  1803               	skipnc
  4840     169F  3E01               	addlw	1
  4841     16A0  1903               	skipnz
  4842     16A1  2EA3               	goto	u2673
  4843     16A2  07F3               	addwf	___fladd@b+3,f
  4844     16A3                     u2673:
  4845     16A3                     l2280:
  4846     16A3  1C73               	btfss	___fladd@b+3,0
  4847     16A4  2EA6               	goto	u2681
  4848     16A5  2EA7               	goto	u2680
  4849     16A6                     u2681:
  4850     16A6  2F83               	goto	l2332
  4851     16A7                     u2680:
  4852     16A7                     l2282:
  4853     16A7  1C7B               	btfss	___fladd@grs,0
  4854     16A8  2EAA               	goto	u2691
  4855     16A9  2EAB               	goto	u2690
  4856     16AA                     u2691:
  4857     16AA  2EB4               	goto	l2286
  4858     16AB                     u2690:
  4859     16AB                     l2284:
  4860     16AB  087B               	movf	___fladd@grs,w
  4861     16AC  1283               	bcf	3,5	;RP0=0, select bank0
  4862     16AD  1303               	bcf	3,6	;RP1=0, select bank0
  4863     16AE  00A0               	movwf	??___fladd
  4864     16AF  1003               	clrc
  4865     16B0  0C20               	rrf	??___fladd,w
  4866     16B1  3801               	iorlw	1
  4867     16B2  00FB               	movwf	___fladd@grs
  4868     16B3  2EB6               	goto	l2288
  4869     16B4                     l2286:
  4870     16B4  1003               	clrc
  4871     16B5  0CFB               	rrf	___fladd@grs,f
  4872     16B6                     l2288:
  4873     16B6  1C70               	btfss	___fladd@b,0
  4874     16B7  2EB9               	goto	u2701
  4875     16B8  2EBA               	goto	u2700
  4876     16B9                     u2701:
  4877     16B9  2EBB               	goto	l2292
  4878     16BA                     u2700:
  4879     16BA                     l2290:
  4880     16BA  17FB               	bsf	___fladd@grs,7
  4881     16BB                     l2292:
  4882     16BB  3001               	movlw	1
  4883     16BC  1283               	bcf	3,5	;RP0=0, select bank0
  4884     16BD  1303               	bcf	3,6	;RP1=0, select bank0
  4885     16BE  00A0               	movwf	??___fladd
  4886     16BF                     u2715:
  4887     16BF  0D73               	rlf	___fladd@b+3,w
  4888     16C0  0CF3               	rrf	___fladd@b+3,f
  4889     16C1  0CF2               	rrf	___fladd@b+2,f
  4890     16C2  0CF1               	rrf	___fladd@b+1,f
  4891     16C3  0CF0               	rrf	___fladd@b,f
  4892     16C4  0BA0               	decfsz	??___fladd& (0+127),f
  4893     16C5  2EBF               	goto	u2715
  4894     16C6                     l2294:
  4895     16C6  3001               	movlw	1
  4896     16C7  00FF               	movwf	btemp+1
  4897     16C8  087F               	movf	btemp+1,w
  4898     16C9  07FA               	addwf	___fladd@bexp,f
  4899     16CA  2F83               	goto	l2332
  4900     16CB                     l2296:
  4901     16CB  0873               	movf	___fladd@b+3,w
  4902     16CC  3A80               	xorlw	128
  4903     16CD  00FF               	movwf	btemp+1
  4904     16CE  0877               	movf	___fladd@a+3,w
  4905     16CF  3A80               	xorlw	128
  4906     16D0  027F               	subwf	btemp+1,w
  4907     16D1  1D03               	skipz
  4908     16D2  2EDD               	goto	u2723
  4909     16D3  0876               	movf	___fladd@a+2,w
  4910     16D4  0272               	subwf	___fladd@b+2,w
  4911     16D5  1D03               	skipz
  4912     16D6  2EDD               	goto	u2723
  4913     16D7  0875               	movf	___fladd@a+1,w
  4914     16D8  0271               	subwf	___fladd@b+1,w
  4915     16D9  1D03               	skipz
  4916     16DA  2EDD               	goto	u2723
  4917     16DB  0874               	movf	___fladd@a,w
  4918     16DC  0270               	subwf	___fladd@b,w
  4919     16DD                     u2723:
  4920     16DD  1803               	skipnc
  4921     16DE  2EE0               	goto	u2721
  4922     16DF  2EE1               	goto	u2720
  4923     16E0                     u2721:
  4924     16E0  2F3B               	goto	l2308
  4925     16E1                     u2720:
  4926     16E1                     l2298:
  4927     16E1  30FF               	movlw	255
  4928     16E2  1283               	bcf	3,5	;RP0=0, select bank0
  4929     16E3  1303               	bcf	3,6	;RP1=0, select bank0
  4930     16E4  00A0               	movwf	??___fladd
  4931     16E5  30FF               	movlw	255
  4932     16E6  00A1               	movwf	??___fladd+1
  4933     16E7  30FF               	movlw	255
  4934     16E8  00A2               	movwf	??___fladd+2
  4935     16E9  30FF               	movlw	255
  4936     16EA  00A3               	movwf	??___fladd+3
  4937     16EB  0874               	movf	___fladd@a,w
  4938     16EC  00A4               	movwf	??___fladd+4
  4939     16ED  0875               	movf	___fladd@a+1,w
  4940     16EE  00A5               	movwf	??___fladd+5
  4941     16EF  0876               	movf	___fladd@a+2,w
  4942     16F0  00A6               	movwf	??___fladd+6
  4943     16F1  0877               	movf	___fladd@a+3,w
  4944     16F2  00A7               	movwf	??___fladd+7
  4945     16F3  0870               	movf	___fladd@b,w
  4946     16F4  02A4               	subwf	??___fladd+4,f
  4947     16F5  0871               	movf	___fladd@b+1,w
  4948     16F6  1C03               	skipc
  4949     16F7  0F71               	incfsz	___fladd@b+1,w
  4950     16F8  2EFA               	goto	u2731
  4951     16F9  2EFB               	goto	u2732
  4952     16FA                     u2731:
  4953     16FA  02A5               	subwf	??___fladd+5,f
  4954     16FB                     u2732:
  4955     16FB  0872               	movf	___fladd@b+2,w
  4956     16FC  1C03               	skipc
  4957     16FD  0F72               	incfsz	___fladd@b+2,w
  4958     16FE  2F00               	goto	u2733
  4959     16FF  2F01               	goto	u2734
  4960     1700                     u2733:
  4961     1700  02A6               	subwf	??___fladd+6,f
  4962     1701                     u2734:
  4963     1701  0873               	movf	___fladd@b+3,w
  4964     1702  1C03               	skipc
  4965     1703  0F73               	incfsz	___fladd@b+3,w
  4966     1704  2F06               	goto	u2735
  4967     1705  2F07               	goto	u2736
  4968     1706                     u2735:
  4969     1706  02A7               	subwf	??___fladd+7,f
  4970     1707                     u2736:
  4971     1707  0824               	movf	??___fladd+4,w
  4972     1708  07A0               	addwf	??___fladd,f
  4973     1709  0825               	movf	??___fladd+5,w
  4974     170A  1803               	skipnc
  4975     170B  0F25               	incfsz	??___fladd+5,w
  4976     170C  2F0E               	goto	u2740
  4977     170D  2F0F               	goto	u2741
  4978     170E                     u2740:
  4979     170E  07A1               	addwf	??___fladd+1,f
  4980     170F                     u2741:
  4981     170F  0826               	movf	??___fladd+6,w
  4982     1710  1803               	skipnc
  4983     1711  0F26               	incfsz	??___fladd+6,w
  4984     1712  2F14               	goto	u2742
  4985     1713  2F15               	goto	u2743
  4986     1714                     u2742:
  4987     1714  07A2               	addwf	??___fladd+2,f
  4988     1715                     u2743:
  4989     1715  0827               	movf	??___fladd+7,w
  4990     1716  1803               	skipnc
  4991     1717  0A27               	incf	??___fladd+7,w
  4992     1718  07A3               	addwf	??___fladd+3,f
  4993     1719  0823               	movf	??___fladd+3,w
  4994     171A  00F3               	movwf	___fladd@b+3
  4995     171B  0822               	movf	??___fladd+2,w
  4996     171C  00F2               	movwf	___fladd@b+2
  4997     171D  0821               	movf	??___fladd+1,w
  4998     171E  00F1               	movwf	___fladd@b+1
  4999     171F  0820               	movf	??___fladd,w
  5000     1720  00F0               	movwf	___fladd@b
  5001     1721                     l2300:
  5002     1721  3080               	movlw	128
  5003     1722  00FF               	movwf	btemp+1
  5004     1723  087F               	movf	btemp+1,w
  5005     1724  06F8               	xorwf	___fladd@signs,f
  5006     1725                     l2302:
  5007     1725  09FB               	comf	___fladd@grs,f
  5008     1726  0AFB               	incf	___fladd@grs,f
  5009     1727                     l2304:
  5010     1727  087B               	movf	___fladd@grs,w
  5011     1728  1D03               	btfss	3,2
  5012     1729  2F2B               	goto	u2751
  5013     172A  2F2C               	goto	u2750
  5014     172B                     u2751:
  5015     172B  2F49               	goto	l544
  5016     172C                     u2750:
  5017     172C                     l2306:
  5018     172C  3001               	movlw	1
  5019     172D  07F0               	addwf	___fladd@b,f
  5020     172E  3000               	movlw	0
  5021     172F  1803               	skipnc
  5022     1730  3001               	movlw	1
  5023     1731  07F1               	addwf	___fladd@b+1,f
  5024     1732  3000               	movlw	0
  5025     1733  1803               	skipnc
  5026     1734  3001               	movlw	1
  5027     1735  07F2               	addwf	___fladd@b+2,f
  5028     1736  3000               	movlw	0
  5029     1737  1803               	skipnc
  5030     1738  3001               	movlw	1
  5031     1739  07F3               	addwf	___fladd@b+3,f
  5032     173A  2F49               	goto	l544
  5033     173B                     l2308:
  5034     173B  0874               	movf	___fladd@a,w
  5035     173C  02F0               	subwf	___fladd@b,f
  5036     173D  0875               	movf	___fladd@a+1,w
  5037     173E  1C03               	skipc
  5038     173F  0F75               	incfsz	___fladd@a+1,w
  5039     1740  02F1               	subwf	___fladd@b+1,f
  5040     1741  0876               	movf	___fladd@a+2,w
  5041     1742  1C03               	skipc
  5042     1743  0F76               	incfsz	___fladd@a+2,w
  5043     1744  02F2               	subwf	___fladd@b+2,f
  5044     1745  0877               	movf	___fladd@a+3,w
  5045     1746  1C03               	skipc
  5046     1747  0F77               	incfsz	___fladd@a+3,w
  5047     1748  02F3               	subwf	___fladd@b+3,f
  5048     1749                     l544:
  5049     1749  0873               	movf	___fladd@b+3,w
  5050     174A  0472               	iorwf	___fladd@b+2,w
  5051     174B  0471               	iorwf	___fladd@b+1,w
  5052     174C  0470               	iorwf	___fladd@b,w
  5053     174D  1D03               	skipz
  5054     174E  2F50               	goto	u2761
  5055     174F  2F51               	goto	u2760
  5056     1750                     u2761:
  5057     1750  2F7F               	goto	l2330
  5058     1751                     u2760:
  5059     1751                     l2310:
  5060     1751  087B               	movf	___fladd@grs,w
  5061     1752  1D03               	btfss	3,2
  5062     1753  2F55               	goto	u2771
  5063     1754  2F56               	goto	u2770
  5064     1755                     u2771:
  5065     1755  2F7F               	goto	l2330
  5066     1756                     u2770:
  5067     1756                     l2312:
  5068     1756  3000               	movlw	0
  5069     1757  00F3               	movwf	?___fladd+3
  5070     1758  3000               	movlw	0
  5071     1759  00F2               	movwf	?___fladd+2
  5072     175A  3000               	movlw	0
  5073     175B  00F1               	movwf	?___fladd+1
  5074     175C  3000               	movlw	0
  5075     175D  00F0               	movwf	?___fladd
  5076     175E  2FFF               	goto	l536
  5077     175F                     l2316:
  5078     175F  3001               	movlw	1
  5079     1760  1283               	bcf	3,5	;RP0=0, select bank0
  5080     1761  1303               	bcf	3,6	;RP1=0, select bank0
  5081     1762  00A0               	movwf	??___fladd
  5082     1763                     u2785:
  5083     1763  1003               	clrc
  5084     1764  0DF0               	rlf	___fladd@b,f
  5085     1765  0DF1               	rlf	___fladd@b+1,f
  5086     1766  0DF2               	rlf	___fladd@b+2,f
  5087     1767  0DF3               	rlf	___fladd@b+3,f
  5088     1768  0BA0               	decfsz	??___fladd,f
  5089     1769  2F63               	goto	u2785
  5090     176A                     l2318:
  5091     176A  1FFB               	btfss	___fladd@grs,7
  5092     176B  2F6D               	goto	u2791
  5093     176C  2F6E               	goto	u2790
  5094     176D                     u2791:
  5095     176D  2F6F               	goto	l548
  5096     176E                     u2790:
  5097     176E                     l2320:
  5098     176E  1470               	bsf	___fladd@b,0
  5099     176F                     l548:
  5100     176F  1C7B               	btfss	___fladd@grs,0
  5101     1770  2F72               	goto	u2801
  5102     1771  2F73               	goto	u2800
  5103     1772                     u2801:
  5104     1772  2F76               	goto	l2324
  5105     1773                     u2800:
  5106     1773                     l2322:
  5107     1773  1403               	setc
  5108     1774  0DFB               	rlf	___fladd@grs,f
  5109     1775  2F78               	goto	l2326
  5110     1776                     l2324:
  5111     1776  1003               	clrc
  5112     1777  0DFB               	rlf	___fladd@grs,f
  5113     1778                     l2326:
  5114     1778  087A               	movf	___fladd@bexp,w
  5115     1779  1903               	btfsc	3,2
  5116     177A  2F7C               	goto	u2811
  5117     177B  2F7D               	goto	u2810
  5118     177C                     u2811:
  5119     177C  2F7F               	goto	l2330
  5120     177D                     u2810:
  5121     177D                     l2328:
  5122     177D  3001               	movlw	1
  5123     177E  02FA               	subwf	___fladd@bexp,f
  5124     177F                     l2330:
  5125     177F  1FF2               	btfss	___fladd@b+2,7
  5126     1780  2F82               	goto	u2821
  5127     1781  2F83               	goto	u2820
  5128     1782                     u2821:
  5129     1782  2F5F               	goto	l2316
  5130     1783                     u2820:
  5131     1783                     l2332:
  5132     1783  01F9               	clrf	___fladd@aexp
  5133     1784                     l2334:
  5134     1784  1FFB               	btfss	___fladd@grs,7
  5135     1785  2F87               	goto	u2831
  5136     1786  2F88               	goto	u2830
  5137     1787                     u2831:
  5138     1787  2F96               	goto	l2342
  5139     1788                     u2830:
  5140     1788                     l2336:
  5141     1788  087B               	movf	___fladd@grs,w
  5142     1789  397F               	andlw	127
  5143     178A  1903               	btfsc	3,2
  5144     178B  2F8D               	goto	u2841
  5145     178C  2F8E               	goto	u2840
  5146     178D                     u2841:
  5147     178D  2F91               	goto	l554
  5148     178E                     u2840:
  5149     178E                     l2338:
  5150     178E  01F9               	clrf	___fladd@aexp
  5151     178F  0AF9               	incf	___fladd@aexp,f
  5152     1790  2F96               	goto	l2342
  5153     1791                     l554:
  5154     1791  1C70               	btfss	___fladd@b,0
  5155     1792  2F94               	goto	u2851
  5156     1793  2F95               	goto	u2850
  5157     1794                     u2851:
  5158     1794  2F96               	goto	l2342
  5159     1795                     u2850:
  5160     1795  2F8E               	goto	l2338
  5161     1796                     l2342:
  5162     1796  0879               	movf	___fladd@aexp,w
  5163     1797  1903               	btfsc	3,2
  5164     1798  2F9A               	goto	u2861
  5165     1799  2F9B               	goto	u2860
  5166     179A                     u2861:
  5167     179A  2FD1               	goto	l2352
  5168     179B                     u2860:
  5169     179B                     l2344:
  5170     179B  3001               	movlw	1
  5171     179C  07F0               	addwf	___fladd@b,f
  5172     179D  3000               	movlw	0
  5173     179E  1803               	skipnc
  5174     179F  3001               	movlw	1
  5175     17A0  07F1               	addwf	___fladd@b+1,f
  5176     17A1  3000               	movlw	0
  5177     17A2  1803               	skipnc
  5178     17A3  3001               	movlw	1
  5179     17A4  07F2               	addwf	___fladd@b+2,f
  5180     17A5  3000               	movlw	0
  5181     17A6  1803               	skipnc
  5182     17A7  3001               	movlw	1
  5183     17A8  07F3               	addwf	___fladd@b+3,f
  5184     17A9                     l2346:
  5185     17A9  1C73               	btfss	___fladd@b+3,0
  5186     17AA  2FAC               	goto	u2871
  5187     17AB  2FAD               	goto	u2870
  5188     17AC                     u2871:
  5189     17AC  2FD1               	goto	l2352
  5190     17AD                     u2870:
  5191     17AD                     l2348:
  5192     17AD  0870               	movf	___fladd@b,w
  5193     17AE  1283               	bcf	3,5	;RP0=0, select bank0
  5194     17AF  1303               	bcf	3,6	;RP1=0, select bank0
  5195     17B0  00A0               	movwf	??___fladd
  5196     17B1  0871               	movf	___fladd@b+1,w
  5197     17B2  00A1               	movwf	??___fladd+1
  5198     17B3  0872               	movf	___fladd@b+2,w
  5199     17B4  00A2               	movwf	??___fladd+2
  5200     17B5  0873               	movf	___fladd@b+3,w
  5201     17B6  00A3               	movwf	??___fladd+3
  5202     17B7  3001               	movlw	1
  5203     17B8  00A4               	movwf	??___fladd+4
  5204     17B9                     u2885:
  5205     17B9  0D23               	rlf	??___fladd+3,w
  5206     17BA  0CA3               	rrf	??___fladd+3,f
  5207     17BB  0CA2               	rrf	??___fladd+2,f
  5208     17BC  0CA1               	rrf	??___fladd+1,f
  5209     17BD  0CA0               	rrf	??___fladd,f
  5210     17BE                     u2880:
  5211     17BE  0BA4               	decfsz	??___fladd+4,f
  5212     17BF  2FB9               	goto	u2885
  5213     17C0  0823               	movf	??___fladd+3,w
  5214     17C1  00F3               	movwf	___fladd@b+3
  5215     17C2  0822               	movf	??___fladd+2,w
  5216     17C3  00F2               	movwf	___fladd@b+2
  5217     17C4  0821               	movf	??___fladd+1,w
  5218     17C5  00F1               	movwf	___fladd@b+1
  5219     17C6  0820               	movf	??___fladd,w
  5220     17C7  00F0               	movwf	___fladd@b
  5221     17C8  0A7A               	incf	___fladd@bexp,w
  5222     17C9  1903               	btfsc	3,2
  5223     17CA  2FCC               	goto	u2891
  5224     17CB  2FCD               	goto	u2890
  5225     17CC                     u2891:
  5226     17CC  2FD1               	goto	l2352
  5227     17CD                     u2890:
  5228     17CD                     l2350:
  5229     17CD  3001               	movlw	1
  5230     17CE  00FF               	movwf	btemp+1
  5231     17CF  087F               	movf	btemp+1,w
  5232     17D0  07FA               	addwf	___fladd@bexp,f
  5233     17D1                     l2352:
  5234     17D1  0A7A               	incf	___fladd@bexp,w
  5235     17D2  1903               	btfsc	3,2
  5236     17D3  2FD5               	goto	u2901
  5237     17D4  2FD6               	goto	u2900
  5238     17D5                     u2901:
  5239     17D5  2FDB               	goto	l2356
  5240     17D6                     u2900:
  5241     17D6                     l2354:
  5242     17D6  087A               	movf	___fladd@bexp,w
  5243     17D7  1D03               	btfss	3,2
  5244     17D8  2FDA               	goto	u2911
  5245     17D9  2FDB               	goto	u2910
  5246     17DA                     u2911:
  5247     17DA  2FE9               	goto	l2362
  5248     17DB                     u2910:
  5249     17DB                     l2356:
  5250     17DB  3000               	movlw	0
  5251     17DC  00F3               	movwf	___fladd@b+3
  5252     17DD  3000               	movlw	0
  5253     17DE  00F2               	movwf	___fladd@b+2
  5254     17DF  3000               	movlw	0
  5255     17E0  00F1               	movwf	___fladd@b+1
  5256     17E1  3000               	movlw	0
  5257     17E2  00F0               	movwf	___fladd@b
  5258     17E3                     l2358:
  5259     17E3  087A               	movf	___fladd@bexp,w
  5260     17E4  1D03               	btfss	3,2
  5261     17E5  2FE7               	goto	u2921
  5262     17E6  2FE8               	goto	u2920
  5263     17E7                     u2921:
  5264     17E7  2FE9               	goto	l2362
  5265     17E8                     u2920:
  5266     17E8                     l2360:
  5267     17E8  01F8               	clrf	___fladd@signs
  5268     17E9                     l2362:
  5269     17E9  1C7A               	btfss	___fladd@bexp,0
  5270     17EA  2FEC               	goto	u2931
  5271     17EB  2FED               	goto	u2930
  5272     17EC                     u2931:
  5273     17EC  2FEF               	goto	l2366
  5274     17ED                     u2930:
  5275     17ED                     l2364:
  5276     17ED  17F2               	bsf	___fladd@b+2,7
  5277     17EE  2FF3               	goto	l2368
  5278     17EF                     l2366:
  5279     17EF  307F               	movlw	127
  5280     17F0  00FF               	movwf	btemp+1
  5281     17F1  087F               	movf	btemp+1,w
  5282     17F2  05F2               	andwf	___fladd@b+2,f
  5283     17F3                     l2368:
  5284     17F3  087A               	movf	___fladd@bexp,w
  5285     17F4  1283               	bcf	3,5	;RP0=0, select bank0
  5286     17F5  1303               	bcf	3,6	;RP1=0, select bank0
  5287     17F6  00A0               	movwf	??___fladd
  5288     17F7  1003               	clrc
  5289     17F8  0C20               	rrf	??___fladd,w
  5290     17F9  00F3               	movwf	___fladd@b+3
  5291     17FA                     l2370:
  5292     17FA  1FF8               	btfss	___fladd@signs,7
  5293     17FB  2FFD               	goto	u2941
  5294     17FC  2FFE               	goto	u2940
  5295     17FD                     u2941:
  5296     17FD  2FFF               	goto	l566
  5297     17FE                     u2940:
  5298     17FE                     l2372:
  5299     17FE  17F3               	bsf	___fladd@b+3,7
  5300     17FF                     l566:
  5301     17FF                     l536:
  5302     17FF  0008               	return
  5303     1800                     __end_of___fladd:
  5304                           
  5305                           	psect	text19
  5306     1CCB                     __ptext19:	
  5307 ;; *************** function ___flneg *****************
  5308 ;; Defined at:
  5309 ;;		line 15 in file "C:\Program Files\Microchip\xc8\v2.46\pic\sources\c99\common\flneg.c"
  5310 ;; Parameters:    Size  Location     Type
  5311 ;;  f1              4    0[COMMON] unsigned char 
  5312 ;; Auto vars:     Size  Location     Type
  5313 ;;		None
  5314 ;; Return value:  Size  Location     Type
  5315 ;;                  4    0[COMMON] unsigned char 
  5316 ;; Registers used:
  5317 ;;		wreg
  5318 ;; Tracked objects:
  5319 ;;		On entry : 0/0
  5320 ;;		On exit  : 0/0
  5321 ;;		Unchanged: 0/0
  5322 ;; Data sizes:     COMMON   BANK0   BANK1   BANK3   BANK2
  5323 ;;      Params:         4       0       0       0       0
  5324 ;;      Locals:         0       0       0       0       0
  5325 ;;      Temps:          0       0       0       0       0
  5326 ;;      Totals:         4       0       0       0       0
  5327 ;;Total ram usage:        4 bytes
  5328 ;; Hardware stack levels used: 1
  5329 ;; This function calls:
  5330 ;;		Nothing
  5331 ;; This function is called by:
  5332 ;;		_efgtoa
  5333 ;; This function uses a non-reentrant model
  5334 ;;
  5335                           
  5336     1CCB                     ___flneg:	
  5337                           ;psect for function ___flneg
  5338                           
  5339     1CCB                     l2442:	
  5340                           ;incstack = 0
  5341                           ; Regs used in ___flneg: [wreg]
  5342                           
  5343     1CCB  0873               	movf	___flneg@f1+3,w
  5344     1CCC  0472               	iorwf	___flneg@f1+2,w
  5345     1CCD  0471               	iorwf	___flneg@f1+1,w
  5346     1CCE  0470               	iorwf	___flneg@f1,w
  5347     1CCF  1903               	skipnz
  5348     1CD0  2CD2               	goto	u3131
  5349     1CD1  2CD3               	goto	u3130
  5350     1CD2                     u3131:
  5351     1CD2  2CD5               	goto	l2446
  5352     1CD3                     u3130:
  5353     1CD3                     l2444:
  5354     1CD3  3080               	movlw	128
  5355     1CD4  06F3               	xorwf	___flneg@f1+3,f
  5356     1CD5                     l2446:
  5357     1CD5                     l412:
  5358     1CD5  0008               	return
  5359     1CD6                     __end_of___flneg:
  5360                           
  5361                           	psect	text20
  5362     0CBB                     __ptext20:	
  5363 ;; *************** function ___flmul *****************
  5364 ;; Defined at:
  5365 ;;		line 8 in file "C:\Program Files\Microchip\xc8\v2.46\pic\sources\c99\common\sprcmul.c"
  5366 ;; Parameters:    Size  Location     Type
  5367 ;;  b               4    8[BANK0 ] unsigned char 
  5368 ;;  a               4   12[BANK0 ] unsigned char 
  5369 ;; Auto vars:     Size  Location     Type
  5370 ;;  prod            4   28[BANK0 ] struct .
  5371 ;;  grs             4   22[BANK0 ] unsigned long 
  5372 ;;  temp            2   32[BANK0 ] struct .
  5373 ;;  bexp            1   27[BANK0 ] unsigned char 
  5374 ;;  aexp            1   26[BANK0 ] unsigned char 
  5375 ;;  sign            1   21[BANK0 ] unsigned char 
  5376 ;; Return value:  Size  Location     Type
  5377 ;;                  4    8[BANK0 ] unsigned char 
  5378 ;; Registers used:
  5379 ;;		wreg, status,2, status,0, btemp+1, pclath, cstack
  5380 ;; Tracked objects:
  5381 ;;		On entry : 0/0
  5382 ;;		On exit  : 0/0
  5383 ;;		Unchanged: 0/0
  5384 ;; Data sizes:     COMMON   BANK0   BANK1   BANK3   BANK2
  5385 ;;      Params:         0       8       0       0       0
  5386 ;;      Locals:         0      13       0       0       0
  5387 ;;      Temps:          0       5       0       0       0
  5388 ;;      Totals:         0      26       0       0       0
  5389 ;;Total ram usage:       26 bytes
  5390 ;; Hardware stack levels used: 1
  5391 ;; Hardware stack levels required when called: 1
  5392 ;; This function calls:
  5393 ;;		__Umul8_16
  5394 ;; This function is called by:
  5395 ;;		_main
  5396 ;;		_efgtoa
  5397 ;; This function uses a non-reentrant model
  5398 ;;
  5399                           
  5400     0CBB                     ___flmul:	
  5401                           ;psect for function ___flmul
  5402                           
  5403     0CBB                     l2640:	
  5404                           ;incstack = 0
  5405                           ; Regs used in ___flmul: [wreg+status,2+status,0+btemp+1+pclath+cstack]
  5406                           
  5407     0CBB  1283               	bcf	3,5	;RP0=0, select bank0
  5408     0CBC  1303               	bcf	3,6	;RP1=0, select bank0
  5409     0CBD  082B               	movf	___flmul@b+3,w
  5410     0CBE  3980               	andlw	128
  5411     0CBF  00B5               	movwf	___flmul@sign
  5412     0CC0                     l2642:
  5413     0CC0  082B               	movf	___flmul@b+3,w
  5414     0CC1  00B0               	movwf	??___flmul
  5415     0CC2  0730               	addwf	??___flmul,w
  5416     0CC3  00BB               	movwf	___flmul@bexp
  5417     0CC4                     l2644:
  5418     0CC4  1FAA               	btfss	___flmul@b+2,7
  5419     0CC5  2CC7               	goto	u3531
  5420     0CC6  2CC8               	goto	u3530
  5421     0CC7                     u3531:
  5422     0CC7  2CC9               	goto	l2648
  5423     0CC8                     u3530:
  5424     0CC8                     l2646:
  5425     0CC8  143B               	bsf	___flmul@bexp,0
  5426     0CC9                     l2648:
  5427     0CC9  083B               	movf	___flmul@bexp,w
  5428     0CCA  1903               	btfsc	3,2
  5429     0CCB  2CCD               	goto	u3541
  5430     0CCC  2CCE               	goto	u3540
  5431     0CCD                     u3541:
  5432     0CCD  2CDD               	goto	l2656
  5433     0CCE                     u3540:
  5434     0CCE                     l2650:
  5435     0CCE  0A3B               	incf	___flmul@bexp,w
  5436     0CCF  1D03               	btfss	3,2
  5437     0CD0  2CD2               	goto	u3551
  5438     0CD1  2CD3               	goto	u3550
  5439     0CD2                     u3551:
  5440     0CD2  2CDB               	goto	l2654
  5441     0CD3                     u3550:
  5442     0CD3                     l2652:
  5443     0CD3  3000               	movlw	0
  5444     0CD4  00AB               	movwf	___flmul@b+3
  5445     0CD5  3000               	movlw	0
  5446     0CD6  00AA               	movwf	___flmul@b+2
  5447     0CD7  3000               	movlw	0
  5448     0CD8  00A9               	movwf	___flmul@b+1
  5449     0CD9  3000               	movlw	0
  5450     0CDA  00A8               	movwf	___flmul@b
  5451     0CDB                     l2654:
  5452     0CDB  17AA               	bsf	___flmul@b+2,7
  5453     0CDC  2CE5               	goto	l2658
  5454     0CDD                     l2656:
  5455     0CDD  3000               	movlw	0
  5456     0CDE  00AB               	movwf	___flmul@b+3
  5457     0CDF  3000               	movlw	0
  5458     0CE0  00AA               	movwf	___flmul@b+2
  5459     0CE1  3000               	movlw	0
  5460     0CE2  00A9               	movwf	___flmul@b+1
  5461     0CE3  3000               	movlw	0
  5462     0CE4  00A8               	movwf	___flmul@b
  5463     0CE5                     l2658:
  5464     0CE5  082F               	movf	___flmul@a+3,w
  5465     0CE6  3980               	andlw	128
  5466     0CE7  00FF               	movwf	btemp+1
  5467     0CE8  087F               	movf	btemp+1,w
  5468     0CE9  06B5               	xorwf	___flmul@sign,f
  5469     0CEA                     l2660:
  5470     0CEA  082F               	movf	___flmul@a+3,w
  5471     0CEB  00B0               	movwf	??___flmul
  5472     0CEC  0730               	addwf	??___flmul,w
  5473     0CED  00BA               	movwf	___flmul@aexp
  5474     0CEE                     l2662:
  5475     0CEE  1FAE               	btfss	___flmul@a+2,7
  5476     0CEF  2CF1               	goto	u3561
  5477     0CF0  2CF2               	goto	u3560
  5478     0CF1                     u3561:
  5479     0CF1  2CF3               	goto	l2666
  5480     0CF2                     u3560:
  5481     0CF2                     l2664:
  5482     0CF2  143A               	bsf	___flmul@aexp,0
  5483     0CF3                     l2666:
  5484     0CF3  083A               	movf	___flmul@aexp,w
  5485     0CF4  1903               	btfsc	3,2
  5486     0CF5  2CF7               	goto	u3571
  5487     0CF6  2CF8               	goto	u3570
  5488     0CF7                     u3571:
  5489     0CF7  2D07               	goto	l2674
  5490     0CF8                     u3570:
  5491     0CF8                     l2668:
  5492     0CF8  0A3A               	incf	___flmul@aexp,w
  5493     0CF9  1D03               	btfss	3,2
  5494     0CFA  2CFC               	goto	u3581
  5495     0CFB  2CFD               	goto	u3580
  5496     0CFC                     u3581:
  5497     0CFC  2D05               	goto	l2672
  5498     0CFD                     u3580:
  5499     0CFD                     l2670:
  5500     0CFD  3000               	movlw	0
  5501     0CFE  00AF               	movwf	___flmul@a+3
  5502     0CFF  3000               	movlw	0
  5503     0D00  00AE               	movwf	___flmul@a+2
  5504     0D01  3000               	movlw	0
  5505     0D02  00AD               	movwf	___flmul@a+1
  5506     0D03  3000               	movlw	0
  5507     0D04  00AC               	movwf	___flmul@a
  5508     0D05                     l2672:
  5509     0D05  17AE               	bsf	___flmul@a+2,7
  5510     0D06  2D0F               	goto	l2676
  5511     0D07                     l2674:
  5512     0D07  3000               	movlw	0
  5513     0D08  00AF               	movwf	___flmul@a+3
  5514     0D09  3000               	movlw	0
  5515     0D0A  00AE               	movwf	___flmul@a+2
  5516     0D0B  3000               	movlw	0
  5517     0D0C  00AD               	movwf	___flmul@a+1
  5518     0D0D  3000               	movlw	0
  5519     0D0E  00AC               	movwf	___flmul@a
  5520     0D0F                     l2676:
  5521     0D0F  083A               	movf	___flmul@aexp,w
  5522     0D10  1903               	btfsc	3,2
  5523     0D11  2D13               	goto	u3591
  5524     0D12  2D14               	goto	u3590
  5525     0D13                     u3591:
  5526     0D13  2D19               	goto	l2680
  5527     0D14                     u3590:
  5528     0D14                     l2678:
  5529     0D14  083B               	movf	___flmul@bexp,w
  5530     0D15  1D03               	btfss	3,2
  5531     0D16  2D18               	goto	u3601
  5532     0D17  2D19               	goto	u3600
  5533     0D18                     u3601:
  5534     0D18  2D22               	goto	l2684
  5535     0D19                     u3600:
  5536     0D19                     l2680:
  5537     0D19  3000               	movlw	0
  5538     0D1A  00AB               	movwf	?___flmul+3
  5539     0D1B  3000               	movlw	0
  5540     0D1C  00AA               	movwf	?___flmul+2
  5541     0D1D  3000               	movlw	0
  5542     0D1E  00A9               	movwf	?___flmul+1
  5543     0D1F  3000               	movlw	0
  5544     0D20  00A8               	movwf	?___flmul
  5545     0D21  2FFF               	goto	l619
  5546     0D22                     l2684:
  5547     0D22  0828               	movf	___flmul@b,w
  5548     0D23  00F0               	movwf	__Umul8_16@multiplicand
  5549     0D24  082E               	movf	___flmul@a+2,w
  5550     0D25  160A  158A  25E0  120A  158A  	fcall	__Umul8_16
  5551     0D2A  0871               	movf	?__Umul8_16+1,w
  5552     0D2B  1283               	bcf	3,5	;RP0=0, select bank0
  5553     0D2C  1303               	bcf	3,6	;RP1=0, select bank0
  5554     0D2D  00C1               	movwf	___flmul@temp+1
  5555     0D2E  0870               	movf	?__Umul8_16,w
  5556     0D2F  00C0               	movwf	___flmul@temp
  5557     0D30                     l2686:
  5558     0D30  0840               	movf	___flmul@temp,w
  5559     0D31  00B0               	movwf	??___flmul
  5560     0D32  01B1               	clrf	??___flmul+1
  5561     0D33  01B2               	clrf	??___flmul+2
  5562     0D34  01B3               	clrf	??___flmul+3
  5563     0D35  0833               	movf	??___flmul+3,w
  5564     0D36  00B9               	movwf	___flmul@grs+3
  5565     0D37  0832               	movf	??___flmul+2,w
  5566     0D38  00B8               	movwf	___flmul@grs+2
  5567     0D39  0831               	movf	??___flmul+1,w
  5568     0D3A  00B7               	movwf	___flmul@grs+1
  5569     0D3B  0830               	movf	??___flmul,w
  5570     0D3C  00B6               	movwf	___flmul@grs
  5571     0D3D                     l2688:
  5572     0D3D  0841               	movf	___flmul@temp+1,w
  5573     0D3E  00B0               	movwf	??___flmul
  5574     0D3F  01B1               	clrf	??___flmul+1
  5575     0D40  01B2               	clrf	??___flmul+2
  5576     0D41  01B3               	clrf	??___flmul+3
  5577     0D42  0833               	movf	??___flmul+3,w
  5578     0D43  00BF               	movwf	___flmul@prod+3
  5579     0D44  0832               	movf	??___flmul+2,w
  5580     0D45  00BE               	movwf	___flmul@prod+2
  5581     0D46  0831               	movf	??___flmul+1,w
  5582     0D47  00BD               	movwf	___flmul@prod+1
  5583     0D48  0830               	movf	??___flmul,w
  5584     0D49  00BC               	movwf	___flmul@prod
  5585     0D4A  0829               	movf	___flmul@b+1,w
  5586     0D4B  00F0               	movwf	__Umul8_16@multiplicand
  5587     0D4C  082D               	movf	___flmul@a+1,w
  5588     0D4D  160A  158A  25E0  120A  158A  	fcall	__Umul8_16
  5589     0D52  0871               	movf	?__Umul8_16+1,w
  5590     0D53  1283               	bcf	3,5	;RP0=0, select bank0
  5591     0D54  1303               	bcf	3,6	;RP1=0, select bank0
  5592     0D55  00C1               	movwf	___flmul@temp+1
  5593     0D56  0870               	movf	?__Umul8_16,w
  5594     0D57  00C0               	movwf	___flmul@temp
  5595     0D58                     l2690:
  5596     0D58  0840               	movf	___flmul@temp,w
  5597     0D59  00B0               	movwf	??___flmul
  5598     0D5A  01B1               	clrf	??___flmul+1
  5599     0D5B  01B2               	clrf	??___flmul+2
  5600     0D5C  01B3               	clrf	??___flmul+3
  5601     0D5D  0830               	movf	??___flmul,w
  5602     0D5E  07B6               	addwf	___flmul@grs,f
  5603     0D5F  0831               	movf	??___flmul+1,w
  5604     0D60  1103               	clrz
  5605     0D61  1803               	skipnc
  5606     0D62  3E01               	addlw	1
  5607     0D63  1903               	skipnz
  5608     0D64  2D66               	goto	u3611
  5609     0D65  07B7               	addwf	___flmul@grs+1,f
  5610     0D66                     u3611:
  5611     0D66  0832               	movf	??___flmul+2,w
  5612     0D67  1103               	clrz
  5613     0D68  1803               	skipnc
  5614     0D69  3E01               	addlw	1
  5615     0D6A  1903               	skipnz
  5616     0D6B  2D6D               	goto	u3612
  5617     0D6C  07B8               	addwf	___flmul@grs+2,f
  5618     0D6D                     u3612:
  5619     0D6D  0833               	movf	??___flmul+3,w
  5620     0D6E  1103               	clrz
  5621     0D6F  1803               	skipnc
  5622     0D70  3E01               	addlw	1
  5623     0D71  1903               	skipnz
  5624     0D72  2D74               	goto	u3613
  5625     0D73  07B9               	addwf	___flmul@grs+3,f
  5626     0D74                     u3613:
  5627     0D74                     l2692:
  5628     0D74  0841               	movf	___flmul@temp+1,w
  5629     0D75  00B0               	movwf	??___flmul
  5630     0D76  01B1               	clrf	??___flmul+1
  5631     0D77  01B2               	clrf	??___flmul+2
  5632     0D78  01B3               	clrf	??___flmul+3
  5633     0D79  0830               	movf	??___flmul,w
  5634     0D7A  07BC               	addwf	___flmul@prod,f
  5635     0D7B  0831               	movf	??___flmul+1,w
  5636     0D7C  1103               	clrz
  5637     0D7D  1803               	skipnc
  5638     0D7E  3E01               	addlw	1
  5639     0D7F  1903               	skipnz
  5640     0D80  2D82               	goto	u3621
  5641     0D81  07BD               	addwf	___flmul@prod+1,f
  5642     0D82                     u3621:
  5643     0D82  0832               	movf	??___flmul+2,w
  5644     0D83  1103               	clrz
  5645     0D84  1803               	skipnc
  5646     0D85  3E01               	addlw	1
  5647     0D86  1903               	skipnz
  5648     0D87  2D89               	goto	u3622
  5649     0D88  07BE               	addwf	___flmul@prod+2,f
  5650     0D89                     u3622:
  5651     0D89  0833               	movf	??___flmul+3,w
  5652     0D8A  1103               	clrz
  5653     0D8B  1803               	skipnc
  5654     0D8C  3E01               	addlw	1
  5655     0D8D  1903               	skipnz
  5656     0D8E  2D90               	goto	u3623
  5657     0D8F  07BF               	addwf	___flmul@prod+3,f
  5658     0D90                     u3623:
  5659     0D90  082A               	movf	___flmul@b+2,w
  5660     0D91  00F0               	movwf	__Umul8_16@multiplicand
  5661     0D92  082C               	movf	___flmul@a,w
  5662     0D93  160A  158A  25E0  120A  158A  	fcall	__Umul8_16
  5663     0D98  0871               	movf	?__Umul8_16+1,w
  5664     0D99  1283               	bcf	3,5	;RP0=0, select bank0
  5665     0D9A  1303               	bcf	3,6	;RP1=0, select bank0
  5666     0D9B  00C1               	movwf	___flmul@temp+1
  5667     0D9C  0870               	movf	?__Umul8_16,w
  5668     0D9D  00C0               	movwf	___flmul@temp
  5669     0D9E                     l2694:
  5670     0D9E  0840               	movf	___flmul@temp,w
  5671     0D9F  00B0               	movwf	??___flmul
  5672     0DA0  01B1               	clrf	??___flmul+1
  5673     0DA1  01B2               	clrf	??___flmul+2
  5674     0DA2  01B3               	clrf	??___flmul+3
  5675     0DA3  0830               	movf	??___flmul,w
  5676     0DA4  07B6               	addwf	___flmul@grs,f
  5677     0DA5  0831               	movf	??___flmul+1,w
  5678     0DA6  1103               	clrz
  5679     0DA7  1803               	skipnc
  5680     0DA8  3E01               	addlw	1
  5681     0DA9  1903               	skipnz
  5682     0DAA  2DAC               	goto	u3631
  5683     0DAB  07B7               	addwf	___flmul@grs+1,f
  5684     0DAC                     u3631:
  5685     0DAC  0832               	movf	??___flmul+2,w
  5686     0DAD  1103               	clrz
  5687     0DAE  1803               	skipnc
  5688     0DAF  3E01               	addlw	1
  5689     0DB0  1903               	skipnz
  5690     0DB1  2DB3               	goto	u3632
  5691     0DB2  07B8               	addwf	___flmul@grs+2,f
  5692     0DB3                     u3632:
  5693     0DB3  0833               	movf	??___flmul+3,w
  5694     0DB4  1103               	clrz
  5695     0DB5  1803               	skipnc
  5696     0DB6  3E01               	addlw	1
  5697     0DB7  1903               	skipnz
  5698     0DB8  2DBA               	goto	u3633
  5699     0DB9  07B9               	addwf	___flmul@grs+3,f
  5700     0DBA                     u3633:
  5701     0DBA                     l2696:
  5702     0DBA  0841               	movf	___flmul@temp+1,w
  5703     0DBB  00B0               	movwf	??___flmul
  5704     0DBC  01B1               	clrf	??___flmul+1
  5705     0DBD  01B2               	clrf	??___flmul+2
  5706     0DBE  01B3               	clrf	??___flmul+3
  5707     0DBF  0830               	movf	??___flmul,w
  5708     0DC0  07BC               	addwf	___flmul@prod,f
  5709     0DC1  0831               	movf	??___flmul+1,w
  5710     0DC2  1103               	clrz
  5711     0DC3  1803               	skipnc
  5712     0DC4  3E01               	addlw	1
  5713     0DC5  1903               	skipnz
  5714     0DC6  2DC8               	goto	u3641
  5715     0DC7  07BD               	addwf	___flmul@prod+1,f
  5716     0DC8                     u3641:
  5717     0DC8  0832               	movf	??___flmul+2,w
  5718     0DC9  1103               	clrz
  5719     0DCA  1803               	skipnc
  5720     0DCB  3E01               	addlw	1
  5721     0DCC  1903               	skipnz
  5722     0DCD  2DCF               	goto	u3642
  5723     0DCE  07BE               	addwf	___flmul@prod+2,f
  5724     0DCF                     u3642:
  5725     0DCF  0833               	movf	??___flmul+3,w
  5726     0DD0  1103               	clrz
  5727     0DD1  1803               	skipnc
  5728     0DD2  3E01               	addlw	1
  5729     0DD3  1903               	skipnz
  5730     0DD4  2DD6               	goto	u3643
  5731     0DD5  07BF               	addwf	___flmul@prod+3,f
  5732     0DD6                     u3643:
  5733     0DD6                     l2698:
  5734     0DD6  3008               	movlw	8
  5735     0DD7  00B0               	movwf	??___flmul
  5736     0DD8                     u3655:
  5737     0DD8  1003               	clrc
  5738     0DD9  0DB6               	rlf	___flmul@grs,f
  5739     0DDA  0DB7               	rlf	___flmul@grs+1,f
  5740     0DDB  0DB8               	rlf	___flmul@grs+2,f
  5741     0DDC  0DB9               	rlf	___flmul@grs+3,f
  5742     0DDD  0BB0               	decfsz	??___flmul,f
  5743     0DDE  2DD8               	goto	u3655
  5744     0DDF                     l2700:
  5745     0DDF  0829               	movf	___flmul@b+1,w
  5746     0DE0  00F0               	movwf	__Umul8_16@multiplicand
  5747     0DE1  082C               	movf	___flmul@a,w
  5748     0DE2  160A  158A  25E0  120A  158A  	fcall	__Umul8_16
  5749     0DE7  0871               	movf	?__Umul8_16+1,w
  5750     0DE8  1283               	bcf	3,5	;RP0=0, select bank0
  5751     0DE9  1303               	bcf	3,6	;RP1=0, select bank0
  5752     0DEA  00C1               	movwf	___flmul@temp+1
  5753     0DEB  0870               	movf	?__Umul8_16,w
  5754     0DEC  00C0               	movwf	___flmul@temp
  5755     0DED                     l2702:
  5756     0DED  0840               	movf	___flmul@temp,w
  5757     0DEE  00B0               	movwf	??___flmul
  5758     0DEF  0841               	movf	___flmul@temp+1,w
  5759     0DF0  00B1               	movwf	??___flmul+1
  5760     0DF1  01B2               	clrf	??___flmul+2
  5761     0DF2  01B3               	clrf	??___flmul+3
  5762     0DF3  0830               	movf	??___flmul,w
  5763     0DF4  07B6               	addwf	___flmul@grs,f
  5764     0DF5  0831               	movf	??___flmul+1,w
  5765     0DF6  1103               	clrz
  5766     0DF7  1803               	skipnc
  5767     0DF8  3E01               	addlw	1
  5768     0DF9  1903               	skipnz
  5769     0DFA  2DFC               	goto	u3661
  5770     0DFB  07B7               	addwf	___flmul@grs+1,f
  5771     0DFC                     u3661:
  5772     0DFC  0832               	movf	??___flmul+2,w
  5773     0DFD  1103               	clrz
  5774     0DFE  1803               	skipnc
  5775     0DFF  3E01               	addlw	1
  5776     0E00  1903               	skipnz
  5777     0E01  2E03               	goto	u3662
  5778     0E02  07B8               	addwf	___flmul@grs+2,f
  5779     0E03                     u3662:
  5780     0E03  0833               	movf	??___flmul+3,w
  5781     0E04  1103               	clrz
  5782     0E05  1803               	skipnc
  5783     0E06  3E01               	addlw	1
  5784     0E07  1903               	skipnz
  5785     0E08  2E0A               	goto	u3663
  5786     0E09  07B9               	addwf	___flmul@grs+3,f
  5787     0E0A                     u3663:
  5788     0E0A                     l2704:
  5789     0E0A  0828               	movf	___flmul@b,w
  5790     0E0B  00F0               	movwf	__Umul8_16@multiplicand
  5791     0E0C  082D               	movf	___flmul@a+1,w
  5792     0E0D  160A  158A  25E0  120A  158A  	fcall	__Umul8_16
  5793     0E12  0871               	movf	?__Umul8_16+1,w
  5794     0E13  1283               	bcf	3,5	;RP0=0, select bank0
  5795     0E14  1303               	bcf	3,6	;RP1=0, select bank0
  5796     0E15  00C1               	movwf	___flmul@temp+1
  5797     0E16  0870               	movf	?__Umul8_16,w
  5798     0E17  00C0               	movwf	___flmul@temp
  5799     0E18                     l2706:
  5800     0E18  0840               	movf	___flmul@temp,w
  5801     0E19  00B0               	movwf	??___flmul
  5802     0E1A  0841               	movf	___flmul@temp+1,w
  5803     0E1B  00B1               	movwf	??___flmul+1
  5804     0E1C  01B2               	clrf	??___flmul+2
  5805     0E1D  01B3               	clrf	??___flmul+3
  5806     0E1E  0830               	movf	??___flmul,w
  5807     0E1F  07B6               	addwf	___flmul@grs,f
  5808     0E20  0831               	movf	??___flmul+1,w
  5809     0E21  1103               	clrz
  5810     0E22  1803               	skipnc
  5811     0E23  3E01               	addlw	1
  5812     0E24  1903               	skipnz
  5813     0E25  2E27               	goto	u3671
  5814     0E26  07B7               	addwf	___flmul@grs+1,f
  5815     0E27                     u3671:
  5816     0E27  0832               	movf	??___flmul+2,w
  5817     0E28  1103               	clrz
  5818     0E29  1803               	skipnc
  5819     0E2A  3E01               	addlw	1
  5820     0E2B  1903               	skipnz
  5821     0E2C  2E2E               	goto	u3672
  5822     0E2D  07B8               	addwf	___flmul@grs+2,f
  5823     0E2E                     u3672:
  5824     0E2E  0833               	movf	??___flmul+3,w
  5825     0E2F  1103               	clrz
  5826     0E30  1803               	skipnc
  5827     0E31  3E01               	addlw	1
  5828     0E32  1903               	skipnz
  5829     0E33  2E35               	goto	u3673
  5830     0E34  07B9               	addwf	___flmul@grs+3,f
  5831     0E35                     u3673:
  5832     0E35                     l2708:
  5833     0E35  3008               	movlw	8
  5834     0E36  00B0               	movwf	??___flmul
  5835     0E37                     u3685:
  5836     0E37  1003               	clrc
  5837     0E38  0DB6               	rlf	___flmul@grs,f
  5838     0E39  0DB7               	rlf	___flmul@grs+1,f
  5839     0E3A  0DB8               	rlf	___flmul@grs+2,f
  5840     0E3B  0DB9               	rlf	___flmul@grs+3,f
  5841     0E3C  0BB0               	decfsz	??___flmul,f
  5842     0E3D  2E37               	goto	u3685
  5843     0E3E  0828               	movf	___flmul@b,w
  5844     0E3F  00F0               	movwf	__Umul8_16@multiplicand
  5845     0E40  082C               	movf	___flmul@a,w
  5846     0E41  160A  158A  25E0  120A  158A  	fcall	__Umul8_16
  5847     0E46  0871               	movf	?__Umul8_16+1,w
  5848     0E47  1283               	bcf	3,5	;RP0=0, select bank0
  5849     0E48  1303               	bcf	3,6	;RP1=0, select bank0
  5850     0E49  00C1               	movwf	___flmul@temp+1
  5851     0E4A  0870               	movf	?__Umul8_16,w
  5852     0E4B  00C0               	movwf	___flmul@temp
  5853     0E4C                     l2710:
  5854     0E4C  0840               	movf	___flmul@temp,w
  5855     0E4D  00B0               	movwf	??___flmul
  5856     0E4E  0841               	movf	___flmul@temp+1,w
  5857     0E4F  00B1               	movwf	??___flmul+1
  5858     0E50  01B2               	clrf	??___flmul+2
  5859     0E51  01B3               	clrf	??___flmul+3
  5860     0E52  0830               	movf	??___flmul,w
  5861     0E53  07B6               	addwf	___flmul@grs,f
  5862     0E54  0831               	movf	??___flmul+1,w
  5863     0E55  1103               	clrz
  5864     0E56  1803               	skipnc
  5865     0E57  3E01               	addlw	1
  5866     0E58  1903               	skipnz
  5867     0E59  2E5B               	goto	u3691
  5868     0E5A  07B7               	addwf	___flmul@grs+1,f
  5869     0E5B                     u3691:
  5870     0E5B  0832               	movf	??___flmul+2,w
  5871     0E5C  1103               	clrz
  5872     0E5D  1803               	skipnc
  5873     0E5E  3E01               	addlw	1
  5874     0E5F  1903               	skipnz
  5875     0E60  2E62               	goto	u3692
  5876     0E61  07B8               	addwf	___flmul@grs+2,f
  5877     0E62                     u3692:
  5878     0E62  0833               	movf	??___flmul+3,w
  5879     0E63  1103               	clrz
  5880     0E64  1803               	skipnc
  5881     0E65  3E01               	addlw	1
  5882     0E66  1903               	skipnz
  5883     0E67  2E69               	goto	u3693
  5884     0E68  07B9               	addwf	___flmul@grs+3,f
  5885     0E69                     u3693:
  5886     0E69                     l2712:
  5887     0E69  0829               	movf	___flmul@b+1,w
  5888     0E6A  00F0               	movwf	__Umul8_16@multiplicand
  5889     0E6B  082E               	movf	___flmul@a+2,w
  5890     0E6C  160A  158A  25E0  120A  158A  	fcall	__Umul8_16
  5891     0E71  0871               	movf	?__Umul8_16+1,w
  5892     0E72  1283               	bcf	3,5	;RP0=0, select bank0
  5893     0E73  1303               	bcf	3,6	;RP1=0, select bank0
  5894     0E74  00C1               	movwf	___flmul@temp+1
  5895     0E75  0870               	movf	?__Umul8_16,w
  5896     0E76  00C0               	movwf	___flmul@temp
  5897     0E77  0840               	movf	___flmul@temp,w
  5898     0E78  00B0               	movwf	??___flmul
  5899     0E79  0841               	movf	___flmul@temp+1,w
  5900     0E7A  00B1               	movwf	??___flmul+1
  5901     0E7B  01B2               	clrf	??___flmul+2
  5902     0E7C  01B3               	clrf	??___flmul+3
  5903     0E7D  0830               	movf	??___flmul,w
  5904     0E7E  07BC               	addwf	___flmul@prod,f
  5905     0E7F  0831               	movf	??___flmul+1,w
  5906     0E80  1103               	clrz
  5907     0E81  1803               	skipnc
  5908     0E82  3E01               	addlw	1
  5909     0E83  1903               	skipnz
  5910     0E84  2E86               	goto	u3701
  5911     0E85  07BD               	addwf	___flmul@prod+1,f
  5912     0E86                     u3701:
  5913     0E86  0832               	movf	??___flmul+2,w
  5914     0E87  1103               	clrz
  5915     0E88  1803               	skipnc
  5916     0E89  3E01               	addlw	1
  5917     0E8A  1903               	skipnz
  5918     0E8B  2E8D               	goto	u3702
  5919     0E8C  07BE               	addwf	___flmul@prod+2,f
  5920     0E8D                     u3702:
  5921     0E8D  0833               	movf	??___flmul+3,w
  5922     0E8E  1103               	clrz
  5923     0E8F  1803               	skipnc
  5924     0E90  3E01               	addlw	1
  5925     0E91  1903               	skipnz
  5926     0E92  2E94               	goto	u3703
  5927     0E93  07BF               	addwf	___flmul@prod+3,f
  5928     0E94                     u3703:
  5929     0E94                     l2714:
  5930     0E94  082A               	movf	___flmul@b+2,w
  5931     0E95  00F0               	movwf	__Umul8_16@multiplicand
  5932     0E96  082D               	movf	___flmul@a+1,w
  5933     0E97  160A  158A  25E0  120A  158A  	fcall	__Umul8_16
  5934     0E9C  0871               	movf	?__Umul8_16+1,w
  5935     0E9D  1283               	bcf	3,5	;RP0=0, select bank0
  5936     0E9E  1303               	bcf	3,6	;RP1=0, select bank0
  5937     0E9F  00C1               	movwf	___flmul@temp+1
  5938     0EA0  0870               	movf	?__Umul8_16,w
  5939     0EA1  00C0               	movwf	___flmul@temp
  5940     0EA2                     l2716:
  5941     0EA2  0840               	movf	___flmul@temp,w
  5942     0EA3  00B0               	movwf	??___flmul
  5943     0EA4  0841               	movf	___flmul@temp+1,w
  5944     0EA5  00B1               	movwf	??___flmul+1
  5945     0EA6  01B2               	clrf	??___flmul+2
  5946     0EA7  01B3               	clrf	??___flmul+3
  5947     0EA8  0830               	movf	??___flmul,w
  5948     0EA9  07BC               	addwf	___flmul@prod,f
  5949     0EAA  0831               	movf	??___flmul+1,w
  5950     0EAB  1103               	clrz
  5951     0EAC  1803               	skipnc
  5952     0EAD  3E01               	addlw	1
  5953     0EAE  1903               	skipnz
  5954     0EAF  2EB1               	goto	u3711
  5955     0EB0  07BD               	addwf	___flmul@prod+1,f
  5956     0EB1                     u3711:
  5957     0EB1  0832               	movf	??___flmul+2,w
  5958     0EB2  1103               	clrz
  5959     0EB3  1803               	skipnc
  5960     0EB4  3E01               	addlw	1
  5961     0EB5  1903               	skipnz
  5962     0EB6  2EB8               	goto	u3712
  5963     0EB7  07BE               	addwf	___flmul@prod+2,f
  5964     0EB8                     u3712:
  5965     0EB8  0833               	movf	??___flmul+3,w
  5966     0EB9  1103               	clrz
  5967     0EBA  1803               	skipnc
  5968     0EBB  3E01               	addlw	1
  5969     0EBC  1903               	skipnz
  5970     0EBD  2EBF               	goto	u3713
  5971     0EBE  07BF               	addwf	___flmul@prod+3,f
  5972     0EBF                     u3713:
  5973     0EBF  082A               	movf	___flmul@b+2,w
  5974     0EC0  00F0               	movwf	__Umul8_16@multiplicand
  5975     0EC1  082E               	movf	___flmul@a+2,w
  5976     0EC2  160A  158A  25E0  120A  158A  	fcall	__Umul8_16
  5977     0EC7  0871               	movf	?__Umul8_16+1,w
  5978     0EC8  1283               	bcf	3,5	;RP0=0, select bank0
  5979     0EC9  1303               	bcf	3,6	;RP1=0, select bank0
  5980     0ECA  00C1               	movwf	___flmul@temp+1
  5981     0ECB  0870               	movf	?__Umul8_16,w
  5982     0ECC  00C0               	movwf	___flmul@temp
  5983     0ECD                     l2718:
  5984     0ECD  0840               	movf	___flmul@temp,w
  5985     0ECE  00B0               	movwf	??___flmul
  5986     0ECF  0841               	movf	___flmul@temp+1,w
  5987     0ED0  00B1               	movwf	??___flmul+1
  5988     0ED1  01B2               	clrf	??___flmul+2
  5989     0ED2  01B3               	clrf	??___flmul+3
  5990     0ED3  3008               	movlw	8
  5991     0ED4                     u3725:
  5992     0ED4  1003               	clrc
  5993     0ED5  0DB0               	rlf	??___flmul,f
  5994     0ED6  0DB1               	rlf	??___flmul+1,f
  5995     0ED7  0DB2               	rlf	??___flmul+2,f
  5996     0ED8  0DB3               	rlf	??___flmul+3,f
  5997     0ED9                     u3720:
  5998     0ED9  3EFF               	addlw	-1
  5999     0EDA  1D03               	skipz
  6000     0EDB  2ED4               	goto	u3725
  6001     0EDC  0830               	movf	??___flmul,w
  6002     0EDD  07BC               	addwf	___flmul@prod,f
  6003     0EDE  0831               	movf	??___flmul+1,w
  6004     0EDF  1103               	clrz
  6005     0EE0  1803               	skipnc
  6006     0EE1  3E01               	addlw	1
  6007     0EE2  1903               	skipnz
  6008     0EE3  2EE5               	goto	u3731
  6009     0EE4  07BD               	addwf	___flmul@prod+1,f
  6010     0EE5                     u3731:
  6011     0EE5  0832               	movf	??___flmul+2,w
  6012     0EE6  1103               	clrz
  6013     0EE7  1803               	skipnc
  6014     0EE8  3E01               	addlw	1
  6015     0EE9  1903               	skipnz
  6016     0EEA  2EEC               	goto	u3732
  6017     0EEB  07BE               	addwf	___flmul@prod+2,f
  6018     0EEC                     u3732:
  6019     0EEC  0833               	movf	??___flmul+3,w
  6020     0EED  1103               	clrz
  6021     0EEE  1803               	skipnc
  6022     0EEF  3E01               	addlw	1
  6023     0EF0  1903               	skipnz
  6024     0EF1  2EF3               	goto	u3733
  6025     0EF2  07BF               	addwf	___flmul@prod+3,f
  6026     0EF3                     u3733:
  6027     0EF3                     l2720:
  6028     0EF3  0836               	movf	___flmul@grs,w
  6029     0EF4  00B0               	movwf	??___flmul
  6030     0EF5  0837               	movf	___flmul@grs+1,w
  6031     0EF6  00B1               	movwf	??___flmul+1
  6032     0EF7  0838               	movf	___flmul@grs+2,w
  6033     0EF8  00B2               	movwf	??___flmul+2
  6034     0EF9  0839               	movf	___flmul@grs+3,w
  6035     0EFA  00B3               	movwf	??___flmul+3
  6036     0EFB  3018               	movlw	24
  6037     0EFC                     u3745:
  6038     0EFC  1003               	clrc
  6039     0EFD  0CB3               	rrf	??___flmul+3,f
  6040     0EFE  0CB2               	rrf	??___flmul+2,f
  6041     0EFF  0CB1               	rrf	??___flmul+1,f
  6042     0F00  0CB0               	rrf	??___flmul,f
  6043     0F01                     u3740:
  6044     0F01  3EFF               	addlw	-1
  6045     0F02  1D03               	skipz
  6046     0F03  2EFC               	goto	u3745
  6047     0F04  0830               	movf	??___flmul,w
  6048     0F05  07BC               	addwf	___flmul@prod,f
  6049     0F06  0831               	movf	??___flmul+1,w
  6050     0F07  1103               	clrz
  6051     0F08  1803               	skipnc
  6052     0F09  3E01               	addlw	1
  6053     0F0A  1903               	skipnz
  6054     0F0B  2F0D               	goto	u3751
  6055     0F0C  07BD               	addwf	___flmul@prod+1,f
  6056     0F0D                     u3751:
  6057     0F0D  0832               	movf	??___flmul+2,w
  6058     0F0E  1103               	clrz
  6059     0F0F  1803               	skipnc
  6060     0F10  3E01               	addlw	1
  6061     0F11  1903               	skipnz
  6062     0F12  2F14               	goto	u3752
  6063     0F13  07BE               	addwf	___flmul@prod+2,f
  6064     0F14                     u3752:
  6065     0F14  0833               	movf	??___flmul+3,w
  6066     0F15  1103               	clrz
  6067     0F16  1803               	skipnc
  6068     0F17  3E01               	addlw	1
  6069     0F18  1903               	skipnz
  6070     0F19  2F1B               	goto	u3753
  6071     0F1A  07BF               	addwf	___flmul@prod+3,f
  6072     0F1B                     u3753:
  6073     0F1B                     l2722:
  6074     0F1B  3008               	movlw	8
  6075     0F1C  00B0               	movwf	??___flmul
  6076     0F1D                     u3765:
  6077     0F1D  1003               	clrc
  6078     0F1E  0DB6               	rlf	___flmul@grs,f
  6079     0F1F  0DB7               	rlf	___flmul@grs+1,f
  6080     0F20  0DB8               	rlf	___flmul@grs+2,f
  6081     0F21  0DB9               	rlf	___flmul@grs+3,f
  6082     0F22  0BB0               	decfsz	??___flmul,f
  6083     0F23  2F1D               	goto	u3765
  6084     0F24                     l2724:
  6085     0F24  083B               	movf	___flmul@bexp,w
  6086     0F25  073A               	addwf	___flmul@aexp,w
  6087     0F26  00B0               	movwf	??___flmul
  6088     0F27  01B1               	clrf	??___flmul+1
  6089     0F28  0DB1               	rlf	??___flmul+1,f
  6090     0F29  0830               	movf	??___flmul,w
  6091     0F2A  3E82               	addlw	130
  6092     0F2B  00C0               	movwf	___flmul@temp
  6093     0F2C  0831               	movf	??___flmul+1,w
  6094     0F2D  1803               	skipnc
  6095     0F2E  3E01               	addlw	1
  6096     0F2F  3EFF               	addlw	255
  6097     0F30  00C1               	movwf	___flmul@temp+1
  6098     0F31  2F4F               	goto	l2736
  6099     0F32                     l2726:
  6100     0F32  3001               	movlw	1
  6101     0F33  00B0               	movwf	??___flmul
  6102     0F34                     u3775:
  6103     0F34  1003               	clrc
  6104     0F35  0DBC               	rlf	___flmul@prod,f
  6105     0F36  0DBD               	rlf	___flmul@prod+1,f
  6106     0F37  0DBE               	rlf	___flmul@prod+2,f
  6107     0F38  0DBF               	rlf	___flmul@prod+3,f
  6108     0F39  0BB0               	decfsz	??___flmul,f
  6109     0F3A  2F34               	goto	u3775
  6110     0F3B                     l2728:
  6111     0F3B  1FB9               	btfss	___flmul@grs+3,7
  6112     0F3C  2F3E               	goto	u3781
  6113     0F3D  2F3F               	goto	u3780
  6114     0F3E                     u3781:
  6115     0F3E  2F40               	goto	l2732
  6116     0F3F                     u3780:
  6117     0F3F                     l2730:
  6118     0F3F  143C               	bsf	___flmul@prod,0
  6119     0F40                     l2732:
  6120     0F40  3001               	movlw	1
  6121     0F41  00B0               	movwf	??___flmul
  6122     0F42                     u3795:
  6123     0F42  1003               	clrc
  6124     0F43  0DB6               	rlf	___flmul@grs,f
  6125     0F44  0DB7               	rlf	___flmul@grs+1,f
  6126     0F45  0DB8               	rlf	___flmul@grs+2,f
  6127     0F46  0DB9               	rlf	___flmul@grs+3,f
  6128     0F47  0BB0               	decfsz	??___flmul,f
  6129     0F48  2F42               	goto	u3795
  6130     0F49                     l2734:
  6131     0F49  30FF               	movlw	255
  6132     0F4A  07C0               	addwf	___flmul@temp,f
  6133     0F4B  1803               	skipnc
  6134     0F4C  0AC1               	incf	___flmul@temp+1,f
  6135     0F4D  30FF               	movlw	255
  6136     0F4E  07C1               	addwf	___flmul@temp+1,f
  6137     0F4F                     l2736:
  6138     0F4F  1FBE               	btfss	___flmul@prod+2,7
  6139     0F50  2F52               	goto	u3801
  6140     0F51  2F53               	goto	u3800
  6141     0F52                     u3801:
  6142     0F52  2F32               	goto	l2726
  6143     0F53                     u3800:
  6144     0F53                     l2738:
  6145     0F53  01BA               	clrf	___flmul@aexp
  6146     0F54                     l2740:
  6147     0F54  1FB9               	btfss	___flmul@grs+3,7
  6148     0F55  2F57               	goto	u3811
  6149     0F56  2F58               	goto	u3810
  6150     0F57                     u3811:
  6151     0F57  2F74               	goto	l2748
  6152     0F58                     u3810:
  6153     0F58                     l2742:
  6154     0F58  30FF               	movlw	255
  6155     0F59  0536               	andwf	___flmul@grs,w
  6156     0F5A  00B0               	movwf	??___flmul
  6157     0F5B  30FF               	movlw	255
  6158     0F5C  0537               	andwf	___flmul@grs+1,w
  6159     0F5D  00B1               	movwf	??___flmul+1
  6160     0F5E  30FF               	movlw	255
  6161     0F5F  0538               	andwf	___flmul@grs+2,w
  6162     0F60  00B2               	movwf	??___flmul+2
  6163     0F61  307F               	movlw	127
  6164     0F62  0539               	andwf	___flmul@grs+3,w
  6165     0F63  00B3               	movwf	??___flmul+3
  6166     0F64  0833               	movf	??___flmul+3,w
  6167     0F65  0432               	iorwf	??___flmul+2,w
  6168     0F66  0431               	iorwf	??___flmul+1,w
  6169     0F67  0430               	iorwf	??___flmul,w
  6170     0F68  1903               	skipnz
  6171     0F69  2F6B               	goto	u3821
  6172     0F6A  2F6C               	goto	u3820
  6173     0F6B                     u3821:
  6174     0F6B  2F6F               	goto	l625
  6175     0F6C                     u3820:
  6176     0F6C                     l2744:
  6177     0F6C  01BA               	clrf	___flmul@aexp
  6178     0F6D  0ABA               	incf	___flmul@aexp,f
  6179     0F6E  2F74               	goto	l2748
  6180     0F6F                     l625:
  6181     0F6F  1C3C               	btfss	___flmul@prod,0
  6182     0F70  2F72               	goto	u3831
  6183     0F71  2F73               	goto	u3830
  6184     0F72                     u3831:
  6185     0F72  2F74               	goto	l2748
  6186     0F73                     u3830:
  6187     0F73  2F6C               	goto	l2744
  6188     0F74                     l2748:
  6189     0F74  083A               	movf	___flmul@aexp,w
  6190     0F75  1903               	btfsc	3,2
  6191     0F76  2F78               	goto	u3841
  6192     0F77  2F79               	goto	u3840
  6193     0F78                     u3841:
  6194     0F78  2FAA               	goto	l2758
  6195     0F79                     u3840:
  6196     0F79                     l2750:
  6197     0F79  3001               	movlw	1
  6198     0F7A  07BC               	addwf	___flmul@prod,f
  6199     0F7B  3000               	movlw	0
  6200     0F7C  1803               	skipnc
  6201     0F7D  3001               	movlw	1
  6202     0F7E  07BD               	addwf	___flmul@prod+1,f
  6203     0F7F  3000               	movlw	0
  6204     0F80  1803               	skipnc
  6205     0F81  3001               	movlw	1
  6206     0F82  07BE               	addwf	___flmul@prod+2,f
  6207     0F83  3000               	movlw	0
  6208     0F84  1803               	skipnc
  6209     0F85  3001               	movlw	1
  6210     0F86  07BF               	addwf	___flmul@prod+3,f
  6211     0F87                     l2752:
  6212     0F87  1C3F               	btfss	___flmul@prod+3,0
  6213     0F88  2F8A               	goto	u3851
  6214     0F89  2F8B               	goto	u3850
  6215     0F8A                     u3851:
  6216     0F8A  2FAA               	goto	l2758
  6217     0F8B                     u3850:
  6218     0F8B                     l2754:
  6219     0F8B  083C               	movf	___flmul@prod,w
  6220     0F8C  00B0               	movwf	??___flmul
  6221     0F8D  083D               	movf	___flmul@prod+1,w
  6222     0F8E  00B1               	movwf	??___flmul+1
  6223     0F8F  083E               	movf	___flmul@prod+2,w
  6224     0F90  00B2               	movwf	??___flmul+2
  6225     0F91  083F               	movf	___flmul@prod+3,w
  6226     0F92  00B3               	movwf	??___flmul+3
  6227     0F93  3001               	movlw	1
  6228     0F94  00B4               	movwf	??___flmul+4
  6229     0F95                     u3865:
  6230     0F95  0D33               	rlf	??___flmul+3,w
  6231     0F96  0CB3               	rrf	??___flmul+3,f
  6232     0F97  0CB2               	rrf	??___flmul+2,f
  6233     0F98  0CB1               	rrf	??___flmul+1,f
  6234     0F99  0CB0               	rrf	??___flmul,f
  6235     0F9A                     u3860:
  6236     0F9A  0BB4               	decfsz	??___flmul+4,f
  6237     0F9B  2F95               	goto	u3865
  6238     0F9C  0833               	movf	??___flmul+3,w
  6239     0F9D  00BF               	movwf	___flmul@prod+3
  6240     0F9E  0832               	movf	??___flmul+2,w
  6241     0F9F  00BE               	movwf	___flmul@prod+2
  6242     0FA0  0831               	movf	??___flmul+1,w
  6243     0FA1  00BD               	movwf	___flmul@prod+1
  6244     0FA2  0830               	movf	??___flmul,w
  6245     0FA3  00BC               	movwf	___flmul@prod
  6246     0FA4                     l2756:
  6247     0FA4  3001               	movlw	1
  6248     0FA5  07C0               	addwf	___flmul@temp,f
  6249     0FA6  1803               	skipnc
  6250     0FA7  0AC1               	incf	___flmul@temp+1,f
  6251     0FA8  3000               	movlw	0
  6252     0FA9  07C1               	addwf	___flmul@temp+1,f
  6253     0FAA                     l2758:
  6254     0FAA  0841               	movf	___flmul@temp+1,w
  6255     0FAB  3A80               	xorlw	128
  6256     0FAC  00FF               	movwf	btemp+1
  6257     0FAD  3080               	movlw	128
  6258     0FAE  027F               	subwf	btemp+1,w
  6259     0FAF  1D03               	skipz
  6260     0FB0  2FB3               	goto	u3875
  6261     0FB1  30FF               	movlw	255
  6262     0FB2  0240               	subwf	___flmul@temp,w
  6263     0FB3                     u3875:
  6264     0FB3  1C03               	skipc
  6265     0FB4  2FB6               	goto	u3871
  6266     0FB5  2FB7               	goto	u3870
  6267     0FB6                     u3871:
  6268     0FB6  2FC2               	goto	l2762
  6269     0FB7                     u3870:
  6270     0FB7                     l2760:
  6271     0FB7  307F               	movlw	127
  6272     0FB8  1283               	bcf	3,5	;RP0=0, select bank0
  6273     0FB9  1303               	bcf	3,6	;RP1=0, select bank0
  6274     0FBA  00BF               	movwf	___flmul@prod+3
  6275     0FBB  3080               	movlw	128
  6276     0FBC  00BE               	movwf	___flmul@prod+2
  6277     0FBD  3000               	movlw	0
  6278     0FBE  00BD               	movwf	___flmul@prod+1
  6279     0FBF  3000               	movlw	0
  6280     0FC0  00BC               	movwf	___flmul@prod
  6281     0FC1  2FF3               	goto	l2776
  6282     0FC2                     l2762:
  6283     0FC2  1283               	bcf	3,5	;RP0=0, select bank0
  6284     0FC3  1303               	bcf	3,6	;RP1=0, select bank0
  6285     0FC4  0841               	movf	___flmul@temp+1,w
  6286     0FC5  3A80               	xorlw	128
  6287     0FC6  00FF               	movwf	btemp+1
  6288     0FC7  3080               	movlw	128
  6289     0FC8  027F               	subwf	btemp+1,w
  6290     0FC9  1D03               	skipz
  6291     0FCA  2FCD               	goto	u3885
  6292     0FCB  3001               	movlw	1
  6293     0FCC  0240               	subwf	___flmul@temp,w
  6294     0FCD                     u3885:
  6295     0FCD  1803               	skipnc
  6296     0FCE  2FD0               	goto	u3881
  6297     0FCF  2FD1               	goto	u3880
  6298     0FD0                     u3881:
  6299     0FD0  2FDD               	goto	l2768
  6300     0FD1                     u3880:
  6301     0FD1                     l2764:
  6302     0FD1  3000               	movlw	0
  6303     0FD2  1283               	bcf	3,5	;RP0=0, select bank0
  6304     0FD3  1303               	bcf	3,6	;RP1=0, select bank0
  6305     0FD4  00BF               	movwf	___flmul@prod+3
  6306     0FD5  3000               	movlw	0
  6307     0FD6  00BE               	movwf	___flmul@prod+2
  6308     0FD7  3000               	movlw	0
  6309     0FD8  00BD               	movwf	___flmul@prod+1
  6310     0FD9  3000               	movlw	0
  6311     0FDA  00BC               	movwf	___flmul@prod
  6312     0FDB                     l2766:
  6313     0FDB  01B5               	clrf	___flmul@sign
  6314     0FDC  2FF3               	goto	l2776
  6315     0FDD                     l2768:
  6316     0FDD  1283               	bcf	3,5	;RP0=0, select bank0
  6317     0FDE  1303               	bcf	3,6	;RP1=0, select bank0
  6318     0FDF  0840               	movf	___flmul@temp,w
  6319     0FE0  00BB               	movwf	___flmul@bexp
  6320     0FE1  30FF               	movlw	255
  6321     0FE2  05BC               	andwf	___flmul@prod,f
  6322     0FE3  30FF               	movlw	255
  6323     0FE4  05BD               	andwf	___flmul@prod+1,f
  6324     0FE5  307F               	movlw	127
  6325     0FE6  05BE               	andwf	___flmul@prod+2,f
  6326     0FE7  3000               	movlw	0
  6327     0FE8  05BF               	andwf	___flmul@prod+3,f
  6328     0FE9                     l2770:
  6329     0FE9  1C3B               	btfss	___flmul@bexp,0
  6330     0FEA  2FEC               	goto	u3891
  6331     0FEB  2FED               	goto	u3890
  6332     0FEC                     u3891:
  6333     0FEC  2FEE               	goto	l2774
  6334     0FED                     u3890:
  6335     0FED                     l2772:
  6336     0FED  17BE               	bsf	___flmul@prod+2,7
  6337     0FEE                     l2774:
  6338     0FEE  083B               	movf	___flmul@bexp,w
  6339     0FEF  00B0               	movwf	??___flmul
  6340     0FF0  1003               	clrc
  6341     0FF1  0C30               	rrf	??___flmul,w
  6342     0FF2  00BF               	movwf	___flmul@prod+3
  6343     0FF3                     l2776:
  6344     0FF3  0835               	movf	___flmul@sign,w
  6345     0FF4  00FF               	movwf	btemp+1
  6346     0FF5  087F               	movf	btemp+1,w
  6347     0FF6  04BF               	iorwf	___flmul@prod+3,f
  6348     0FF7                     l2778:
  6349     0FF7  083F               	movf	___flmul@prod+3,w
  6350     0FF8  00AB               	movwf	?___flmul+3
  6351     0FF9  083E               	movf	___flmul@prod+2,w
  6352     0FFA  00AA               	movwf	?___flmul+2
  6353     0FFB  083D               	movf	___flmul@prod+1,w
  6354     0FFC  00A9               	movwf	?___flmul+1
  6355     0FFD  083C               	movf	___flmul@prod,w
  6356     0FFE  00A8               	movwf	?___flmul
  6357     0FFF                     l619:
  6358     0FFF  0008               	return
  6359     1000                     __end_of___flmul:
  6360                           
  6361                           	psect	text21
  6362     1DE0                     __ptext21:	
  6363 ;; *************** function __Umul8_16 *****************
  6364 ;; Defined at:
  6365 ;;		line 4 in file "C:\Program Files\Microchip\xc8\v2.46\pic\sources\c99\common\Umul8_16.c"
  6366 ;; Parameters:    Size  Location     Type
  6367 ;;  multiplier      1    wreg     unsigned char 
  6368 ;;  multiplicand    1    0[COMMON] unsigned char 
  6369 ;; Auto vars:     Size  Location     Type
  6370 ;;  multiplier      1    8[COMMON] unsigned char 
  6371 ;;  word_mpld       2    6[COMMON] unsigned short 
  6372 ;;  product         2    4[COMMON] unsigned short 
  6373 ;; Return value:  Size  Location     Type
  6374 ;;                  2    0[COMMON] unsigned int 
  6375 ;; Registers used:
  6376 ;;		wreg, status,2, status,0
  6377 ;; Tracked objects:
  6378 ;;		On entry : 0/0
  6379 ;;		On exit  : 0/0
  6380 ;;		Unchanged: 0/0
  6381 ;; Data sizes:     COMMON   BANK0   BANK1   BANK3   BANK2
  6382 ;;      Params:         2       0       0       0       0
  6383 ;;      Locals:         5       0       0       0       0
  6384 ;;      Temps:          2       0       0       0       0
  6385 ;;      Totals:         9       0       0       0       0
  6386 ;;Total ram usage:        9 bytes
  6387 ;; Hardware stack levels used: 1
  6388 ;; This function calls:
  6389 ;;		Nothing
  6390 ;; This function is called by:
  6391 ;;		___flmul
  6392 ;; This function uses a non-reentrant model
  6393 ;;
  6394                           
  6395     1DE0                     __Umul8_16:	
  6396                           ;psect for function __Umul8_16
  6397                           
  6398                           
  6399                           ;incstack = 0
  6400                           ; Regs used in __Umul8_16: [wreg+status,2+status,0]
  6401                           ;__Umul8_16@multiplier stored from wreg
  6402     1DE0  00F8               	movwf	__Umul8_16@multiplier
  6403     1DE1                     l2374:
  6404     1DE1  01F4               	clrf	__Umul8_16@product
  6405     1DE2  01F5               	clrf	__Umul8_16@product+1
  6406     1DE3                     l2376:
  6407     1DE3  0870               	movf	__Umul8_16@multiplicand,w
  6408     1DE4  00F2               	movwf	??__Umul8_16
  6409     1DE5  01F3               	clrf	??__Umul8_16+1
  6410     1DE6  0872               	movf	??__Umul8_16,w
  6411     1DE7  00F6               	movwf	__Umul8_16@word_mpld
  6412     1DE8  0873               	movf	??__Umul8_16+1,w
  6413     1DE9  00F7               	movwf	__Umul8_16@word_mpld+1
  6414     1DEA                     l2378:
  6415     1DEA  1C78               	btfss	__Umul8_16@multiplier,0
  6416     1DEB  2DED               	goto	u2951
  6417     1DEC  2DEE               	goto	u2950
  6418     1DED                     u2951:
  6419     1DED  2DF4               	goto	l638
  6420     1DEE                     u2950:
  6421     1DEE                     l2380:
  6422     1DEE  0876               	movf	__Umul8_16@word_mpld,w
  6423     1DEF  07F4               	addwf	__Umul8_16@product,f
  6424     1DF0  1803               	skipnc
  6425     1DF1  0AF5               	incf	__Umul8_16@product+1,f
  6426     1DF2  0877               	movf	__Umul8_16@word_mpld+1,w
  6427     1DF3  07F5               	addwf	__Umul8_16@product+1,f
  6428     1DF4                     l638:
  6429     1DF4  3001               	movlw	1
  6430     1DF5                     u2965:
  6431     1DF5  1003               	clrc
  6432     1DF6  0DF6               	rlf	__Umul8_16@word_mpld,f
  6433     1DF7  0DF7               	rlf	__Umul8_16@word_mpld+1,f
  6434     1DF8  3EFF               	addlw	-1
  6435     1DF9  1D03               	skipz
  6436     1DFA  2DF5               	goto	u2965
  6437     1DFB  1003               	clrc
  6438     1DFC  0CF8               	rrf	__Umul8_16@multiplier,f
  6439     1DFD                     l2382:
  6440     1DFD  0878               	movf	__Umul8_16@multiplier,w
  6441     1DFE  1D03               	btfss	3,2
  6442     1DFF  2E01               	goto	u2971
  6443     1E00  2E02               	goto	u2970
  6444     1E01                     u2971:
  6445     1E01  2DEA               	goto	l2378
  6446     1E02                     u2970:
  6447     1E02                     l2384:
  6448     1E02  0875               	movf	__Umul8_16@product+1,w
  6449     1E03  00F1               	movwf	?__Umul8_16+1
  6450     1E04  0874               	movf	__Umul8_16@product,w
  6451     1E05  00F0               	movwf	?__Umul8_16
  6452     1E06                     l640:
  6453     1E06  0008               	return
  6454     1E07                     __end_of__Umul8_16:
  6455                           
  6456                           	psect	text22
  6457     11C9                     __ptext22:	
  6458 ;; *************** function ___flge *****************
  6459 ;; Defined at:
  6460 ;;		line 4 in file "C:\Program Files\Microchip\xc8\v2.46\pic\sources\c99\common\flge.c"
  6461 ;; Parameters:    Size  Location     Type
  6462 ;;  ff1             4   34[BANK0 ] unsigned int 
  6463 ;;  ff2             4   38[BANK0 ] unsigned int 
  6464 ;; Auto vars:     Size  Location     Type
  6465 ;;		None
  6466 ;; Return value:  Size  Location     Type
  6467 ;;		None               void
  6468 ;; Registers used:
  6469 ;;		wreg, status,2, status,0
  6470 ;; Tracked objects:
  6471 ;;		On entry : 0/0
  6472 ;;		On exit  : 0/0
  6473 ;;		Unchanged: 0/0
  6474 ;; Data sizes:     COMMON   BANK0   BANK1   BANK3   BANK2
  6475 ;;      Params:         0       8       0       0       0
  6476 ;;      Locals:         0       0       0       0       0
  6477 ;;      Temps:          0       4       0       0       0
  6478 ;;      Totals:         0      12       0       0       0
  6479 ;;Total ram usage:       12 bytes
  6480 ;; Hardware stack levels used: 1
  6481 ;; This function calls:
  6482 ;;		Nothing
  6483 ;; This function is called by:
  6484 ;;		_main
  6485 ;;		_efgtoa
  6486 ;; This function uses a non-reentrant model
  6487 ;;
  6488                           
  6489     11C9                     ___flge:	
  6490                           ;psect for function ___flge
  6491                           
  6492     11C9                     l2422:	
  6493                           ;incstack = 0
  6494                           ; Regs used in ___flge: [wreg+status,2+status,0]
  6495                           
  6496     11C9  3000               	movlw	0
  6497     11CA  1283               	bcf	3,5	;RP0=0, select bank0
  6498     11CB  1303               	bcf	3,6	;RP1=0, select bank0
  6499     11CC  0542               	andwf	___flge@ff1,w
  6500     11CD  00CA               	movwf	??___flge
  6501     11CE  3000               	movlw	0
  6502     11CF  0543               	andwf	___flge@ff1+1,w
  6503     11D0  00CB               	movwf	??___flge+1
  6504     11D1  3080               	movlw	128
  6505     11D2  0544               	andwf	___flge@ff1+2,w
  6506     11D3  00CC               	movwf	??___flge+2
  6507     11D4  307F               	movlw	127
  6508     11D5  0545               	andwf	___flge@ff1+3,w
  6509     11D6  00CD               	movwf	??___flge+3
  6510     11D7  084D               	movf	??___flge+3,w
  6511     11D8  044C               	iorwf	??___flge+2,w
  6512     11D9  044B               	iorwf	??___flge+1,w
  6513     11DA  044A               	iorwf	??___flge,w
  6514     11DB  1D03               	skipz
  6515     11DC  29DE               	goto	u3061
  6516     11DD  29DF               	goto	u3060
  6517     11DE                     u3061:
  6518     11DE  29E7               	goto	l400
  6519     11DF                     u3060:
  6520     11DF                     l2424:
  6521     11DF  3000               	movlw	0
  6522     11E0  00C5               	movwf	___flge@ff1+3
  6523     11E1  3000               	movlw	0
  6524     11E2  00C4               	movwf	___flge@ff1+2
  6525     11E3  3000               	movlw	0
  6526     11E4  00C3               	movwf	___flge@ff1+1
  6527     11E5  3000               	movlw	0
  6528     11E6  00C2               	movwf	___flge@ff1
  6529     11E7                     l400:
  6530     11E7  3000               	movlw	0
  6531     11E8  0546               	andwf	___flge@ff2,w
  6532     11E9  00CA               	movwf	??___flge
  6533     11EA  3000               	movlw	0
  6534     11EB  0547               	andwf	___flge@ff2+1,w
  6535     11EC  00CB               	movwf	??___flge+1
  6536     11ED  3080               	movlw	128
  6537     11EE  0548               	andwf	___flge@ff2+2,w
  6538     11EF  00CC               	movwf	??___flge+2
  6539     11F0  307F               	movlw	127
  6540     11F1  0549               	andwf	___flge@ff2+3,w
  6541     11F2  00CD               	movwf	??___flge+3
  6542     11F3  084D               	movf	??___flge+3,w
  6543     11F4  044C               	iorwf	??___flge+2,w
  6544     11F5  044B               	iorwf	??___flge+1,w
  6545     11F6  044A               	iorwf	??___flge,w
  6546     11F7  1D03               	skipz
  6547     11F8  29FA               	goto	u3071
  6548     11F9  29FB               	goto	u3070
  6549     11FA                     u3071:
  6550     11FA  2A03               	goto	l2428
  6551     11FB                     u3070:
  6552     11FB                     l2426:
  6553     11FB  3000               	movlw	0
  6554     11FC  00C9               	movwf	___flge@ff2+3
  6555     11FD  3000               	movlw	0
  6556     11FE  00C8               	movwf	___flge@ff2+2
  6557     11FF  3000               	movlw	0
  6558     1200  00C7               	movwf	___flge@ff2+1
  6559     1201  3000               	movlw	0
  6560     1202  00C6               	movwf	___flge@ff2
  6561     1203                     l2428:
  6562     1203  1FC5               	btfss	___flge@ff1+3,7
  6563     1204  2A06               	goto	u3081
  6564     1205  2A07               	goto	u3080
  6565     1206                     u3081:
  6566     1206  2A2B               	goto	l2432
  6567     1207                     u3080:
  6568     1207                     l2430:
  6569     1207  3000               	movlw	0
  6570     1208  00CA               	movwf	??___flge
  6571     1209  3000               	movlw	0
  6572     120A  00CB               	movwf	??___flge+1
  6573     120B  3000               	movlw	0
  6574     120C  00CC               	movwf	??___flge+2
  6575     120D  3080               	movlw	128
  6576     120E  00CD               	movwf	??___flge+3
  6577     120F  0842               	movf	___flge@ff1,w
  6578     1210  02CA               	subwf	??___flge,f
  6579     1211  0843               	movf	___flge@ff1+1,w
  6580     1212  1C03               	skipc
  6581     1213  0F43               	incfsz	___flge@ff1+1,w
  6582     1214  2A16               	goto	u3091
  6583     1215  2A17               	goto	u3092
  6584     1216                     u3091:
  6585     1216  02CB               	subwf	??___flge+1,f
  6586     1217                     u3092:
  6587     1217  0844               	movf	___flge@ff1+2,w
  6588     1218  1C03               	skipc
  6589     1219  0F44               	incfsz	___flge@ff1+2,w
  6590     121A  2A1C               	goto	u3093
  6591     121B  2A1D               	goto	u3094
  6592     121C                     u3093:
  6593     121C  02CC               	subwf	??___flge+2,f
  6594     121D                     u3094:
  6595     121D  0845               	movf	___flge@ff1+3,w
  6596     121E  1C03               	skipc
  6597     121F  0F45               	incfsz	___flge@ff1+3,w
  6598     1220  2A22               	goto	u3095
  6599     1221  2A23               	goto	u3096
  6600     1222                     u3095:
  6601     1222  02CD               	subwf	??___flge+3,f
  6602     1223                     u3096:
  6603     1223  084D               	movf	??___flge+3,w
  6604     1224  00C5               	movwf	___flge@ff1+3
  6605     1225  084C               	movf	??___flge+2,w
  6606     1226  00C4               	movwf	___flge@ff1+2
  6607     1227  084B               	movf	??___flge+1,w
  6608     1228  00C3               	movwf	___flge@ff1+1
  6609     1229  084A               	movf	??___flge,w
  6610     122A  00C2               	movwf	___flge@ff1
  6611     122B                     l2432:
  6612     122B  1FC9               	btfss	___flge@ff2+3,7
  6613     122C  2A2E               	goto	u3101
  6614     122D  2A2F               	goto	u3100
  6615     122E                     u3101:
  6616     122E  2A53               	goto	l403
  6617     122F                     u3100:
  6618     122F                     l2434:
  6619     122F  3000               	movlw	0
  6620     1230  00CA               	movwf	??___flge
  6621     1231  3000               	movlw	0
  6622     1232  00CB               	movwf	??___flge+1
  6623     1233  3000               	movlw	0
  6624     1234  00CC               	movwf	??___flge+2
  6625     1235  3080               	movlw	128
  6626     1236  00CD               	movwf	??___flge+3
  6627     1237  0846               	movf	___flge@ff2,w
  6628     1238  02CA               	subwf	??___flge,f
  6629     1239  0847               	movf	___flge@ff2+1,w
  6630     123A  1C03               	skipc
  6631     123B  0F47               	incfsz	___flge@ff2+1,w
  6632     123C  2A3E               	goto	u3111
  6633     123D  2A3F               	goto	u3112
  6634     123E                     u3111:
  6635     123E  02CB               	subwf	??___flge+1,f
  6636     123F                     u3112:
  6637     123F  0848               	movf	___flge@ff2+2,w
  6638     1240  1C03               	skipc
  6639     1241  0F48               	incfsz	___flge@ff2+2,w
  6640     1242  2A44               	goto	u3113
  6641     1243  2A45               	goto	u3114
  6642     1244                     u3113:
  6643     1244  02CC               	subwf	??___flge+2,f
  6644     1245                     u3114:
  6645     1245  0849               	movf	___flge@ff2+3,w
  6646     1246  1C03               	skipc
  6647     1247  0F49               	incfsz	___flge@ff2+3,w
  6648     1248  2A4A               	goto	u3115
  6649     1249  2A4B               	goto	u3116
  6650     124A                     u3115:
  6651     124A  02CD               	subwf	??___flge+3,f
  6652     124B                     u3116:
  6653     124B  084D               	movf	??___flge+3,w
  6654     124C  00C9               	movwf	___flge@ff2+3
  6655     124D  084C               	movf	??___flge+2,w
  6656     124E  00C8               	movwf	___flge@ff2+2
  6657     124F  084B               	movf	??___flge+1,w
  6658     1250  00C7               	movwf	___flge@ff2+1
  6659     1251  084A               	movf	??___flge,w
  6660     1252  00C6               	movwf	___flge@ff2
  6661     1253                     l403:
  6662     1253  3080               	movlw	128
  6663     1254  06C5               	xorwf	___flge@ff1+3,f
  6664     1255  3080               	movlw	128
  6665     1256  06C9               	xorwf	___flge@ff2+3,f
  6666     1257  0849               	movf	___flge@ff2+3,w
  6667     1258  0245               	subwf	___flge@ff1+3,w
  6668     1259  1D03               	skipz
  6669     125A  2A65               	goto	u3125
  6670     125B  0848               	movf	___flge@ff2+2,w
  6671     125C  0244               	subwf	___flge@ff1+2,w
  6672     125D  1D03               	skipz
  6673     125E  2A65               	goto	u3125
  6674     125F  0847               	movf	___flge@ff2+1,w
  6675     1260  0243               	subwf	___flge@ff1+1,w
  6676     1261  1D03               	skipz
  6677     1262  2A65               	goto	u3125
  6678     1263  0846               	movf	___flge@ff2,w
  6679     1264  0242               	subwf	___flge@ff1,w
  6680     1265                     u3125:
  6681     1265  1803               	skipnc
  6682     1266  2A68               	goto	u3121
  6683     1267  2A69               	goto	u3120
  6684     1268                     u3121:
  6685     1268  2A6B               	goto	l2438
  6686     1269                     u3120:
  6687     1269                     l2436:
  6688     1269  1003               	clrc
  6689     126A  2A6C               	goto	l408
  6690     126B                     l2438:
  6691     126B  1403               	setc
  6692     126C                     l408:
  6693     126C  0008               	return
  6694     126D                     __end_of___flge:
  6695                           
  6696                           	psect	text23
  6697     1EAD                     __ptext23:	
  6698 ;; *************** function ___fleq *****************
  6699 ;; Defined at:
  6700 ;;		line 4 in file "C:\Program Files\Microchip\xc8\v2.46\pic\sources\c99\common\fleq.c"
  6701 ;; Parameters:    Size  Location     Type
  6702 ;;  ff1             4    0[COMMON] unsigned int 
  6703 ;;  ff2             4    4[COMMON] unsigned int 
  6704 ;; Auto vars:     Size  Location     Type
  6705 ;;		None
  6706 ;; Return value:  Size  Location     Type
  6707 ;;		None               void
  6708 ;; Registers used:
  6709 ;;		wreg, status,2, status,0
  6710 ;; Tracked objects:
  6711 ;;		On entry : 0/0
  6712 ;;		On exit  : 0/0
  6713 ;;		Unchanged: 0/0
  6714 ;; Data sizes:     COMMON   BANK0   BANK1   BANK3   BANK2
  6715 ;;      Params:         8       0       0       0       0
  6716 ;;      Locals:         0       0       0       0       0
  6717 ;;      Temps:          4       0       0       0       0
  6718 ;;      Totals:        12       0       0       0       0
  6719 ;;Total ram usage:       12 bytes
  6720 ;; Hardware stack levels used: 1
  6721 ;; This function calls:
  6722 ;;		Nothing
  6723 ;; This function is called by:
  6724 ;;		_efgtoa
  6725 ;; This function uses a non-reentrant model
  6726 ;;
  6727                           
  6728     1EAD                     ___fleq:	
  6729                           ;psect for function ___fleq
  6730                           
  6731     1EAD                     l2410:	
  6732                           ;incstack = 0
  6733                           ; Regs used in ___fleq: [wreg+status,2+status,0]
  6734                           
  6735     1EAD  3000               	movlw	0
  6736     1EAE  0570               	andwf	___fleq@ff1,w
  6737     1EAF  00F8               	movwf	??___fleq
  6738     1EB0  3000               	movlw	0
  6739     1EB1  0571               	andwf	___fleq@ff1+1,w
  6740     1EB2  00F9               	movwf	??___fleq+1
  6741     1EB3  3080               	movlw	128
  6742     1EB4  0572               	andwf	___fleq@ff1+2,w
  6743     1EB5  00FA               	movwf	??___fleq+2
  6744     1EB6  307F               	movlw	127
  6745     1EB7  0573               	andwf	___fleq@ff1+3,w
  6746     1EB8  00FB               	movwf	??___fleq+3
  6747     1EB9  087B               	movf	??___fleq+3,w
  6748     1EBA  047A               	iorwf	??___fleq+2,w
  6749     1EBB  0479               	iorwf	??___fleq+1,w
  6750     1EBC  0478               	iorwf	??___fleq,w
  6751     1EBD  1D03               	skipz
  6752     1EBE  2EC0               	goto	u3031
  6753     1EBF  2EC1               	goto	u3030
  6754     1EC0                     u3031:
  6755     1EC0  2EC9               	goto	l391
  6756     1EC1                     u3030:
  6757     1EC1                     l2412:
  6758     1EC1  3000               	movlw	0
  6759     1EC2  00F3               	movwf	___fleq@ff1+3
  6760     1EC3  3000               	movlw	0
  6761     1EC4  00F2               	movwf	___fleq@ff1+2
  6762     1EC5  3000               	movlw	0
  6763     1EC6  00F1               	movwf	___fleq@ff1+1
  6764     1EC7  3000               	movlw	0
  6765     1EC8  00F0               	movwf	___fleq@ff1
  6766     1EC9                     l391:
  6767     1EC9  3000               	movlw	0
  6768     1ECA  0574               	andwf	___fleq@ff2,w
  6769     1ECB  00F8               	movwf	??___fleq
  6770     1ECC  3000               	movlw	0
  6771     1ECD  0575               	andwf	___fleq@ff2+1,w
  6772     1ECE  00F9               	movwf	??___fleq+1
  6773     1ECF  3080               	movlw	128
  6774     1ED0  0576               	andwf	___fleq@ff2+2,w
  6775     1ED1  00FA               	movwf	??___fleq+2
  6776     1ED2  307F               	movlw	127
  6777     1ED3  0577               	andwf	___fleq@ff2+3,w
  6778     1ED4  00FB               	movwf	??___fleq+3
  6779     1ED5  087B               	movf	??___fleq+3,w
  6780     1ED6  047A               	iorwf	??___fleq+2,w
  6781     1ED7  0479               	iorwf	??___fleq+1,w
  6782     1ED8  0478               	iorwf	??___fleq,w
  6783     1ED9  1D03               	skipz
  6784     1EDA  2EDC               	goto	u3041
  6785     1EDB  2EDD               	goto	u3040
  6786     1EDC                     u3041:
  6787     1EDC  2EE5               	goto	l392
  6788     1EDD                     u3040:
  6789     1EDD                     l2414:
  6790     1EDD  3000               	movlw	0
  6791     1EDE  00F7               	movwf	___fleq@ff2+3
  6792     1EDF  3000               	movlw	0
  6793     1EE0  00F6               	movwf	___fleq@ff2+2
  6794     1EE1  3000               	movlw	0
  6795     1EE2  00F5               	movwf	___fleq@ff2+1
  6796     1EE3  3000               	movlw	0
  6797     1EE4  00F4               	movwf	___fleq@ff2
  6798     1EE5                     l392:
  6799     1EE5  0877               	movf	___fleq@ff2+3,w
  6800     1EE6  0673               	xorwf	___fleq@ff1+3,w
  6801     1EE7  1D03               	skipz
  6802     1EE8  2EF3               	goto	u3055
  6803     1EE9  0876               	movf	___fleq@ff2+2,w
  6804     1EEA  0672               	xorwf	___fleq@ff1+2,w
  6805     1EEB  1D03               	skipz
  6806     1EEC  2EF3               	goto	u3055
  6807     1EED  0875               	movf	___fleq@ff2+1,w
  6808     1EEE  0671               	xorwf	___fleq@ff1+1,w
  6809     1EEF  1D03               	skipz
  6810     1EF0  2EF3               	goto	u3055
  6811     1EF1  0874               	movf	___fleq@ff2,w
  6812     1EF2  0670               	xorwf	___fleq@ff1,w
  6813     1EF3                     u3055:
  6814     1EF3  1903               	skipnz
  6815     1EF4  2EF6               	goto	u3051
  6816     1EF5  2EF7               	goto	u3050
  6817     1EF6                     u3051:
  6818     1EF6  2EF9               	goto	l2418
  6819     1EF7                     u3050:
  6820     1EF7                     l2416:
  6821     1EF7  1003               	clrc
  6822     1EF8  2EFA               	goto	l397
  6823     1EF9                     l2418:
  6824     1EF9  1403               	setc
  6825     1EFA                     l397:
  6826     1EFA  0008               	return
  6827     1EFB                     __end_of___fleq:
  6828                           
  6829                           	psect	text24
  6830     086E                     __ptext24:	
  6831 ;; *************** function ___fldiv *****************
  6832 ;; Defined at:
  6833 ;;		line 8 in file "C:\Program Files\Microchip\xc8\v2.46\pic\sources\c99\common\sprcdiv.c"
  6834 ;; Parameters:    Size  Location     Type
  6835 ;;  a               4   34[BANK0 ] unsigned int 
  6836 ;;  b               4   38[BANK0 ] unsigned int 
  6837 ;; Auto vars:     Size  Location     Type
  6838 ;;  grs             4   54[BANK0 ] unsigned long 
  6839 ;;  rem             4   47[BANK0 ] unsigned long 
  6840 ;;  new_exp         2   52[BANK0 ] short 
  6841 ;;  aexp            1   59[BANK0 ] unsigned char 
  6842 ;;  bexp            1   58[BANK0 ] unsigned char 
  6843 ;;  sign            1   51[BANK0 ] unsigned char 
  6844 ;; Return value:  Size  Location     Type
  6845 ;;                  4   34[BANK0 ] unsigned char 
  6846 ;; Registers used:
  6847 ;;		wreg, status,2, status,0, btemp+1
  6848 ;; Tracked objects:
  6849 ;;		On entry : 0/0
  6850 ;;		On exit  : 0/0
  6851 ;;		Unchanged: 0/0
  6852 ;; Data sizes:     COMMON   BANK0   BANK1   BANK3   BANK2
  6853 ;;      Params:         0       8       0       0       0
  6854 ;;      Locals:         0      13       0       0       0
  6855 ;;      Temps:          0       5       0       0       0
  6856 ;;      Totals:         0      26       0       0       0
  6857 ;;Total ram usage:       26 bytes
  6858 ;; Hardware stack levels used: 1
  6859 ;; This function calls:
  6860 ;;		Nothing
  6861 ;; This function is called by:
  6862 ;;		_main
  6863 ;;		_efgtoa
  6864 ;; This function uses a non-reentrant model
  6865 ;;
  6866                           
  6867     086E                     ___fldiv:	
  6868                           ;psect for function ___fldiv
  6869                           
  6870     086E                     l2494:	
  6871                           ;incstack = 0
  6872                           ; Regs used in ___fldiv: [wreg+status,2+status,0+btemp+1]
  6873                           
  6874     086E  1283               	bcf	3,5	;RP0=0, select bank0
  6875     086F  1303               	bcf	3,6	;RP1=0, select bank0
  6876     0870  0849               	movf	___fldiv@b+3,w
  6877     0871  3980               	andlw	128
  6878     0872  00D3               	movwf	___fldiv@sign
  6879     0873                     l2496:
  6880     0873  0849               	movf	___fldiv@b+3,w
  6881     0874  00CA               	movwf	??___fldiv
  6882     0875  074A               	addwf	??___fldiv,w
  6883     0876  00DA               	movwf	___fldiv@bexp
  6884     0877                     l2498:
  6885     0877  1FC8               	btfss	___fldiv@b+2,7
  6886     0878  287A               	goto	u3241
  6887     0879  287B               	goto	u3240
  6888     087A                     u3241:
  6889     087A  287C               	goto	l2502
  6890     087B                     u3240:
  6891     087B                     l2500:
  6892     087B  145A               	bsf	___fldiv@bexp,0
  6893     087C                     l2502:
  6894     087C  085A               	movf	___fldiv@bexp,w
  6895     087D  1903               	btfsc	3,2
  6896     087E  2880               	goto	u3251
  6897     087F  2881               	goto	u3250
  6898     0880                     u3251:
  6899     0880  2891               	goto	l2512
  6900     0881                     u3250:
  6901     0881                     l2504:
  6902     0881  0A5A               	incf	___fldiv@bexp,w
  6903     0882  1D03               	btfss	3,2
  6904     0883  2885               	goto	u3261
  6905     0884  2886               	goto	u3260
  6906     0885                     u3261:
  6907     0885  288E               	goto	l2508
  6908     0886                     u3260:
  6909     0886                     l2506:
  6910     0886  3000               	movlw	0
  6911     0887  00C9               	movwf	___fldiv@b+3
  6912     0888  3000               	movlw	0
  6913     0889  00C8               	movwf	___fldiv@b+2
  6914     088A  3000               	movlw	0
  6915     088B  00C7               	movwf	___fldiv@b+1
  6916     088C  3000               	movlw	0
  6917     088D  00C6               	movwf	___fldiv@b
  6918     088E                     l2508:
  6919     088E  17C8               	bsf	___fldiv@b+2,7
  6920     088F                     l2510:
  6921     088F  01C9               	clrf	___fldiv@b+3
  6922     0890  2899               	goto	l2514
  6923     0891                     l2512:
  6924     0891  3000               	movlw	0
  6925     0892  00C9               	movwf	___fldiv@b+3
  6926     0893  3000               	movlw	0
  6927     0894  00C8               	movwf	___fldiv@b+2
  6928     0895  3000               	movlw	0
  6929     0896  00C7               	movwf	___fldiv@b+1
  6930     0897  3000               	movlw	0
  6931     0898  00C6               	movwf	___fldiv@b
  6932     0899                     l2514:
  6933     0899  0845               	movf	___fldiv@a+3,w
  6934     089A  3980               	andlw	128
  6935     089B  00FF               	movwf	btemp+1
  6936     089C  087F               	movf	btemp+1,w
  6937     089D  06D3               	xorwf	___fldiv@sign,f
  6938     089E                     l2516:
  6939     089E  0845               	movf	___fldiv@a+3,w
  6940     089F  00CA               	movwf	??___fldiv
  6941     08A0  074A               	addwf	??___fldiv,w
  6942     08A1  00DB               	movwf	___fldiv@aexp
  6943     08A2                     l2518:
  6944     08A2  1FC4               	btfss	___fldiv@a+2,7
  6945     08A3  28A5               	goto	u3271
  6946     08A4  28A6               	goto	u3270
  6947     08A5                     u3271:
  6948     08A5  28A7               	goto	l2522
  6949     08A6                     u3270:
  6950     08A6                     l2520:
  6951     08A6  145B               	bsf	___fldiv@aexp,0
  6952     08A7                     l2522:
  6953     08A7  085B               	movf	___fldiv@aexp,w
  6954     08A8  1903               	btfsc	3,2
  6955     08A9  28AB               	goto	u3281
  6956     08AA  28AC               	goto	u3280
  6957     08AB                     u3281:
  6958     08AB  28BC               	goto	l2532
  6959     08AC                     u3280:
  6960     08AC                     l2524:
  6961     08AC  0A5B               	incf	___fldiv@aexp,w
  6962     08AD  1D03               	btfss	3,2
  6963     08AE  28B0               	goto	u3291
  6964     08AF  28B1               	goto	u3290
  6965     08B0                     u3291:
  6966     08B0  28B9               	goto	l2528
  6967     08B1                     u3290:
  6968     08B1                     l2526:
  6969     08B1  3000               	movlw	0
  6970     08B2  00C5               	movwf	___fldiv@a+3
  6971     08B3  3000               	movlw	0
  6972     08B4  00C4               	movwf	___fldiv@a+2
  6973     08B5  3000               	movlw	0
  6974     08B6  00C3               	movwf	___fldiv@a+1
  6975     08B7  3000               	movlw	0
  6976     08B8  00C2               	movwf	___fldiv@a
  6977     08B9                     l2528:
  6978     08B9  17C4               	bsf	___fldiv@a+2,7
  6979     08BA                     l2530:
  6980     08BA  01C5               	clrf	___fldiv@a+3
  6981     08BB  28C4               	goto	l579
  6982     08BC                     l2532:
  6983     08BC  3000               	movlw	0
  6984     08BD  00C5               	movwf	___fldiv@a+3
  6985     08BE  3000               	movlw	0
  6986     08BF  00C4               	movwf	___fldiv@a+2
  6987     08C0  3000               	movlw	0
  6988     08C1  00C3               	movwf	___fldiv@a+1
  6989     08C2  3000               	movlw	0
  6990     08C3  00C2               	movwf	___fldiv@a
  6991     08C4                     l579:
  6992     08C4  0845               	movf	___fldiv@a+3,w
  6993     08C5  0444               	iorwf	___fldiv@a+2,w
  6994     08C6  0443               	iorwf	___fldiv@a+1,w
  6995     08C7  0442               	iorwf	___fldiv@a,w
  6996     08C8  1D03               	skipz
  6997     08C9  28CB               	goto	u3301
  6998     08CA  28CC               	goto	u3300
  6999     08CB                     u3301:
  7000     08CB  28E5               	goto	l2542
  7001     08CC                     u3300:
  7002     08CC                     l2534:
  7003     08CC  3000               	movlw	0
  7004     08CD  00C9               	movwf	___fldiv@b+3
  7005     08CE  3000               	movlw	0
  7006     08CF  00C8               	movwf	___fldiv@b+2
  7007     08D0  3000               	movlw	0
  7008     08D1  00C7               	movwf	___fldiv@b+1
  7009     08D2  3000               	movlw	0
  7010     08D3  00C6               	movwf	___fldiv@b
  7011     08D4  3080               	movlw	128
  7012     08D5  04C8               	iorwf	___fldiv@b+2,f
  7013     08D6  307F               	movlw	127
  7014     08D7  04C9               	iorwf	___fldiv@b+3,f
  7015     08D8                     l2536:
  7016     08D8  0853               	movf	___fldiv@sign,w
  7017     08D9  00FF               	movwf	btemp+1
  7018     08DA  087F               	movf	btemp+1,w
  7019     08DB  04C9               	iorwf	___fldiv@b+3,f
  7020     08DC                     l2538:
  7021     08DC  0849               	movf	___fldiv@b+3,w
  7022     08DD  00C5               	movwf	?___fldiv+3
  7023     08DE  0848               	movf	___fldiv@b+2,w
  7024     08DF  00C4               	movwf	?___fldiv+2
  7025     08E0  0847               	movf	___fldiv@b+1,w
  7026     08E1  00C3               	movwf	?___fldiv+1
  7027     08E2  0846               	movf	___fldiv@b,w
  7028     08E3  00C2               	movwf	?___fldiv
  7029     08E4  2A3C               	goto	l581
  7030     08E5                     l2542:
  7031     08E5  085A               	movf	___fldiv@bexp,w
  7032     08E6  1D03               	btfss	3,2
  7033     08E7  28E9               	goto	u3311
  7034     08E8  28EA               	goto	u3310
  7035     08E9                     u3311:
  7036     08E9  28F3               	goto	l2548
  7037     08EA                     u3310:
  7038     08EA                     l2544:
  7039     08EA  3000               	movlw	0
  7040     08EB  00C5               	movwf	?___fldiv+3
  7041     08EC  3000               	movlw	0
  7042     08ED  00C4               	movwf	?___fldiv+2
  7043     08EE  3000               	movlw	0
  7044     08EF  00C3               	movwf	?___fldiv+1
  7045     08F0  3000               	movlw	0
  7046     08F1  00C2               	movwf	?___fldiv
  7047     08F2  2A3C               	goto	l581
  7048     08F3                     l2548:
  7049     08F3  085A               	movf	___fldiv@bexp,w
  7050     08F4  00CA               	movwf	??___fldiv
  7051     08F5  01CB               	clrf	??___fldiv+1
  7052     08F6  084B               	movf	??___fldiv+1,w
  7053     08F7  00CD               	movwf	??___fldiv+3
  7054     08F8  085B               	movf	___fldiv@aexp,w
  7055     08F9  024A               	subwf	??___fldiv,w
  7056     08FA  00CC               	movwf	??___fldiv+2
  7057     08FB  1C03               	skipc
  7058     08FC  03CD               	decf	??___fldiv+3,f
  7059     08FD  084C               	movf	??___fldiv+2,w
  7060     08FE  3E7F               	addlw	127
  7061     08FF  00D4               	movwf	___fldiv@new_exp
  7062     0900  084D               	movf	??___fldiv+3,w
  7063     0901  1803               	skipnc
  7064     0902  3E01               	addlw	1
  7065     0903  3E00               	addlw	0
  7066     0904  00D5               	movwf	___fldiv@new_exp+1
  7067     0905                     l2550:
  7068     0905  0849               	movf	___fldiv@b+3,w
  7069     0906  00D2               	movwf	___fldiv@rem+3
  7070     0907  0848               	movf	___fldiv@b+2,w
  7071     0908  00D1               	movwf	___fldiv@rem+2
  7072     0909  0847               	movf	___fldiv@b+1,w
  7073     090A  00D0               	movwf	___fldiv@rem+1
  7074     090B  0846               	movf	___fldiv@b,w
  7075     090C  00CF               	movwf	___fldiv@rem
  7076     090D                     l2552:
  7077     090D  3000               	movlw	0
  7078     090E  00C9               	movwf	___fldiv@b+3
  7079     090F  3000               	movlw	0
  7080     0910  00C8               	movwf	___fldiv@b+2
  7081     0911  3000               	movlw	0
  7082     0912  00C7               	movwf	___fldiv@b+1
  7083     0913  3000               	movlw	0
  7084     0914  00C6               	movwf	___fldiv@b
  7085     0915                     l2554:
  7086     0915  3000               	movlw	0
  7087     0916  00D9               	movwf	___fldiv@grs+3
  7088     0917  3000               	movlw	0
  7089     0918  00D8               	movwf	___fldiv@grs+2
  7090     0919  3000               	movlw	0
  7091     091A  00D7               	movwf	___fldiv@grs+1
  7092     091B  3000               	movlw	0
  7093     091C  00D6               	movwf	___fldiv@grs
  7094     091D                     l2556:
  7095     091D  01DB               	clrf	___fldiv@aexp
  7096     091E  2969               	goto	l2576
  7097     091F                     l2558:
  7098     091F  085B               	movf	___fldiv@aexp,w
  7099     0920  1903               	btfsc	3,2
  7100     0921  2923               	goto	u3321
  7101     0922  2924               	goto	u3320
  7102     0923                     u3321:
  7103     0923  2944               	goto	l2568
  7104     0924                     u3320:
  7105     0924                     l2560:
  7106     0924  3001               	movlw	1
  7107     0925  00CA               	movwf	??___fldiv
  7108     0926                     u3335:
  7109     0926  1003               	clrc
  7110     0927  0DCF               	rlf	___fldiv@rem,f
  7111     0928  0DD0               	rlf	___fldiv@rem+1,f
  7112     0929  0DD1               	rlf	___fldiv@rem+2,f
  7113     092A  0DD2               	rlf	___fldiv@rem+3,f
  7114     092B  0BCA               	decfsz	??___fldiv,f
  7115     092C  2926               	goto	u3335
  7116     092D  3001               	movlw	1
  7117     092E  00CA               	movwf	??___fldiv
  7118     092F                     u3345:
  7119     092F  1003               	clrc
  7120     0930  0DC6               	rlf	___fldiv@b,f
  7121     0931  0DC7               	rlf	___fldiv@b+1,f
  7122     0932  0DC8               	rlf	___fldiv@b+2,f
  7123     0933  0DC9               	rlf	___fldiv@b+3,f
  7124     0934  0BCA               	decfsz	??___fldiv,f
  7125     0935  292F               	goto	u3345
  7126     0936                     l2562:
  7127     0936  1FD9               	btfss	___fldiv@grs+3,7
  7128     0937  2939               	goto	u3351
  7129     0938  293A               	goto	u3350
  7130     0939                     u3351:
  7131     0939  293B               	goto	l2566
  7132     093A                     u3350:
  7133     093A                     l2564:
  7134     093A  1446               	bsf	___fldiv@b,0
  7135     093B                     l2566:
  7136     093B  3001               	movlw	1
  7137     093C  00CA               	movwf	??___fldiv
  7138     093D                     u3365:
  7139     093D  1003               	clrc
  7140     093E  0DD6               	rlf	___fldiv@grs,f
  7141     093F  0DD7               	rlf	___fldiv@grs+1,f
  7142     0940  0DD8               	rlf	___fldiv@grs+2,f
  7143     0941  0DD9               	rlf	___fldiv@grs+3,f
  7144     0942  0BCA               	decfsz	??___fldiv,f
  7145     0943  293D               	goto	u3365
  7146     0944                     l2568:
  7147     0944  0845               	movf	___fldiv@a+3,w
  7148     0945  0252               	subwf	___fldiv@rem+3,w
  7149     0946  1D03               	skipz
  7150     0947  2952               	goto	u3375
  7151     0948  0844               	movf	___fldiv@a+2,w
  7152     0949  0251               	subwf	___fldiv@rem+2,w
  7153     094A  1D03               	skipz
  7154     094B  2952               	goto	u3375
  7155     094C  0843               	movf	___fldiv@a+1,w
  7156     094D  0250               	subwf	___fldiv@rem+1,w
  7157     094E  1D03               	skipz
  7158     094F  2952               	goto	u3375
  7159     0950  0842               	movf	___fldiv@a,w
  7160     0951  024F               	subwf	___fldiv@rem,w
  7161     0952                     u3375:
  7162     0952  1C03               	skipc
  7163     0953  2955               	goto	u3371
  7164     0954  2956               	goto	u3370
  7165     0955                     u3371:
  7166     0955  2965               	goto	l2574
  7167     0956                     u3370:
  7168     0956                     l2570:
  7169     0956  1759               	bsf	___fldiv@grs+3,6
  7170     0957                     l2572:
  7171     0957  0842               	movf	___fldiv@a,w
  7172     0958  02CF               	subwf	___fldiv@rem,f
  7173     0959  0843               	movf	___fldiv@a+1,w
  7174     095A  1C03               	skipc
  7175     095B  0F43               	incfsz	___fldiv@a+1,w
  7176     095C  02D0               	subwf	___fldiv@rem+1,f
  7177     095D  0844               	movf	___fldiv@a+2,w
  7178     095E  1C03               	skipc
  7179     095F  0F44               	incfsz	___fldiv@a+2,w
  7180     0960  02D1               	subwf	___fldiv@rem+2,f
  7181     0961  0845               	movf	___fldiv@a+3,w
  7182     0962  1C03               	skipc
  7183     0963  0F45               	incfsz	___fldiv@a+3,w
  7184     0964  02D2               	subwf	___fldiv@rem+3,f
  7185     0965                     l2574:
  7186     0965  3001               	movlw	1
  7187     0966  00FF               	movwf	btemp+1
  7188     0967  087F               	movf	btemp+1,w
  7189     0968  07DB               	addwf	___fldiv@aexp,f
  7190     0969                     l2576:
  7191     0969  301A               	movlw	26
  7192     096A  025B               	subwf	___fldiv@aexp,w
  7193     096B  1C03               	skipc
  7194     096C  296E               	goto	u3381
  7195     096D  296F               	goto	u3380
  7196     096E                     u3381:
  7197     096E  291F               	goto	l2558
  7198     096F                     u3380:
  7199     096F                     l2578:
  7200     096F  0852               	movf	___fldiv@rem+3,w
  7201     0970  0451               	iorwf	___fldiv@rem+2,w
  7202     0971  0450               	iorwf	___fldiv@rem+1,w
  7203     0972  044F               	iorwf	___fldiv@rem,w
  7204     0973  1903               	skipnz
  7205     0974  2976               	goto	u3391
  7206     0975  2977               	goto	u3390
  7207     0976                     u3391:
  7208     0976  2996               	goto	l2592
  7209     0977                     u3390:
  7210     0977                     l2580:
  7211     0977  1456               	bsf	___fldiv@grs,0
  7212     0978  2996               	goto	l2592
  7213     0979                     l2582:
  7214     0979  3001               	movlw	1
  7215     097A  00CA               	movwf	??___fldiv
  7216     097B                     u3405:
  7217     097B  1003               	clrc
  7218     097C  0DC6               	rlf	___fldiv@b,f
  7219     097D  0DC7               	rlf	___fldiv@b+1,f
  7220     097E  0DC8               	rlf	___fldiv@b+2,f
  7221     097F  0DC9               	rlf	___fldiv@b+3,f
  7222     0980  0BCA               	decfsz	??___fldiv,f
  7223     0981  297B               	goto	u3405
  7224     0982                     l2584:
  7225     0982  1FD9               	btfss	___fldiv@grs+3,7
  7226     0983  2985               	goto	u3411
  7227     0984  2986               	goto	u3410
  7228     0985                     u3411:
  7229     0985  2987               	goto	l2588
  7230     0986                     u3410:
  7231     0986                     l2586:
  7232     0986  1446               	bsf	___fldiv@b,0
  7233     0987                     l2588:
  7234     0987  3001               	movlw	1
  7235     0988  00CA               	movwf	??___fldiv
  7236     0989                     u3425:
  7237     0989  1003               	clrc
  7238     098A  0DD6               	rlf	___fldiv@grs,f
  7239     098B  0DD7               	rlf	___fldiv@grs+1,f
  7240     098C  0DD8               	rlf	___fldiv@grs+2,f
  7241     098D  0DD9               	rlf	___fldiv@grs+3,f
  7242     098E  0BCA               	decfsz	??___fldiv,f
  7243     098F  2989               	goto	u3425
  7244     0990                     l2590:
  7245     0990  30FF               	movlw	255
  7246     0991  07D4               	addwf	___fldiv@new_exp,f
  7247     0992  1803               	skipnc
  7248     0993  0AD5               	incf	___fldiv@new_exp+1,f
  7249     0994  30FF               	movlw	255
  7250     0995  07D5               	addwf	___fldiv@new_exp+1,f
  7251     0996                     l2592:
  7252     0996  1FC8               	btfss	___fldiv@b+2,7
  7253     0997  2999               	goto	u3431
  7254     0998  299A               	goto	u3430
  7255     0999                     u3431:
  7256     0999  2979               	goto	l2582
  7257     099A                     u3430:
  7258     099A                     l2594:
  7259     099A  01DB               	clrf	___fldiv@aexp
  7260     099B                     l2596:
  7261     099B  1FD9               	btfss	___fldiv@grs+3,7
  7262     099C  299E               	goto	u3441
  7263     099D  299F               	goto	u3440
  7264     099E                     u3441:
  7265     099E  29BB               	goto	l2604
  7266     099F                     u3440:
  7267     099F                     l2598:
  7268     099F  30FF               	movlw	255
  7269     09A0  0556               	andwf	___fldiv@grs,w
  7270     09A1  00CA               	movwf	??___fldiv
  7271     09A2  30FF               	movlw	255
  7272     09A3  0557               	andwf	___fldiv@grs+1,w
  7273     09A4  00CB               	movwf	??___fldiv+1
  7274     09A5  30FF               	movlw	255
  7275     09A6  0558               	andwf	___fldiv@grs+2,w
  7276     09A7  00CC               	movwf	??___fldiv+2
  7277     09A8  307F               	movlw	127
  7278     09A9  0559               	andwf	___fldiv@grs+3,w
  7279     09AA  00CD               	movwf	??___fldiv+3
  7280     09AB  084D               	movf	??___fldiv+3,w
  7281     09AC  044C               	iorwf	??___fldiv+2,w
  7282     09AD  044B               	iorwf	??___fldiv+1,w
  7283     09AE  044A               	iorwf	??___fldiv,w
  7284     09AF  1903               	skipnz
  7285     09B0  29B2               	goto	u3451
  7286     09B1  29B3               	goto	u3450
  7287     09B2                     u3451:
  7288     09B2  29B6               	goto	l595
  7289     09B3                     u3450:
  7290     09B3                     l2600:
  7291     09B3  01DB               	clrf	___fldiv@aexp
  7292     09B4  0ADB               	incf	___fldiv@aexp,f
  7293     09B5  29BB               	goto	l2604
  7294     09B6                     l595:
  7295     09B6  1C46               	btfss	___fldiv@b,0
  7296     09B7  29B9               	goto	u3461
  7297     09B8  29BA               	goto	u3460
  7298     09B9                     u3461:
  7299     09B9  29BB               	goto	l2604
  7300     09BA                     u3460:
  7301     09BA  29B3               	goto	l2600
  7302     09BB                     l2604:
  7303     09BB  085B               	movf	___fldiv@aexp,w
  7304     09BC  1903               	btfsc	3,2
  7305     09BD  29BF               	goto	u3471
  7306     09BE  29C0               	goto	u3470
  7307     09BF                     u3471:
  7308     09BF  29F1               	goto	l2614
  7309     09C0                     u3470:
  7310     09C0                     l2606:
  7311     09C0  3001               	movlw	1
  7312     09C1  07C6               	addwf	___fldiv@b,f
  7313     09C2  3000               	movlw	0
  7314     09C3  1803               	skipnc
  7315     09C4  3001               	movlw	1
  7316     09C5  07C7               	addwf	___fldiv@b+1,f
  7317     09C6  3000               	movlw	0
  7318     09C7  1803               	skipnc
  7319     09C8  3001               	movlw	1
  7320     09C9  07C8               	addwf	___fldiv@b+2,f
  7321     09CA  3000               	movlw	0
  7322     09CB  1803               	skipnc
  7323     09CC  3001               	movlw	1
  7324     09CD  07C9               	addwf	___fldiv@b+3,f
  7325     09CE                     l2608:
  7326     09CE  1C49               	btfss	___fldiv@b+3,0
  7327     09CF  29D1               	goto	u3481
  7328     09D0  29D2               	goto	u3480
  7329     09D1                     u3481:
  7330     09D1  29F1               	goto	l2614
  7331     09D2                     u3480:
  7332     09D2                     l2610:
  7333     09D2  0846               	movf	___fldiv@b,w
  7334     09D3  00CA               	movwf	??___fldiv
  7335     09D4  0847               	movf	___fldiv@b+1,w
  7336     09D5  00CB               	movwf	??___fldiv+1
  7337     09D6  0848               	movf	___fldiv@b+2,w
  7338     09D7  00CC               	movwf	??___fldiv+2
  7339     09D8  0849               	movf	___fldiv@b+3,w
  7340     09D9  00CD               	movwf	??___fldiv+3
  7341     09DA  3001               	movlw	1
  7342     09DB  00CE               	movwf	??___fldiv+4
  7343     09DC                     u3495:
  7344     09DC  0D4D               	rlf	??___fldiv+3,w
  7345     09DD  0CCD               	rrf	??___fldiv+3,f
  7346     09DE  0CCC               	rrf	??___fldiv+2,f
  7347     09DF  0CCB               	rrf	??___fldiv+1,f
  7348     09E0  0CCA               	rrf	??___fldiv,f
  7349     09E1                     u3490:
  7350     09E1  0BCE               	decfsz	??___fldiv+4,f
  7351     09E2  29DC               	goto	u3495
  7352     09E3  084D               	movf	??___fldiv+3,w
  7353     09E4  00C9               	movwf	___fldiv@b+3
  7354     09E5  084C               	movf	??___fldiv+2,w
  7355     09E6  00C8               	movwf	___fldiv@b+2
  7356     09E7  084B               	movf	??___fldiv+1,w
  7357     09E8  00C7               	movwf	___fldiv@b+1
  7358     09E9  084A               	movf	??___fldiv,w
  7359     09EA  00C6               	movwf	___fldiv@b
  7360     09EB                     l2612:
  7361     09EB  3001               	movlw	1
  7362     09EC  07D4               	addwf	___fldiv@new_exp,f
  7363     09ED  1803               	skipnc
  7364     09EE  0AD5               	incf	___fldiv@new_exp+1,f
  7365     09EF  3000               	movlw	0
  7366     09F0  07D5               	addwf	___fldiv@new_exp+1,f
  7367     09F1                     l2614:
  7368     09F1  0855               	movf	___fldiv@new_exp+1,w
  7369     09F2  3A80               	xorlw	128
  7370     09F3  00FF               	movwf	btemp+1
  7371     09F4  3080               	movlw	128
  7372     09F5  027F               	subwf	btemp+1,w
  7373     09F6  1D03               	skipz
  7374     09F7  29FA               	goto	u3505
  7375     09F8  30FF               	movlw	255
  7376     09F9  0254               	subwf	___fldiv@new_exp,w
  7377     09FA                     u3505:
  7378     09FA  1C03               	skipc
  7379     09FB  29FD               	goto	u3501
  7380     09FC  29FE               	goto	u3500
  7381     09FD                     u3501:
  7382     09FD  2A0C               	goto	l2618
  7383     09FE                     u3500:
  7384     09FE                     l2616:
  7385     09FE  30FF               	movlw	255
  7386     09FF  1283               	bcf	3,5	;RP0=0, select bank0
  7387     0A00  1303               	bcf	3,6	;RP1=0, select bank0
  7388     0A01  00D4               	movwf	___fldiv@new_exp
  7389     0A02  3000               	movlw	0
  7390     0A03  00D5               	movwf	___fldiv@new_exp+1
  7391     0A04  3000               	movlw	0
  7392     0A05  00C9               	movwf	___fldiv@b+3
  7393     0A06  3000               	movlw	0
  7394     0A07  00C8               	movwf	___fldiv@b+2
  7395     0A08  3000               	movlw	0
  7396     0A09  00C7               	movwf	___fldiv@b+1
  7397     0A0A  3000               	movlw	0
  7398     0A0B  00C6               	movwf	___fldiv@b
  7399     0A0C                     l2618:
  7400     0A0C  1283               	bcf	3,5	;RP0=0, select bank0
  7401     0A0D  1303               	bcf	3,6	;RP1=0, select bank0
  7402     0A0E  0855               	movf	___fldiv@new_exp+1,w
  7403     0A0F  3A80               	xorlw	128
  7404     0A10  00FF               	movwf	btemp+1
  7405     0A11  3080               	movlw	128
  7406     0A12  027F               	subwf	btemp+1,w
  7407     0A13  1D03               	skipz
  7408     0A14  2A17               	goto	u3515
  7409     0A15  3001               	movlw	1
  7410     0A16  0254               	subwf	___fldiv@new_exp,w
  7411     0A17                     u3515:
  7412     0A17  1803               	skipnc
  7413     0A18  2A1A               	goto	u3511
  7414     0A19  2A1B               	goto	u3510
  7415     0A1A                     u3511:
  7416     0A1A  2A28               	goto	l601
  7417     0A1B                     u3510:
  7418     0A1B                     l2620:
  7419     0A1B  1283               	bcf	3,5	;RP0=0, select bank0
  7420     0A1C  1303               	bcf	3,6	;RP1=0, select bank0
  7421     0A1D  01D4               	clrf	___fldiv@new_exp
  7422     0A1E  01D5               	clrf	___fldiv@new_exp+1
  7423     0A1F                     l2622:
  7424     0A1F  3000               	movlw	0
  7425     0A20  00C9               	movwf	___fldiv@b+3
  7426     0A21  3000               	movlw	0
  7427     0A22  00C8               	movwf	___fldiv@b+2
  7428     0A23  3000               	movlw	0
  7429     0A24  00C7               	movwf	___fldiv@b+1
  7430     0A25  3000               	movlw	0
  7431     0A26  00C6               	movwf	___fldiv@b
  7432     0A27                     l2624:
  7433     0A27  01D3               	clrf	___fldiv@sign
  7434     0A28                     l601:
  7435     0A28  1283               	bcf	3,5	;RP0=0, select bank0
  7436     0A29  1303               	bcf	3,6	;RP1=0, select bank0
  7437     0A2A  0854               	movf	___fldiv@new_exp,w
  7438     0A2B  00DA               	movwf	___fldiv@bexp
  7439     0A2C                     l2626:
  7440     0A2C  1C5A               	btfss	___fldiv@bexp,0
  7441     0A2D  2A2F               	goto	u3521
  7442     0A2E  2A30               	goto	u3520
  7443     0A2F                     u3521:
  7444     0A2F  2A32               	goto	l2630
  7445     0A30                     u3520:
  7446     0A30                     l2628:
  7447     0A30  17C8               	bsf	___fldiv@b+2,7
  7448     0A31  2A36               	goto	l2632
  7449     0A32                     l2630:
  7450     0A32  307F               	movlw	127
  7451     0A33  00FF               	movwf	btemp+1
  7452     0A34  087F               	movf	btemp+1,w
  7453     0A35  05C8               	andwf	___fldiv@b+2,f
  7454     0A36                     l2632:
  7455     0A36  085A               	movf	___fldiv@bexp,w
  7456     0A37  00CA               	movwf	??___fldiv
  7457     0A38  1003               	clrc
  7458     0A39  0C4A               	rrf	??___fldiv,w
  7459     0A3A  00C9               	movwf	___fldiv@b+3
  7460     0A3B  28D8               	goto	l2536
  7461     0A3C                     l581:
  7462     0A3C  0008               	return
  7463     0A3D                     __end_of___fldiv:
  7464                           
  7465                           	psect	text25
  7466     0029                     __ptext25:	
  7467 ;; *************** function ___xxtofl *****************
  7468 ;; Defined at:
  7469 ;;		line 10 in file "C:\Program Files\Microchip\xc8\v2.46\pic\sources\c99\common\xxtofl.c"
  7470 ;; Parameters:    Size  Location     Type
  7471 ;;  sign            1    wreg     unsigned char 
  7472 ;;  val             4    0[COMMON] long 
  7473 ;; Auto vars:     Size  Location     Type
  7474 ;;  sign            1    8[COMMON] unsigned char 
  7475 ;;  arg             4   10[COMMON] unsigned long 
  7476 ;;  exp             1    9[COMMON] unsigned char 
  7477 ;; Return value:  Size  Location     Type
  7478 ;;                  4    0[COMMON] unsigned char 
  7479 ;; Registers used:
  7480 ;;		wreg, status,2, status,0, btemp+1
  7481 ;; Tracked objects:
  7482 ;;		On entry : 0/0
  7483 ;;		On exit  : 0/0
  7484 ;;		Unchanged: 0/0
  7485 ;; Data sizes:     COMMON   BANK0   BANK1   BANK3   BANK2
  7486 ;;      Params:         4       0       0       0       0
  7487 ;;      Locals:         6       0       0       0       0
  7488 ;;      Temps:          4       0       0       0       0
  7489 ;;      Totals:        14       0       0       0       0
  7490 ;;Total ram usage:       14 bytes
  7491 ;; Hardware stack levels used: 1
  7492 ;; This function calls:
  7493 ;;		Nothing
  7494 ;; This function is called by:
  7495 ;;		_main
  7496 ;; This function uses a non-reentrant model
  7497 ;;
  7498                           
  7499     0029                     ___xxtofl:	
  7500                           ;psect for function ___xxtofl
  7501                           
  7502                           
  7503                           ;incstack = 0
  7504                           ; Regs used in ___xxtofl: [wreg+status,2+status,0+btemp+1]
  7505                           ;___xxtofl@sign stored from wreg
  7506     0029  00F8               	movwf	___xxtofl@sign
  7507     002A                     l3316:
  7508     002A  0878               	movf	___xxtofl@sign,w
  7509     002B  1903               	btfsc	3,2
  7510     002C  282E               	goto	u4741
  7511     002D  282F               	goto	u4740
  7512     002E                     u4741:
  7513     002E  2843               	goto	l3322
  7514     002F                     u4740:
  7515     002F                     l3318:
  7516     002F  1FF3               	btfss	___xxtofl@val+3,7
  7517     0030  2832               	goto	u4751
  7518     0031  2833               	goto	u4750
  7519     0032                     u4751:
  7520     0032  2843               	goto	l3322
  7521     0033                     u4750:
  7522     0033                     l3320:
  7523     0033  0970               	comf	___xxtofl@val,w
  7524     0034  00FA               	movwf	___xxtofl@arg
  7525     0035  0971               	comf	___xxtofl@val+1,w
  7526     0036  00FB               	movwf	___xxtofl@arg+1
  7527     0037  0972               	comf	___xxtofl@val+2,w
  7528     0038  00FC               	movwf	___xxtofl@arg+2
  7529     0039  0973               	comf	___xxtofl@val+3,w
  7530     003A  00FD               	movwf	___xxtofl@arg+3
  7531     003B  0AFA               	incf	___xxtofl@arg,f
  7532     003C  1903               	skipnz
  7533     003D  0AFB               	incf	___xxtofl@arg+1,f
  7534     003E  1903               	skipnz
  7535     003F  0AFC               	incf	___xxtofl@arg+2,f
  7536     0040  1903               	skipnz
  7537     0041  0AFD               	incf	___xxtofl@arg+3,f
  7538     0042  284B               	goto	l663
  7539     0043                     l3322:
  7540     0043  0873               	movf	___xxtofl@val+3,w
  7541     0044  00FD               	movwf	___xxtofl@arg+3
  7542     0045  0872               	movf	___xxtofl@val+2,w
  7543     0046  00FC               	movwf	___xxtofl@arg+2
  7544     0047  0871               	movf	___xxtofl@val+1,w
  7545     0048  00FB               	movwf	___xxtofl@arg+1
  7546     0049  0870               	movf	___xxtofl@val,w
  7547     004A  00FA               	movwf	___xxtofl@arg
  7548     004B                     l663:
  7549     004B  0873               	movf	___xxtofl@val+3,w
  7550     004C  0472               	iorwf	___xxtofl@val+2,w
  7551     004D  0471               	iorwf	___xxtofl@val+1,w
  7552     004E  0470               	iorwf	___xxtofl@val,w
  7553     004F  1D03               	skipz
  7554     0050  2852               	goto	u4761
  7555     0051  2853               	goto	u4760
  7556     0052                     u4761:
  7557     0052  285C               	goto	l3328
  7558     0053                     u4760:
  7559     0053                     l3324:
  7560     0053  3000               	movlw	0
  7561     0054  00F3               	movwf	?___xxtofl+3
  7562     0055  3000               	movlw	0
  7563     0056  00F2               	movwf	?___xxtofl+2
  7564     0057  3000               	movlw	0
  7565     0058  00F1               	movwf	?___xxtofl+1
  7566     0059  3000               	movlw	0
  7567     005A  00F0               	movwf	?___xxtofl
  7568     005B  28E0               	goto	l665
  7569     005C                     l3328:
  7570     005C  3096               	movlw	150
  7571     005D  00F9               	movwf	___xxtofl@exp
  7572     005E  286C               	goto	l3334
  7573     005F                     l3330:
  7574     005F  3001               	movlw	1
  7575     0060  00FF               	movwf	btemp+1
  7576     0061  087F               	movf	btemp+1,w
  7577     0062  07F9               	addwf	___xxtofl@exp,f
  7578     0063                     l3332:
  7579     0063  3001               	movlw	1
  7580     0064                     u4775:
  7581     0064  1003               	clrc
  7582     0065  0CFD               	rrf	___xxtofl@arg+3,f
  7583     0066  0CFC               	rrf	___xxtofl@arg+2,f
  7584     0067  0CFB               	rrf	___xxtofl@arg+1,f
  7585     0068  0CFA               	rrf	___xxtofl@arg,f
  7586     0069  3EFF               	addlw	-1
  7587     006A  1D03               	skipz
  7588     006B  2864               	goto	u4775
  7589     006C                     l3334:
  7590     006C  30FE               	movlw	254
  7591     006D  057D               	andwf	___xxtofl@arg+3,w
  7592     006E  1D03               	btfss	3,2
  7593     006F  2871               	goto	u4781
  7594     0070  2872               	goto	u4780
  7595     0071                     u4781:
  7596     0071  285F               	goto	l3330
  7597     0072                     u4780:
  7598     0072  288E               	goto	l3342
  7599     0073                     l3336:
  7600     0073  3001               	movlw	1
  7601     0074  00FF               	movwf	btemp+1
  7602     0075  087F               	movf	btemp+1,w
  7603     0076  07F9               	addwf	___xxtofl@exp,f
  7604     0077                     l3338:
  7605     0077  3001               	movlw	1
  7606     0078  07FA               	addwf	___xxtofl@arg,f
  7607     0079  3000               	movlw	0
  7608     007A  1803               	skipnc
  7609     007B  3001               	movlw	1
  7610     007C  07FB               	addwf	___xxtofl@arg+1,f
  7611     007D  3000               	movlw	0
  7612     007E  1803               	skipnc
  7613     007F  3001               	movlw	1
  7614     0080  07FC               	addwf	___xxtofl@arg+2,f
  7615     0081  3000               	movlw	0
  7616     0082  1803               	skipnc
  7617     0083  3001               	movlw	1
  7618     0084  07FD               	addwf	___xxtofl@arg+3,f
  7619     0085                     l3340:
  7620     0085  3001               	movlw	1
  7621     0086                     u4795:
  7622     0086  1003               	clrc
  7623     0087  0CFD               	rrf	___xxtofl@arg+3,f
  7624     0088  0CFC               	rrf	___xxtofl@arg+2,f
  7625     0089  0CFB               	rrf	___xxtofl@arg+1,f
  7626     008A  0CFA               	rrf	___xxtofl@arg,f
  7627     008B  3EFF               	addlw	-1
  7628     008C  1D03               	skipz
  7629     008D  2886               	goto	u4795
  7630     008E                     l3342:
  7631     008E  30FF               	movlw	255
  7632     008F  057D               	andwf	___xxtofl@arg+3,w
  7633     0090  1D03               	btfss	3,2
  7634     0091  2893               	goto	u4801
  7635     0092  2894               	goto	u4800
  7636     0093                     u4801:
  7637     0093  2873               	goto	l3336
  7638     0094                     u4800:
  7639     0094  28A0               	goto	l3346
  7640     0095                     l3344:
  7641     0095  3001               	movlw	1
  7642     0096  02F9               	subwf	___xxtofl@exp,f
  7643     0097  3001               	movlw	1
  7644     0098  00F4               	movwf	??___xxtofl
  7645     0099                     u4815:
  7646     0099  1003               	clrc
  7647     009A  0DFA               	rlf	___xxtofl@arg,f
  7648     009B  0DFB               	rlf	___xxtofl@arg+1,f
  7649     009C  0DFC               	rlf	___xxtofl@arg+2,f
  7650     009D  0DFD               	rlf	___xxtofl@arg+3,f
  7651     009E  0BF4               	decfsz	??___xxtofl,f
  7652     009F  2899               	goto	u4815
  7653     00A0                     l3346:
  7654     00A0  1BFC               	btfsc	___xxtofl@arg+2,7
  7655     00A1  28A3               	goto	u4821
  7656     00A2  28A4               	goto	u4820
  7657     00A3                     u4821:
  7658     00A3  28AA               	goto	l676
  7659     00A4                     u4820:
  7660     00A4                     l3348:
  7661     00A4  3002               	movlw	2
  7662     00A5  0279               	subwf	___xxtofl@exp,w
  7663     00A6  1803               	skipnc
  7664     00A7  28A9               	goto	u4831
  7665     00A8  28AA               	goto	u4830
  7666     00A9                     u4831:
  7667     00A9  2895               	goto	l3344
  7668     00AA                     u4830:
  7669     00AA                     l676:
  7670     00AA  1879               	btfsc	___xxtofl@exp,0
  7671     00AB  28AD               	goto	u4841
  7672     00AC  28AE               	goto	u4840
  7673     00AD                     u4841:
  7674     00AD  28B6               	goto	l677
  7675     00AE                     u4840:
  7676     00AE                     l3350:
  7677     00AE  30FF               	movlw	255
  7678     00AF  05FA               	andwf	___xxtofl@arg,f
  7679     00B0  30FF               	movlw	255
  7680     00B1  05FB               	andwf	___xxtofl@arg+1,f
  7681     00B2  307F               	movlw	127
  7682     00B3  05FC               	andwf	___xxtofl@arg+2,f
  7683     00B4  30FF               	movlw	255
  7684     00B5  05FD               	andwf	___xxtofl@arg+3,f
  7685     00B6                     l677:
  7686     00B6  1003               	clrc
  7687     00B7  0CF9               	rrf	___xxtofl@exp,f
  7688     00B8                     l3352:
  7689     00B8  0879               	movf	___xxtofl@exp,w
  7690     00B9  00F4               	movwf	??___xxtofl
  7691     00BA  01F5               	clrf	??___xxtofl+1
  7692     00BB  01F6               	clrf	??___xxtofl+2
  7693     00BC  01F7               	clrf	??___xxtofl+3
  7694     00BD  3018               	movlw	24
  7695     00BE                     u4855:
  7696     00BE  1003               	clrc
  7697     00BF  0DF4               	rlf	??___xxtofl,f
  7698     00C0  0DF5               	rlf	??___xxtofl+1,f
  7699     00C1  0DF6               	rlf	??___xxtofl+2,f
  7700     00C2  0DF7               	rlf	??___xxtofl+3,f
  7701     00C3                     u4850:
  7702     00C3  3EFF               	addlw	-1
  7703     00C4  1D03               	skipz
  7704     00C5  28BE               	goto	u4855
  7705     00C6  0874               	movf	??___xxtofl,w
  7706     00C7  04FA               	iorwf	___xxtofl@arg,f
  7707     00C8  0875               	movf	??___xxtofl+1,w
  7708     00C9  04FB               	iorwf	___xxtofl@arg+1,f
  7709     00CA  0876               	movf	??___xxtofl+2,w
  7710     00CB  04FC               	iorwf	___xxtofl@arg+2,f
  7711     00CC  0877               	movf	??___xxtofl+3,w
  7712     00CD  04FD               	iorwf	___xxtofl@arg+3,f
  7713     00CE                     l3354:
  7714     00CE  0878               	movf	___xxtofl@sign,w
  7715     00CF  1903               	btfsc	3,2
  7716     00D0  28D2               	goto	u4861
  7717     00D1  28D3               	goto	u4860
  7718     00D2                     u4861:
  7719     00D2  28D8               	goto	l3360
  7720     00D3                     u4860:
  7721     00D3                     l3356:
  7722     00D3  1FF3               	btfss	___xxtofl@val+3,7
  7723     00D4  28D6               	goto	u4871
  7724     00D5  28D7               	goto	u4870
  7725     00D6                     u4871:
  7726     00D6  28D8               	goto	l3360
  7727     00D7                     u4870:
  7728     00D7                     l3358:
  7729     00D7  17FD               	bsf	___xxtofl@arg+3,7
  7730     00D8                     l3360:
  7731     00D8  087D               	movf	___xxtofl@arg+3,w
  7732     00D9  00F3               	movwf	?___xxtofl+3
  7733     00DA  087C               	movf	___xxtofl@arg+2,w
  7734     00DB  00F2               	movwf	?___xxtofl+2
  7735     00DC  087B               	movf	___xxtofl@arg+1,w
  7736     00DD  00F1               	movwf	?___xxtofl+1
  7737     00DE  087A               	movf	___xxtofl@arg,w
  7738     00DF  00F0               	movwf	?___xxtofl
  7739     00E0                     l665:
  7740     00E0  0008               	return
  7741     00E1                     __end_of___xxtofl:
  7742                           
  7743                           	psect	text26
  7744     1E6B                     __ptext26:	
  7745 ;; *************** function _Lcd_Write_String *****************
  7746 ;; Defined at:
  7747 ;;		line 129 in file "plant.c"
  7748 ;; Parameters:    Size  Location     Type
  7749 ;;  a               2    5[COMMON] PTR unsigned char 
  7750 ;;		 -> STR_4(7), s(20), 
  7751 ;; Auto vars:     Size  Location     Type
  7752 ;;  i               2   10[COMMON] int 
  7753 ;; Return value:  Size  Location     Type
  7754 ;;                  1    wreg      void 
  7755 ;; Registers used:
  7756 ;;		wreg, fsr0l, fsr0h, status,2, status,0, btemp+1, pclath, cstack
  7757 ;; Tracked objects:
  7758 ;;		On entry : 0/0
  7759 ;;		On exit  : 0/0
  7760 ;;		Unchanged: 0/0
  7761 ;; Data sizes:     COMMON   BANK0   BANK1   BANK3   BANK2
  7762 ;;      Params:         2       0       0       0       0
  7763 ;;      Locals:         2       0       0       0       0
  7764 ;;      Temps:          3       0       0       0       0
  7765 ;;      Totals:         7       0       0       0       0
  7766 ;;Total ram usage:        7 bytes
  7767 ;; Hardware stack levels used: 1
  7768 ;; Hardware stack levels required when called: 2
  7769 ;; This function calls:
  7770 ;;		_Lcd_Write_Char
  7771 ;; This function is called by:
  7772 ;;		_main
  7773 ;; This function uses a non-reentrant model
  7774 ;;
  7775                           
  7776     1E6B                     _Lcd_Write_String:	
  7777                           ;psect for function _Lcd_Write_String
  7778                           
  7779     1E6B                     l3262:	
  7780                           ;incstack = 0
  7781                           ; Regs used in _Lcd_Write_String: [wreg-fsr0h+status,2+status,0+btemp+1+pclath+cstack]
  7782                           
  7783                           
  7784                           ;plant.c: 130:  int i;;plant.c: 131:  for(i=0;a[i]!='\0';i++)
  7785     1E6B  01FA               	clrf	Lcd_Write_String@i
  7786     1E6C  01FB               	clrf	Lcd_Write_String@i+1
  7787     1E6D  2E90               	goto	l3268
  7788     1E6E                     l3264:
  7789                           
  7790                           ;plant.c: 132:     Lcd_Write_Char(a[i]);
  7791     1E6E  087A               	movf	Lcd_Write_String@i,w
  7792     1E6F  0775               	addwf	Lcd_Write_String@a,w
  7793     1E70  00F8               	movwf	??_Lcd_Write_String+1
  7794     1E71  0876               	movf	Lcd_Write_String@a+1,w
  7795     1E72  00F7               	movwf	??_Lcd_Write_String
  7796     1E73  1803               	skipnc
  7797     1E74  0AF7               	incf	??_Lcd_Write_String,f
  7798     1E75  1FFA               	btfss	Lcd_Write_String@i,7
  7799     1E76  2E78               	goto	u4700
  7800     1E77  03F7               	decf	??_Lcd_Write_String,f
  7801     1E78                     u4700:
  7802     1E78  0877               	movf	??_Lcd_Write_String,w
  7803     1E79  00F9               	movwf	??_Lcd_Write_String+2
  7804     1E7A  0879               	movf	??_Lcd_Write_String+2,w
  7805     1E7B  1283               	bcf	3,5	;RP0=0, select bank0
  7806     1E7C  1303               	bcf	3,6	;RP1=0, select bank0
  7807     1E7D  00FF               	movwf	btemp+1
  7808     1E7E  0878               	movf	??_Lcd_Write_String+1,w
  7809     1E7F  0084               	movwf	4
  7810     1E80  160A  158A  2000  160A  158A  	fcall	stringtab
  7811     1E85  160A  118A  2004  160A  158A  	fcall	_Lcd_Write_Char
  7812     1E8A                     l3266:
  7813     1E8A  3001               	movlw	1
  7814     1E8B  07FA               	addwf	Lcd_Write_String@i,f
  7815     1E8C  1803               	skipnc
  7816     1E8D  0AFB               	incf	Lcd_Write_String@i+1,f
  7817     1E8E  3000               	movlw	0
  7818     1E8F  07FB               	addwf	Lcd_Write_String@i+1,f
  7819     1E90                     l3268:
  7820     1E90  087A               	movf	Lcd_Write_String@i,w
  7821     1E91  0775               	addwf	Lcd_Write_String@a,w
  7822     1E92  00F8               	movwf	??_Lcd_Write_String+1
  7823     1E93  0876               	movf	Lcd_Write_String@a+1,w
  7824     1E94  00F7               	movwf	??_Lcd_Write_String
  7825     1E95  1803               	skipnc
  7826     1E96  0AF7               	incf	??_Lcd_Write_String,f
  7827     1E97  1FFA               	btfss	Lcd_Write_String@i,7
  7828     1E98  2E9A               	goto	u4710
  7829     1E99  03F7               	decf	??_Lcd_Write_String,f
  7830     1E9A                     u4710:
  7831     1E9A  0877               	movf	??_Lcd_Write_String,w
  7832     1E9B  00F9               	movwf	??_Lcd_Write_String+2
  7833     1E9C  0879               	movf	??_Lcd_Write_String+2,w
  7834     1E9D  1283               	bcf	3,5	;RP0=0, select bank0
  7835     1E9E  1303               	bcf	3,6	;RP1=0, select bank0
  7836     1E9F  00FF               	movwf	btemp+1
  7837     1EA0  0878               	movf	??_Lcd_Write_String+1,w
  7838     1EA1  0084               	movwf	4
  7839     1EA2  160A  158A  2000  160A  158A  	fcall	stringtab
  7840     1EA7  3A00               	xorlw	0
  7841     1EA8  1D03               	skipz
  7842     1EA9  2EAB               	goto	u4721
  7843     1EAA  2EAC               	goto	u4720
  7844     1EAB                     u4721:
  7845     1EAB  2E6E               	goto	l3264
  7846     1EAC                     u4720:
  7847     1EAC                     l99:
  7848     1EAC  0008               	return
  7849     1EAD                     __end_of_Lcd_Write_String:
  7850                           
  7851                           	psect	text27
  7852     1004                     __ptext27:	
  7853 ;; *************** function _Lcd_Write_Char *****************
  7854 ;; Defined at:
  7855 ;;		line 114 in file "plant.c"
  7856 ;; Parameters:    Size  Location     Type
  7857 ;;  a               1    wreg     unsigned char 
  7858 ;; Auto vars:     Size  Location     Type
  7859 ;;  a               1    4[COMMON] unsigned char 
  7860 ;;  y               1    3[COMMON] unsigned char 
  7861 ;;  temp            1    2[COMMON] unsigned char 
  7862 ;; Return value:  Size  Location     Type
  7863 ;;                  1    wreg      void 
  7864 ;; Registers used:
  7865 ;;		wreg, status,2, status,0, pclath, cstack
  7866 ;; Tracked objects:
  7867 ;;		On entry : 0/0
  7868 ;;		On exit  : 0/0
  7869 ;;		Unchanged: 0/0
  7870 ;; Data sizes:     COMMON   BANK0   BANK1   BANK3   BANK2
  7871 ;;      Params:         0       0       0       0       0
  7872 ;;      Locals:         3       0       0       0       0
  7873 ;;      Temps:          1       0       0       0       0
  7874 ;;      Totals:         4       0       0       0       0
  7875 ;;Total ram usage:        4 bytes
  7876 ;; Hardware stack levels used: 1
  7877 ;; Hardware stack levels required when called: 1
  7878 ;; This function calls:
  7879 ;;		_Lcd_Port
  7880 ;; This function is called by:
  7881 ;;		_Lcd_Write_String
  7882 ;; This function uses a non-reentrant model
  7883 ;;
  7884                           
  7885     1004                     _Lcd_Write_Char:	
  7886                           ;psect for function _Lcd_Write_Char
  7887                           
  7888                           
  7889                           ;incstack = 0
  7890                           ; Regs used in _Lcd_Write_Char: [wreg+status,2+status,0+pclath+cstack]
  7891                           ;Lcd_Write_Char@a stored from wreg
  7892     1004  00F4               	movwf	Lcd_Write_Char@a
  7893     1005                     l3180:
  7894                           
  7895                           ;plant.c: 115:    char temp,y;;plant.c: 116:    temp = a&0x0F;
  7896     1005  0874               	movf	Lcd_Write_Char@a,w
  7897     1006  390F               	andlw	15
  7898     1007  00F2               	movwf	Lcd_Write_Char@temp
  7899                           
  7900                           ;plant.c: 117:    y = a&0xF0;
  7901     1008  0874               	movf	Lcd_Write_Char@a,w
  7902     1009  39F0               	andlw	240
  7903     100A  00F3               	movwf	Lcd_Write_Char@y
  7904     100B                     l3182:
  7905                           
  7906                           ;plant.c: 118:    RB0 = 1;
  7907     100B  1283               	bcf	3,5	;RP0=0, select bank0
  7908     100C  1303               	bcf	3,6	;RP1=0, select bank0
  7909     100D  1406               	bsf	6,0	;volatile
  7910     100E                     l3184:
  7911                           
  7912                           ;plant.c: 119:    Lcd_Port(y>>4);
  7913     100E  0873               	movf	Lcd_Write_Char@y,w
  7914     100F  00F1               	movwf	??_Lcd_Write_Char
  7915     1010  3004               	movlw	4
  7916     1011                     u4605:
  7917     1011  1003               	clrc
  7918     1012  0CF1               	rrf	??_Lcd_Write_Char,f
  7919     1013  3EFF               	addlw	-1
  7920     1014  1D03               	skipz
  7921     1015  2811               	goto	u4605
  7922     1016  0871               	movf	??_Lcd_Write_Char,w
  7923     1017  160A  158A  2552  160A  118A  	fcall	_Lcd_Port
  7924     101C                     l3186:
  7925                           
  7926                           ;plant.c: 120:    RB1 = 1;
  7927     101C  1283               	bcf	3,5	;RP0=0, select bank0
  7928     101D  1303               	bcf	3,6	;RP1=0, select bank0
  7929     101E  1486               	bsf	6,1	;volatile
  7930     101F                     l3188:
  7931                           
  7932                           ;plant.c: 121:    _delay((unsigned long)((40)*(20000000/4000000.0)));
  7933     101F  3042               	movlw	66
  7934     1020  00F1               	movwf	??_Lcd_Write_Char
  7935     1021                     u4907:
  7936     1021  0BF1               	decfsz	??_Lcd_Write_Char,f
  7937     1022  2821               	goto	u4907
  7938     1023  0000               	nop
  7939     1024                     l3190:
  7940                           
  7941                           ;plant.c: 122:    RB1 = 0;
  7942     1024  1283               	bcf	3,5	;RP0=0, select bank0
  7943     1025  1303               	bcf	3,6	;RP1=0, select bank0
  7944     1026  1086               	bcf	6,1	;volatile
  7945     1027                     l3192:
  7946                           
  7947                           ;plant.c: 123:    Lcd_Port(temp);
  7948     1027  0872               	movf	Lcd_Write_Char@temp,w
  7949     1028  160A  158A  2552  160A  118A  	fcall	_Lcd_Port
  7950     102D                     l3194:
  7951                           
  7952                           ;plant.c: 124:    RB1 = 1;
  7953     102D  1283               	bcf	3,5	;RP0=0, select bank0
  7954     102E  1303               	bcf	3,6	;RP1=0, select bank0
  7955     102F  1486               	bsf	6,1	;volatile
  7956     1030                     l3196:
  7957                           
  7958                           ;plant.c: 125:    _delay((unsigned long)((40)*(20000000/4000000.0)));
  7959     1030  3042               	movlw	66
  7960     1031  00F1               	movwf	??_Lcd_Write_Char
  7961     1032                     u4917:
  7962     1032  0BF1               	decfsz	??_Lcd_Write_Char,f
  7963     1033  2832               	goto	u4917
  7964     1034  0000               	nop
  7965     1035                     l3198:
  7966                           
  7967                           ;plant.c: 126:    RB1 = 0;
  7968     1035  1283               	bcf	3,5	;RP0=0, select bank0
  7969     1036  1303               	bcf	3,6	;RP1=0, select bank0
  7970     1037  1086               	bcf	6,1	;volatile
  7971     1038                     l93:
  7972     1038  0008               	return
  7973     1039                     __end_of_Lcd_Write_Char:
  7974                           
  7975                           	psect	text28
  7976     10AF                     __ptext28:	
  7977 ;; *************** function _Lcd_Set_Cursor *****************
  7978 ;; Defined at:
  7979 ;;		line 62 in file "plant.c"
  7980 ;; Parameters:    Size  Location     Type
  7981 ;;  a               1    wreg     unsigned char 
  7982 ;;  b               1    4[COMMON] unsigned char 
  7983 ;; Auto vars:     Size  Location     Type
  7984 ;;  a               1    6[COMMON] unsigned char 
  7985 ;;  temp            1    9[COMMON] unsigned char 
  7986 ;;  y               1    8[COMMON] unsigned char 
  7987 ;;  z               1    7[COMMON] unsigned char 
  7988 ;; Return value:  Size  Location     Type
  7989 ;;                  1    wreg      void 
  7990 ;; Registers used:
  7991 ;;		wreg, status,2, status,0, pclath, cstack
  7992 ;; Tracked objects:
  7993 ;;		On entry : 0/0
  7994 ;;		On exit  : 0/0
  7995 ;;		Unchanged: 0/0
  7996 ;; Data sizes:     COMMON   BANK0   BANK1   BANK3   BANK2
  7997 ;;      Params:         1       0       0       0       0
  7998 ;;      Locals:         4       0       0       0       0
  7999 ;;      Temps:          1       0       0       0       0
  8000 ;;      Totals:         6       0       0       0       0
  8001 ;;Total ram usage:        6 bytes
  8002 ;; Hardware stack levels used: 1
  8003 ;; Hardware stack levels required when called: 2
  8004 ;; This function calls:
  8005 ;;		_Lcd_Cmd
  8006 ;; This function is called by:
  8007 ;;		_main
  8008 ;; This function uses a non-reentrant model
  8009 ;;
  8010                           
  8011     10AF                     _Lcd_Set_Cursor:	
  8012                           ;psect for function _Lcd_Set_Cursor
  8013                           
  8014                           
  8015                           ;incstack = 0
  8016                           ; Regs used in _Lcd_Set_Cursor: [wreg+status,2+status,0+pclath+cstack]
  8017                           ;Lcd_Set_Cursor@a stored from wreg
  8018     10AF  00F6               	movwf	Lcd_Set_Cursor@a
  8019     10B0                     l3212:
  8020                           
  8021                           ;plant.c: 63:  char temp,z,y;;plant.c: 64:  if(a == 1){
  8022     10B0  0376               	decf	Lcd_Set_Cursor@a,w
  8023     10B1  1D03               	btfss	3,2
  8024     10B2  28B4               	goto	u4621
  8025     10B3  28B5               	goto	u4620
  8026     10B4                     u4621:
  8027     10B4  28D2               	goto	l3222
  8028     10B5                     u4620:
  8029     10B5                     l3214:
  8030                           
  8031                           ;plant.c: 65:    temp = 0x80 + b - 1;
  8032     10B5  0874               	movf	Lcd_Set_Cursor@b,w
  8033     10B6  3E7F               	addlw	127
  8034     10B7  00F9               	movwf	Lcd_Set_Cursor@temp
  8035                           
  8036                           ;plant.c: 66:   z = temp>>4;
  8037     10B8  0879               	movf	Lcd_Set_Cursor@temp,w
  8038     10B9  00F5               	movwf	??_Lcd_Set_Cursor
  8039     10BA  3004               	movlw	4
  8040     10BB                     u4635:
  8041     10BB  1003               	clrc
  8042     10BC  0CF5               	rrf	??_Lcd_Set_Cursor,f
  8043     10BD  3EFF               	addlw	-1
  8044     10BE  1D03               	skipz
  8045     10BF  28BB               	goto	u4635
  8046     10C0  0875               	movf	??_Lcd_Set_Cursor,w
  8047     10C1  00F7               	movwf	Lcd_Set_Cursor@z
  8048     10C2                     l3216:
  8049                           
  8050                           ;plant.c: 67:   y = temp & 0x0F;
  8051     10C2  0879               	movf	Lcd_Set_Cursor@temp,w
  8052     10C3  390F               	andlw	15
  8053     10C4  00F8               	movwf	Lcd_Set_Cursor@y
  8054     10C5                     l3218:
  8055                           
  8056                           ;plant.c: 68:   Lcd_Cmd(z);
  8057     10C5  0877               	movf	Lcd_Set_Cursor@z,w
  8058     10C6  160A  158A  24FC  160A  118A  	fcall	_Lcd_Cmd
  8059     10CB                     l3220:
  8060                           
  8061                           ;plant.c: 69:   Lcd_Cmd(y);
  8062     10CB  0878               	movf	Lcd_Set_Cursor@y,w
  8063     10CC  160A  158A  24FC  160A  118A  	fcall	_Lcd_Cmd
  8064                           
  8065                           ;plant.c: 70:  }
  8066     10D1  293B               	goto	l87
  8067     10D2                     l3222:
  8068     10D2  3002               	movlw	2
  8069     10D3  0676               	xorwf	Lcd_Set_Cursor@a,w
  8070     10D4  1D03               	btfss	3,2
  8071     10D5  28D7               	goto	u4641
  8072     10D6  28D8               	goto	u4640
  8073     10D7                     u4641:
  8074     10D7  28F5               	goto	l3232
  8075     10D8                     u4640:
  8076     10D8                     l3224:
  8077                           
  8078                           ;plant.c: 72:   temp = 0xC0 + b - 1;
  8079     10D8  0874               	movf	Lcd_Set_Cursor@b,w
  8080     10D9  3EBF               	addlw	191
  8081     10DA  00F9               	movwf	Lcd_Set_Cursor@temp
  8082                           
  8083                           ;plant.c: 73:   z = temp>>4;
  8084     10DB  0879               	movf	Lcd_Set_Cursor@temp,w
  8085     10DC  00F5               	movwf	??_Lcd_Set_Cursor
  8086     10DD  3004               	movlw	4
  8087     10DE                     u4655:
  8088     10DE  1003               	clrc
  8089     10DF  0CF5               	rrf	??_Lcd_Set_Cursor,f
  8090     10E0  3EFF               	addlw	-1
  8091     10E1  1D03               	skipz
  8092     10E2  28DE               	goto	u4655
  8093     10E3  0875               	movf	??_Lcd_Set_Cursor,w
  8094     10E4  00F7               	movwf	Lcd_Set_Cursor@z
  8095     10E5                     l3226:
  8096                           
  8097                           ;plant.c: 74:   y = temp & 0x0F;
  8098     10E5  0879               	movf	Lcd_Set_Cursor@temp,w
  8099     10E6  390F               	andlw	15
  8100     10E7  00F8               	movwf	Lcd_Set_Cursor@y
  8101     10E8                     l3228:
  8102                           
  8103                           ;plant.c: 75:   Lcd_Cmd(z);
  8104     10E8  0877               	movf	Lcd_Set_Cursor@z,w
  8105     10E9  160A  158A  24FC  160A  118A  	fcall	_Lcd_Cmd
  8106     10EE                     l3230:
  8107                           
  8108                           ;plant.c: 76:   Lcd_Cmd(y);
  8109     10EE  0878               	movf	Lcd_Set_Cursor@y,w
  8110     10EF  160A  158A  24FC  160A  118A  	fcall	_Lcd_Cmd
  8111                           
  8112                           ;plant.c: 77:  }
  8113     10F4  293B               	goto	l87
  8114     10F5                     l3232:
  8115     10F5  3003               	movlw	3
  8116     10F6  0676               	xorwf	Lcd_Set_Cursor@a,w
  8117     10F7  1D03               	btfss	3,2
  8118     10F8  28FA               	goto	u4661
  8119     10F9  28FB               	goto	u4660
  8120     10FA                     u4661:
  8121     10FA  2918               	goto	l3242
  8122     10FB                     u4660:
  8123     10FB                     l3234:
  8124                           
  8125                           ;plant.c: 80:         temp = 0x90 + b - 1;
  8126     10FB  0874               	movf	Lcd_Set_Cursor@b,w
  8127     10FC  3E8F               	addlw	143
  8128     10FD  00F9               	movwf	Lcd_Set_Cursor@temp
  8129                           
  8130                           ;plant.c: 81:         z = temp >> 4;
  8131     10FE  0879               	movf	Lcd_Set_Cursor@temp,w
  8132     10FF  00F5               	movwf	??_Lcd_Set_Cursor
  8133     1100  3004               	movlw	4
  8134     1101                     u4675:
  8135     1101  1003               	clrc
  8136     1102  0CF5               	rrf	??_Lcd_Set_Cursor,f
  8137     1103  3EFF               	addlw	-1
  8138     1104  1D03               	skipz
  8139     1105  2901               	goto	u4675
  8140     1106  0875               	movf	??_Lcd_Set_Cursor,w
  8141     1107  00F7               	movwf	Lcd_Set_Cursor@z
  8142     1108                     l3236:
  8143                           
  8144                           ;plant.c: 82:         y = temp & 0x0F;
  8145     1108  0879               	movf	Lcd_Set_Cursor@temp,w
  8146     1109  390F               	andlw	15
  8147     110A  00F8               	movwf	Lcd_Set_Cursor@y
  8148     110B                     l3238:
  8149                           
  8150                           ;plant.c: 83:         Lcd_Cmd(z);
  8151     110B  0877               	movf	Lcd_Set_Cursor@z,w
  8152     110C  160A  158A  24FC  160A  118A  	fcall	_Lcd_Cmd
  8153     1111                     l3240:
  8154                           
  8155                           ;plant.c: 84:         Lcd_Cmd(y);
  8156     1111  0878               	movf	Lcd_Set_Cursor@y,w
  8157     1112  160A  158A  24FC  160A  118A  	fcall	_Lcd_Cmd
  8158                           
  8159                           ;plant.c: 85:     }
  8160     1117  293B               	goto	l87
  8161     1118                     l3242:
  8162     1118  3004               	movlw	4
  8163     1119  0676               	xorwf	Lcd_Set_Cursor@a,w
  8164     111A  1D03               	btfss	3,2
  8165     111B  291D               	goto	u4681
  8166     111C  291E               	goto	u4680
  8167     111D                     u4681:
  8168     111D  293B               	goto	l83
  8169     111E                     u4680:
  8170     111E                     l3244:
  8171                           
  8172                           ;plant.c: 88:         temp = 0xD0 + b - 1;
  8173     111E  0874               	movf	Lcd_Set_Cursor@b,w
  8174     111F  3ECF               	addlw	207
  8175     1120  00F9               	movwf	Lcd_Set_Cursor@temp
  8176                           
  8177                           ;plant.c: 89:         z = temp >> 4;
  8178     1121  0879               	movf	Lcd_Set_Cursor@temp,w
  8179     1122  00F5               	movwf	??_Lcd_Set_Cursor
  8180     1123  3004               	movlw	4
  8181     1124                     u4695:
  8182     1124  1003               	clrc
  8183     1125  0CF5               	rrf	??_Lcd_Set_Cursor,f
  8184     1126  3EFF               	addlw	-1
  8185     1127  1D03               	skipz
  8186     1128  2924               	goto	u4695
  8187     1129  0875               	movf	??_Lcd_Set_Cursor,w
  8188     112A  00F7               	movwf	Lcd_Set_Cursor@z
  8189     112B                     l3246:
  8190                           
  8191                           ;plant.c: 90:         y = temp & 0x0F;
  8192     112B  0879               	movf	Lcd_Set_Cursor@temp,w
  8193     112C  390F               	andlw	15
  8194     112D  00F8               	movwf	Lcd_Set_Cursor@y
  8195     112E                     l3248:
  8196                           
  8197                           ;plant.c: 91:         Lcd_Cmd(z);
  8198     112E  0877               	movf	Lcd_Set_Cursor@z,w
  8199     112F  160A  158A  24FC  160A  118A  	fcall	_Lcd_Cmd
  8200     1134                     l3250:
  8201                           
  8202                           ;plant.c: 92:         Lcd_Cmd(y);
  8203     1134  0878               	movf	Lcd_Set_Cursor@y,w
  8204     1135  160A  158A  24FC  160A  118A  	fcall	_Lcd_Cmd
  8205     113A  293B               	goto	l87
  8206     113B                     l83:
  8207     113B                     l87:
  8208     113B  0008               	return
  8209     113C                     __end_of_Lcd_Set_Cursor:
  8210                           
  8211                           	psect	text29
  8212     0810                     __ptext29:	
  8213 ;; *************** function _Lcd_Init *****************
  8214 ;; Defined at:
  8215 ;;		line 97 in file "plant.c"
  8216 ;; Parameters:    Size  Location     Type
  8217 ;;		None
  8218 ;; Auto vars:     Size  Location     Type
  8219 ;;		None
  8220 ;; Return value:  Size  Location     Type
  8221 ;;                  1    wreg      void 
  8222 ;; Registers used:
  8223 ;;		wreg, status,2, status,0, pclath, cstack
  8224 ;; Tracked objects:
  8225 ;;		On entry : 0/0
  8226 ;;		On exit  : 0/0
  8227 ;;		Unchanged: 0/0
  8228 ;; Data sizes:     COMMON   BANK0   BANK1   BANK3   BANK2
  8229 ;;      Params:         0       0       0       0       0
  8230 ;;      Locals:         0       0       0       0       0
  8231 ;;      Temps:          2       0       0       0       0
  8232 ;;      Totals:         2       0       0       0       0
  8233 ;;Total ram usage:        2 bytes
  8234 ;; Hardware stack levels used: 1
  8235 ;; Hardware stack levels required when called: 2
  8236 ;; This function calls:
  8237 ;;		_Lcd_Cmd
  8238 ;;		_Lcd_Port
  8239 ;; This function is called by:
  8240 ;;		_main
  8241 ;; This function uses a non-reentrant model
  8242 ;;
  8243                           
  8244     0810                     _Lcd_Init:	
  8245                           ;psect for function _Lcd_Init
  8246                           
  8247     0810                     l3252:	
  8248                           ;incstack = 0
  8249                           ; Regs used in _Lcd_Init: [wreg+status,2+status,0+pclath+cstack]
  8250                           
  8251                           
  8252                           ;plant.c: 98:     Lcd_Port(0x00);
  8253     0810  3000               	movlw	0
  8254     0811  160A  158A  2552  120A  158A  	fcall	_Lcd_Port
  8255     0816                     l3254:
  8256                           
  8257                           ;plant.c: 99:     _delay((unsigned long)((20)*(20000000/4000.0)));
  8258     0816  3082               	movlw	130
  8259     0817  00F5               	movwf	??_Lcd_Init+1
  8260     0818  30DD               	movlw	221
  8261     0819  00F4               	movwf	??_Lcd_Init
  8262     081A                     u4927:
  8263     081A  0BF4               	decfsz	??_Lcd_Init,f
  8264     081B  281A               	goto	u4927
  8265     081C  0BF5               	decfsz	??_Lcd_Init+1,f
  8266     081D  281A               	goto	u4927
  8267     081E  281F               	nop2
  8268     081F                     l3256:
  8269                           
  8270                           ;plant.c: 100:     Lcd_Cmd(0x03);
  8271     081F  3003               	movlw	3
  8272     0820  160A  158A  24FC  120A  158A  	fcall	_Lcd_Cmd
  8273                           
  8274                           ;plant.c: 101:  _delay((unsigned long)((5)*(20000000/4000.0)));
  8275     0825  3021               	movlw	33
  8276     0826  00F5               	movwf	??_Lcd_Init+1
  8277     0827  3076               	movlw	118
  8278     0828  00F4               	movwf	??_Lcd_Init
  8279     0829                     u4937:
  8280     0829  0BF4               	decfsz	??_Lcd_Init,f
  8281     082A  2829               	goto	u4937
  8282     082B  0BF5               	decfsz	??_Lcd_Init+1,f
  8283     082C  2829               	goto	u4937
  8284     082D  0000               	nop
  8285     082E                     l3258:
  8286                           
  8287                           ;plant.c: 102:     Lcd_Cmd(0x03);
  8288     082E  3003               	movlw	3
  8289     082F  160A  158A  24FC  120A  158A  	fcall	_Lcd_Cmd
  8290     0834                     l3260:
  8291                           
  8292                           ;plant.c: 103:  _delay((unsigned long)((11)*(20000000/4000.0)));
  8293     0834  3048               	movlw	72
  8294     0835  00F5               	movwf	??_Lcd_Init+1
  8295     0836  306C               	movlw	108
  8296     0837  00F4               	movwf	??_Lcd_Init
  8297     0838                     u4947:
  8298     0838  0BF4               	decfsz	??_Lcd_Init,f
  8299     0839  2838               	goto	u4947
  8300     083A  0BF5               	decfsz	??_Lcd_Init+1,f
  8301     083B  2838               	goto	u4947
  8302     083C  0000               	nop
  8303                           
  8304                           ;plant.c: 104:     Lcd_Cmd(0x03);
  8305     083D  3003               	movlw	3
  8306     083E  160A  158A  24FC  120A  158A  	fcall	_Lcd_Cmd
  8307                           
  8308                           ;plant.c: 105:     Lcd_Cmd(0x02);
  8309     0843  3002               	movlw	2
  8310     0844  160A  158A  24FC  120A  158A  	fcall	_Lcd_Cmd
  8311                           
  8312                           ;plant.c: 106:     Lcd_Cmd(0x02);
  8313     0849  3002               	movlw	2
  8314     084A  160A  158A  24FC  120A  158A  	fcall	_Lcd_Cmd
  8315                           
  8316                           ;plant.c: 107:     Lcd_Cmd(0x08);
  8317     084F  3008               	movlw	8
  8318     0850  160A  158A  24FC  120A  158A  	fcall	_Lcd_Cmd
  8319                           
  8320                           ;plant.c: 108:     Lcd_Cmd(0x00);
  8321     0855  3000               	movlw	0
  8322     0856  160A  158A  24FC  120A  158A  	fcall	_Lcd_Cmd
  8323                           
  8324                           ;plant.c: 109:     Lcd_Cmd(0x0C);
  8325     085B  300C               	movlw	12
  8326     085C  160A  158A  24FC  120A  158A  	fcall	_Lcd_Cmd
  8327                           
  8328                           ;plant.c: 110:     Lcd_Cmd(0x00);
  8329     0861  3000               	movlw	0
  8330     0862  160A  158A  24FC  120A  158A  	fcall	_Lcd_Cmd
  8331                           
  8332                           ;plant.c: 111:     Lcd_Cmd(0x06);
  8333     0867  3006               	movlw	6
  8334     0868  160A  158A  24FC  120A  158A  	fcall	_Lcd_Cmd
  8335     086D                     l90:
  8336     086D  0008               	return
  8337     086E                     __end_of_Lcd_Init:
  8338                           
  8339                           	psect	text30
  8340     0803                     __ptext30:	
  8341 ;; *************** function _Lcd_Clear *****************
  8342 ;; Defined at:
  8343 ;;		line 57 in file "plant.c"
  8344 ;; Parameters:    Size  Location     Type
  8345 ;;		None
  8346 ;; Auto vars:     Size  Location     Type
  8347 ;;		None
  8348 ;; Return value:  Size  Location     Type
  8349 ;;                  1    wreg      void 
  8350 ;; Registers used:
  8351 ;;		wreg, status,2, status,0, pclath, cstack
  8352 ;; Tracked objects:
  8353 ;;		On entry : 0/0
  8354 ;;		On exit  : 0/0
  8355 ;;		Unchanged: 0/0
  8356 ;; Data sizes:     COMMON   BANK0   BANK1   BANK3   BANK2
  8357 ;;      Params:         0       0       0       0       0
  8358 ;;      Locals:         0       0       0       0       0
  8359 ;;      Temps:          0       0       0       0       0
  8360 ;;      Totals:         0       0       0       0       0
  8361 ;;Total ram usage:        0 bytes
  8362 ;; Hardware stack levels used: 1
  8363 ;; Hardware stack levels required when called: 2
  8364 ;; This function calls:
  8365 ;;		_Lcd_Cmd
  8366 ;; This function is called by:
  8367 ;;		_main
  8368 ;; This function uses a non-reentrant model
  8369 ;;
  8370                           
  8371     0803                     _Lcd_Clear:	
  8372                           ;psect for function _Lcd_Clear
  8373                           
  8374     0803                     l3210:	
  8375                           ;incstack = 0
  8376                           ; Regs used in _Lcd_Clear: [wreg+status,2+status,0+pclath+cstack]
  8377                           
  8378                           
  8379                           ;plant.c: 58:  Lcd_Cmd(0);
  8380     0803  3000               	movlw	0
  8381     0804  160A  158A  24FC  120A  158A  	fcall	_Lcd_Cmd
  8382                           
  8383                           ;plant.c: 59:  Lcd_Cmd(1);
  8384     0809  3001               	movlw	1
  8385     080A  160A  158A  24FC  120A  158A  	fcall	_Lcd_Cmd
  8386     080F                     l77:
  8387     080F  0008               	return
  8388     0810                     __end_of_Lcd_Clear:
  8389                           
  8390                           	psect	text31
  8391     1CFC                     __ptext31:	
  8392 ;; *************** function _Lcd_Cmd *****************
  8393 ;; Defined at:
  8394 ;;		line 49 in file "plant.c"
  8395 ;; Parameters:    Size  Location     Type
  8396 ;;  a               1    wreg     unsigned char 
  8397 ;; Auto vars:     Size  Location     Type
  8398 ;;  a               1    3[COMMON] unsigned char 
  8399 ;; Return value:  Size  Location     Type
  8400 ;;                  1    wreg      void 
  8401 ;; Registers used:
  8402 ;;		wreg, status,2, status,0, pclath, cstack
  8403 ;; Tracked objects:
  8404 ;;		On entry : 0/0
  8405 ;;		On exit  : 0/0
  8406 ;;		Unchanged: 0/0
  8407 ;; Data sizes:     COMMON   BANK0   BANK1   BANK3   BANK2
  8408 ;;      Params:         0       0       0       0       0
  8409 ;;      Locals:         1       0       0       0       0
  8410 ;;      Temps:          2       0       0       0       0
  8411 ;;      Totals:         3       0       0       0       0
  8412 ;;Total ram usage:        3 bytes
  8413 ;; Hardware stack levels used: 1
  8414 ;; Hardware stack levels required when called: 1
  8415 ;; This function calls:
  8416 ;;		_Lcd_Port
  8417 ;; This function is called by:
  8418 ;;		_Lcd_Clear
  8419 ;;		_Lcd_Set_Cursor
  8420 ;;		_Lcd_Init
  8421 ;;		_Lcd_Shift_Right
  8422 ;;		_Lcd_Shift_Left
  8423 ;; This function uses a non-reentrant model
  8424 ;;
  8425                           
  8426     1CFC                     _Lcd_Cmd:	
  8427                           ;psect for function _Lcd_Cmd
  8428                           
  8429                           
  8430                           ;incstack = 0
  8431                           ; Regs used in _Lcd_Cmd: [wreg+status,2+status,0+pclath+cstack]
  8432                           ;Lcd_Cmd@a stored from wreg
  8433     1CFC  00F3               	movwf	Lcd_Cmd@a
  8434     1CFD                     l3170:
  8435                           
  8436                           ;plant.c: 50:  RB0 = 0;
  8437     1CFD  1283               	bcf	3,5	;RP0=0, select bank0
  8438     1CFE  1303               	bcf	3,6	;RP1=0, select bank0
  8439     1CFF  1006               	bcf	6,0	;volatile
  8440     1D00                     l3172:
  8441                           
  8442                           ;plant.c: 51:  Lcd_Port(a);
  8443     1D00  0873               	movf	Lcd_Cmd@a,w
  8444     1D01  160A  158A  2552  160A  158A  	fcall	_Lcd_Port
  8445     1D06                     l3174:
  8446                           
  8447                           ;plant.c: 52:  RB1 = 1;
  8448     1D06  1283               	bcf	3,5	;RP0=0, select bank0
  8449     1D07  1303               	bcf	3,6	;RP1=0, select bank0
  8450     1D08  1486               	bsf	6,1	;volatile
  8451     1D09                     l3176:
  8452                           
  8453                           ;plant.c: 53:     _delay((unsigned long)((4)*(20000000/4000.0)));
  8454     1D09  301A               	movlw	26
  8455     1D0A  00F2               	movwf	??_Lcd_Cmd+1
  8456     1D0B  30F8               	movlw	248
  8457     1D0C  00F1               	movwf	??_Lcd_Cmd
  8458     1D0D                     u4957:
  8459     1D0D  0BF1               	decfsz	??_Lcd_Cmd,f
  8460     1D0E  2D0D               	goto	u4957
  8461     1D0F  0BF2               	decfsz	??_Lcd_Cmd+1,f
  8462     1D10  2D0D               	goto	u4957
  8463     1D11  0000               	nop
  8464     1D12                     l3178:
  8465                           
  8466                           ;plant.c: 54:     RB1 = 0;
  8467     1D12  1283               	bcf	3,5	;RP0=0, select bank0
  8468     1D13  1303               	bcf	3,6	;RP1=0, select bank0
  8469     1D14  1086               	bcf	6,1	;volatile
  8470     1D15                     l74:
  8471     1D15  0008               	return
  8472     1D16                     __end_of_Lcd_Cmd:
  8473                           
  8474                           	psect	text32
  8475     1D52                     __ptext32:	
  8476 ;; *************** function _Lcd_Port *****************
  8477 ;; Defined at:
  8478 ;;		line 27 in file "plant.c"
  8479 ;; Parameters:    Size  Location     Type
  8480 ;;  a               1    wreg     unsigned char 
  8481 ;; Auto vars:     Size  Location     Type
  8482 ;;  a               1    0[COMMON] unsigned char 
  8483 ;; Return value:  Size  Location     Type
  8484 ;;                  1    wreg      void 
  8485 ;; Registers used:
  8486 ;;		wreg
  8487 ;; Tracked objects:
  8488 ;;		On entry : 0/0
  8489 ;;		On exit  : 0/0
  8490 ;;		Unchanged: 0/0
  8491 ;; Data sizes:     COMMON   BANK0   BANK1   BANK3   BANK2
  8492 ;;      Params:         0       0       0       0       0
  8493 ;;      Locals:         1       0       0       0       0
  8494 ;;      Temps:          0       0       0       0       0
  8495 ;;      Totals:         1       0       0       0       0
  8496 ;;Total ram usage:        1 bytes
  8497 ;; Hardware stack levels used: 1
  8498 ;; This function calls:
  8499 ;;		Nothing
  8500 ;; This function is called by:
  8501 ;;		_Lcd_Cmd
  8502 ;;		_Lcd_Init
  8503 ;;		_Lcd_Write_Char
  8504 ;; This function uses a non-reentrant model
  8505 ;;
  8506                           
  8507     1D52                     _Lcd_Port:	
  8508                           ;psect for function _Lcd_Port
  8509                           
  8510                           
  8511                           ;incstack = 0
  8512                           ; Regs used in _Lcd_Port: [wreg]
  8513                           ;Lcd_Port@a stored from wreg
  8514     1D52  00F0               	movwf	Lcd_Port@a
  8515     1D53                     l3094:
  8516                           
  8517                           ;plant.c: 28:  if(a & 1)
  8518     1D53  1C70               	btfss	Lcd_Port@a,0
  8519     1D54  2D56               	goto	u4521
  8520     1D55  2D57               	goto	u4520
  8521     1D56                     u4521:
  8522     1D56  2D5B               	goto	l63
  8523     1D57                     u4520:
  8524     1D57                     l3096:
  8525                           
  8526                           ;plant.c: 29:   RB2 = 1;
  8527     1D57  1283               	bcf	3,5	;RP0=0, select bank0
  8528     1D58  1303               	bcf	3,6	;RP1=0, select bank0
  8529     1D59  1506               	bsf	6,2	;volatile
  8530     1D5A  2D5E               	goto	l64
  8531     1D5B                     l63:	
  8532                           ;plant.c: 30:  else
  8533                           
  8534                           
  8535                           ;plant.c: 31:   RB2 = 0;
  8536     1D5B  1283               	bcf	3,5	;RP0=0, select bank0
  8537     1D5C  1303               	bcf	3,6	;RP1=0, select bank0
  8538     1D5D  1106               	bcf	6,2	;volatile
  8539     1D5E                     l64:
  8540                           
  8541                           ;plant.c: 33:  if(a & 2)
  8542     1D5E  1CF0               	btfss	Lcd_Port@a,1
  8543     1D5F  2D61               	goto	u4531
  8544     1D60  2D62               	goto	u4530
  8545     1D61                     u4531:
  8546     1D61  2D64               	goto	l65
  8547     1D62                     u4530:
  8548     1D62                     l3098:
  8549                           
  8550                           ;plant.c: 34:   RB3 = 1;
  8551     1D62  1586               	bsf	6,3	;volatile
  8552     1D63  2D65               	goto	l66
  8553     1D64                     l65:	
  8554                           ;plant.c: 35:  else
  8555                           
  8556                           
  8557                           ;plant.c: 36:   RB3 = 0;
  8558     1D64  1186               	bcf	6,3	;volatile
  8559     1D65                     l66:
  8560                           
  8561                           ;plant.c: 38:  if(a & 4)
  8562     1D65  1D70               	btfss	Lcd_Port@a,2
  8563     1D66  2D68               	goto	u4541
  8564     1D67  2D69               	goto	u4540
  8565     1D68                     u4541:
  8566     1D68  2D6B               	goto	l67
  8567     1D69                     u4540:
  8568     1D69                     l3100:
  8569                           
  8570                           ;plant.c: 39:   RB4 = 1;
  8571     1D69  1606               	bsf	6,4	;volatile
  8572     1D6A  2D6C               	goto	l68
  8573     1D6B                     l67:	
  8574                           ;plant.c: 40:  else
  8575                           
  8576                           
  8577                           ;plant.c: 41:   RB4 = 0;
  8578     1D6B  1206               	bcf	6,4	;volatile
  8579     1D6C                     l68:
  8580                           
  8581                           ;plant.c: 43:  if(a & 8)
  8582     1D6C  1DF0               	btfss	Lcd_Port@a,3
  8583     1D6D  2D6F               	goto	u4551
  8584     1D6E  2D70               	goto	u4550
  8585     1D6F                     u4551:
  8586     1D6F  2D72               	goto	l69
  8587     1D70                     u4550:
  8588     1D70                     l3102:
  8589                           
  8590                           ;plant.c: 44:   RB5 = 1;
  8591     1D70  1686               	bsf	6,5	;volatile
  8592     1D71  2D73               	goto	l71
  8593     1D72                     l69:	
  8594                           ;plant.c: 45:  else
  8595                           
  8596                           
  8597                           ;plant.c: 46:   RB5 = 0;
  8598     1D72  1286               	bcf	6,5	;volatile
  8599     1D73                     l71:
  8600     1D73  0008               	return
  8601     1D74                     __end_of_Lcd_Port:
  8602                           
  8603                           	psect	text33
  8604     1000                     __ptext33:	
  8605 ;; *************** function _LCD *****************
  8606 ;; Defined at:
  8607 ;;		line 145 in file "plant.c"
  8608 ;; Parameters:    Size  Location     Type
  8609 ;;		None
  8610 ;; Auto vars:     Size  Location     Type
  8611 ;;  a               2    0        unsigned int 
  8612 ;; Return value:  Size  Location     Type
  8613 ;;                  1    wreg      void 
  8614 ;; Registers used:
  8615 ;;		status,2
  8616 ;; Tracked objects:
  8617 ;;		On entry : 0/0
  8618 ;;		On exit  : 0/0
  8619 ;;		Unchanged: 0/0
  8620 ;; Data sizes:     COMMON   BANK0   BANK1   BANK3   BANK2
  8621 ;;      Params:         0       0       0       0       0
  8622 ;;      Locals:         0       0       0       0       0
  8623 ;;      Temps:          0       0       0       0       0
  8624 ;;      Totals:         0       0       0       0       0
  8625 ;;Total ram usage:        0 bytes
  8626 ;; Hardware stack levels used: 1
  8627 ;; This function calls:
  8628 ;;		Nothing
  8629 ;; This function is called by:
  8630 ;;		_main
  8631 ;; This function uses a non-reentrant model
  8632 ;;
  8633                           
  8634     1000                     _LCD:	
  8635                           ;psect for function _LCD
  8636                           
  8637     1000                     l3270:	
  8638                           ;incstack = 0
  8639                           ; Regs used in _LCD: [status,2]
  8640                           
  8641                           
  8642                           ;plant.c: 146:     unsigned int a;;plant.c: 147:     TRISB = 0x00;
  8643     1000  1683               	bsf	3,5	;RP0=1, select bank1
  8644     1001  1303               	bcf	3,6	;RP1=0, select bank1
  8645     1002  0186               	clrf	6	;volatile
  8646     1003                     l108:
  8647     1003  0008               	return
  8648     1004                     __end_of_LCD:
  8649                           
  8650                           	psect	text34
  8651     1EFB                     __ptext34:	
  8652 ;; *************** function _ADCRead *****************
  8653 ;; Defined at:
  8654 ;;		line 165 in file "plant.c"
  8655 ;; Parameters:    Size  Location     Type
  8656 ;;  x               2    0[COMMON] int 
  8657 ;; Auto vars:     Size  Location     Type
  8658 ;;		None
  8659 ;; Return value:  Size  Location     Type
  8660 ;;                  2    0[COMMON] int 
  8661 ;; Registers used:
  8662 ;;		wreg, fsr0l, fsr0h, status,2, status,0
  8663 ;; Tracked objects:
  8664 ;;		On entry : 0/0
  8665 ;;		On exit  : 0/0
  8666 ;;		Unchanged: 0/0
  8667 ;; Data sizes:     COMMON   BANK0   BANK1   BANK3   BANK2
  8668 ;;      Params:         2       0       0       0       0
  8669 ;;      Locals:         0       0       0       0       0
  8670 ;;      Temps:          1       0       0       0       0
  8671 ;;      Totals:         3       0       0       0       0
  8672 ;;Total ram usage:        3 bytes
  8673 ;; Hardware stack levels used: 1
  8674 ;; This function calls:
  8675 ;;		Nothing
  8676 ;; This function is called by:
  8677 ;;		_main
  8678 ;; This function uses a non-reentrant model
  8679 ;;
  8680                           
  8681     1EFB                     _ADCRead:	
  8682                           ;psect for function _ADCRead
  8683                           
  8684     1EFB                     l3274:	
  8685                           ;incstack = 0
  8686                           ; Regs used in _ADCRead: [wreg-fsr0h+status,2+status,0]
  8687                           
  8688                           
  8689                           ;plant.c: 166:  switch (x) {
  8690     1EFB  2F24               	goto	l3290
  8691     1EFC                     l3276:
  8692                           
  8693                           ;plant.c: 168:   ADCON0bits.CHS = 0b0000;
  8694     1EFC  30C7               	movlw	-57
  8695     1EFD  1283               	bcf	3,5	;RP0=0, select bank0
  8696     1EFE  1303               	bcf	3,6	;RP1=0, select bank0
  8697     1EFF  059F               	andwf	31,f	;volatile
  8698                           
  8699                           ;plant.c: 169:   break;
  8700     1F00  2F3D               	goto	l3292
  8701     1F01                     l3278:
  8702                           
  8703                           ;plant.c: 172:   ADCON0bits.CHS = 0b0001;
  8704     1F01  1283               	bcf	3,5	;RP0=0, select bank0
  8705     1F02  1303               	bcf	3,6	;RP1=0, select bank0
  8706     1F03  081F               	movf	31,w	;volatile
  8707     1F04  39C7               	andlw	-57
  8708     1F05  3808               	iorlw	8
  8709     1F06  009F               	movwf	31	;volatile
  8710                           
  8711                           ;plant.c: 173:   break;
  8712     1F07  2F3D               	goto	l3292
  8713     1F08                     l3280:
  8714                           
  8715                           ;plant.c: 176:   ADCON0bits.CHS = 0b0010;
  8716     1F08  1283               	bcf	3,5	;RP0=0, select bank0
  8717     1F09  1303               	bcf	3,6	;RP1=0, select bank0
  8718     1F0A  081F               	movf	31,w	;volatile
  8719     1F0B  39C7               	andlw	-57
  8720     1F0C  3810               	iorlw	16
  8721     1F0D  009F               	movwf	31	;volatile
  8722                           
  8723                           ;plant.c: 177:   break;
  8724     1F0E  2F3D               	goto	l3292
  8725     1F0F                     l3282:
  8726                           
  8727                           ;plant.c: 180:   ADCON0bits.CHS = 0b0011;
  8728     1F0F  1283               	bcf	3,5	;RP0=0, select bank0
  8729     1F10  1303               	bcf	3,6	;RP1=0, select bank0
  8730     1F11  081F               	movf	31,w	;volatile
  8731     1F12  39C7               	andlw	-57
  8732     1F13  3818               	iorlw	24
  8733     1F14  009F               	movwf	31	;volatile
  8734                           
  8735                           ;plant.c: 181:   break;
  8736     1F15  2F3D               	goto	l3292
  8737     1F16                     l3284:
  8738                           
  8739                           ;plant.c: 184:   ADCON0bits.CHS = 0b0100;
  8740     1F16  1283               	bcf	3,5	;RP0=0, select bank0
  8741     1F17  1303               	bcf	3,6	;RP1=0, select bank0
  8742     1F18  081F               	movf	31,w	;volatile
  8743     1F19  39C7               	andlw	-57
  8744     1F1A  3820               	iorlw	32
  8745     1F1B  009F               	movwf	31	;volatile
  8746                           
  8747                           ;plant.c: 185:   break;
  8748     1F1C  2F3D               	goto	l3292
  8749     1F1D                     l3286:
  8750                           
  8751                           ;plant.c: 188:   ADCON0bits.CHS = 0b0101;
  8752     1F1D  1283               	bcf	3,5	;RP0=0, select bank0
  8753     1F1E  1303               	bcf	3,6	;RP1=0, select bank0
  8754     1F1F  081F               	movf	31,w	;volatile
  8755     1F20  39C7               	andlw	-57
  8756     1F21  3828               	iorlw	40
  8757     1F22  009F               	movwf	31	;volatile
  8758                           
  8759                           ;plant.c: 189:   break;
  8760     1F23  2F3D               	goto	l3292
  8761     1F24                     l3290:
  8762                           
  8763                           ; Switch on 2 bytes has been partitioned into a top level switch of size 1, and 1 sub-sw
      +                          itches
  8764                           ; Switch size 1, requested type "simple"
  8765                           ; Number of cases is 1, Range of values is 0 to 0
  8766                           ; switch strategies available:
  8767                           ; Name         Instructions Cycles
  8768                           ; simple_byte            4     3 (average)
  8769                           ; direct_byte           11     8 (fixed)
  8770                           ; jumptable            260     6 (fixed)
  8771                           ;	Chosen strategy is simple_byte
  8772     1F24  0871               	movf	ADCRead@x+1,w
  8773     1F25  3A00               	xorlw	0	; case 0
  8774     1F26  1903               	skipnz
  8775     1F27  2F29               	goto	l3448
  8776     1F28  2F3D               	goto	l3292
  8777     1F29                     l3448:
  8778                           
  8779                           ; Switch size 1, requested type "simple"
  8780                           ; Number of cases is 6, Range of values is 0 to 5
  8781                           ; switch strategies available:
  8782                           ; Name         Instructions Cycles
  8783                           ; simple_byte           19    10 (average)
  8784                           ; direct_byte           26     8 (fixed)
  8785                           ; jumptable            260     6 (fixed)
  8786                           ;	Chosen strategy is simple_byte
  8787     1F29  0870               	movf	ADCRead@x,w
  8788     1F2A  3A00               	xorlw	0	; case 0
  8789     1F2B  1903               	skipnz
  8790     1F2C  2EFC               	goto	l3276
  8791     1F2D  3A01               	xorlw	1	; case 1
  8792     1F2E  1903               	skipnz
  8793     1F2F  2F01               	goto	l3278
  8794     1F30  3A03               	xorlw	3	; case 2
  8795     1F31  1903               	skipnz
  8796     1F32  2F08               	goto	l3280
  8797     1F33  3A01               	xorlw	1	; case 3
  8798     1F34  1903               	skipnz
  8799     1F35  2F0F               	goto	l3282
  8800     1F36  3A07               	xorlw	7	; case 4
  8801     1F37  1903               	skipnz
  8802     1F38  2F16               	goto	l3284
  8803     1F39  3A01               	xorlw	1	; case 5
  8804     1F3A  1903               	skipnz
  8805     1F3B  2F1D               	goto	l3286
  8806     1F3C  2F3D               	goto	l3292
  8807     1F3D                     l3292:
  8808                           
  8809                           ;plant.c: 194:  _delay((unsigned long)((100)*(20000000/4000000.0)));
  8810     1F3D  30A6               	movlw	166
  8811     1F3E  00F2               	movwf	??_ADCRead
  8812     1F3F                     u4967:
  8813     1F3F  0BF2               	decfsz	??_ADCRead,f
  8814     1F40  2F3F               	goto	u4967
  8815     1F41  0000               	nop
  8816     1F42                     l3294:
  8817                           
  8818                           ;plant.c: 196:  GO_nDONE = 1;
  8819     1F42  1283               	bcf	3,5	;RP0=0, select bank0
  8820     1F43  1303               	bcf	3,6	;RP1=0, select bank0
  8821     1F44  151F               	bsf	31,2	;volatile
  8822     1F45                     l123:	
  8823                           ;plant.c: 197:  while (ADCON0bits.GO_nDONE);
  8824                           
  8825     1F45  191F               	btfsc	31,2	;volatile
  8826     1F46  2F48               	goto	u4731
  8827     1F47  2F49               	goto	u4730
  8828     1F48                     u4731:
  8829     1F48  2F45               	goto	l123
  8830     1F49                     u4730:
  8831     1F49                     l3296:
  8832                           
  8833                           ;plant.c: 199:  return ((unsigned int)(ADRESH << 8) | ADRESL);
  8834     1F49  081E               	movf	30,w	;volatile
  8835     1F4A  00F1               	movwf	?_ADCRead+1
  8836     1F4B  1683               	bsf	3,5	;RP0=1, select bank1
  8837     1F4C  1303               	bcf	3,6	;RP1=0, select bank1
  8838     1F4D  081E               	movf	30,w	;volatile
  8839     1F4E  00F0               	movwf	?_ADCRead
  8840     1F4F                     l126:
  8841     1F4F  0008               	return
  8842     1F50                     __end_of_ADCRead:
  8843                           
  8844                           	psect	text35
  8845     1CD6                     __ptext35:	
  8846 ;; *************** function _ADCInit *****************
  8847 ;; Defined at:
  8848 ;;		line 150 in file "plant.c"
  8849 ;; Parameters:    Size  Location     Type
  8850 ;;		None
  8851 ;; Auto vars:     Size  Location     Type
  8852 ;;		None
  8853 ;; Return value:  Size  Location     Type
  8854 ;;                  1    wreg      void 
  8855 ;; Registers used:
  8856 ;;		None
  8857 ;; Tracked objects:
  8858 ;;		On entry : 0/0
  8859 ;;		On exit  : 0/0
  8860 ;;		Unchanged: 0/0
  8861 ;; Data sizes:     COMMON   BANK0   BANK1   BANK3   BANK2
  8862 ;;      Params:         0       0       0       0       0
  8863 ;;      Locals:         0       0       0       0       0
  8864 ;;      Temps:          0       0       0       0       0
  8865 ;;      Totals:         0       0       0       0       0
  8866 ;;Total ram usage:        0 bytes
  8867 ;; Hardware stack levels used: 1
  8868 ;; This function calls:
  8869 ;;		Nothing
  8870 ;; This function is called by:
  8871 ;;		_main
  8872 ;; This function uses a non-reentrant model
  8873 ;;
  8874                           
  8875     1CD6                     _ADCInit:	
  8876                           ;psect for function _ADCInit
  8877                           
  8878     1CD6                     l3272:	
  8879                           ;incstack = 0
  8880                           ; Regs used in _ADCInit: []
  8881                           
  8882                           
  8883                           ;plant.c: 151:  ADCON0bits.ADCS0 = 1;
  8884     1CD6  1283               	bcf	3,5	;RP0=0, select bank0
  8885     1CD7  1303               	bcf	3,6	;RP1=0, select bank0
  8886     1CD8  171F               	bsf	31,6	;volatile
  8887                           
  8888                           ;plant.c: 152:  ADCON0bits.ADCS1 = 0;
  8889     1CD9  139F               	bcf	31,7	;volatile
  8890                           
  8891                           ;plant.c: 153:  ADCON1bits.ADCS2 = 1;
  8892     1CDA  1683               	bsf	3,5	;RP0=1, select bank1
  8893     1CDB  1303               	bcf	3,6	;RP1=0, select bank1
  8894     1CDC  171F               	bsf	31,6	;volatile
  8895                           
  8896                           ;plant.c: 155:  ADCON1bits.ADFM = 1;
  8897     1CDD  179F               	bsf	31,7	;volatile
  8898                           
  8899                           ;plant.c: 156:  ADCON1bits.PCFG0 = 0;
  8900     1CDE  101F               	bcf	31,0	;volatile
  8901                           
  8902                           ;plant.c: 157:  ADCON1bits.PCFG1 = 0;
  8903     1CDF  109F               	bcf	31,1	;volatile
  8904                           
  8905                           ;plant.c: 158:  ADCON1bits.PCFG2 = 0;
  8906     1CE0  111F               	bcf	31,2	;volatile
  8907                           
  8908                           ;plant.c: 159:  ADCON1bits.PCFG3 = 0;
  8909     1CE1  119F               	bcf	31,3	;volatile
  8910                           
  8911                           ;plant.c: 161:  ADCON0bits.ADON = 1;
  8912     1CE2  1283               	bcf	3,5	;RP0=0, select bank0
  8913     1CE3  1303               	bcf	3,6	;RP1=0, select bank0
  8914     1CE4  141F               	bsf	31,0	;volatile
  8915                           
  8916                           ;plant.c: 162:  ADCON0bits.GO_nDONE = 1;
  8917     1CE5  151F               	bsf	31,2	;volatile
  8918     1CE6                     l111:
  8919     1CE6  0008               	return
  8920     1CE7                     __end_of_ADCInit:
  8921     007E                     btemp	set	126	;btemp
  8922     007E                     wtemp0	set	126
  8923                           
  8924                           	psect	config
  8925                           
  8926                           ;Config register CONFIG @ 0x2007
  8927                           ;	Oscillator Selection bits
  8928                           ;	FOSC = HS, HS oscillator
  8929                           ;	Watchdog Timer Enable bit
  8930                           ;	WDTE = OFF, WDT disabled
  8931                           ;	Power-up Timer Enable bit
  8932                           ;	PWRTE = ON, PWRT enabled
  8933                           ;	Brown-out Reset Enable bit
  8934                           ;	BOREN = OFF, BOR disabled
  8935                           ;	Low-Voltage (Single-Supply) In-Circuit Serial Programming Enable bit
  8936                           ;	LVP = OFF, RB3 is digital I/O, HV on MCLR must be used for programming
  8937                           ;	Data EEPROM Memory Code Protection bit
  8938                           ;	CPD = OFF, Data EEPROM code protection off
  8939                           ;	Flash Program Memory Write Enable bits
  8940                           ;	WRT = OFF, Write protection off; all program memory may be written to by EECON control
  8941                           ;	In-Circuit Debugger Mode bit
  8942                           ;	DEBUG = 0x1, unprogrammed default
  8943                           ;	Flash Program Memory Code Protection bit
  8944                           ;	CP = OFF, Code protection off
  8945     2007                     	org	8199
  8946     2007  3F32               	dw	16178
  8947                           
  8948                           	psect	text6_split_1
  8949     00E1                     l2920:
  8950                           
  8951                           ;C:\Program Files\Microchip\xc8\v2.46\pic\sources\c99\common\doprnt.c: 657:     u.f = 1.
      +                          0;
  8952     00E1  303F               	movlw	63
  8953     00E2  1683               	bsf	3,5	;RP0=1, select bank1
  8954     00E3  1303               	bcf	3,6	;RP1=0, select bank1
  8955     00E4  00D5               	movwf	(efgtoa@u+3)^(0+128)
  8956     00E5  3080               	movlw	128
  8957     00E6  00D4               	movwf	(efgtoa@u+2)^(0+128)
  8958     00E7  3000               	movlw	0
  8959     00E8  00D3               	movwf	(efgtoa@u+1)^(0+128)
  8960     00E9  3000               	movlw	0
  8961     00EA  00D2               	movwf	efgtoa@u^(0+128)
  8962     00EB                     l2922:
  8963                           
  8964                           ;C:\Program Files\Microchip\xc8\v2.46\pic\sources\c99\common\doprnt.c: 658:     e = 0;
  8965     00EB  01B9               	clrf	efgtoa@e^(0+128)
  8966     00EC  01BA               	clrf	(efgtoa@e+1)^(0+128)
  8967     00ED                     l2924:
  8968                           
  8969                           ;C:\Program Files\Microchip\xc8\v2.46\pic\sources\c99\common\doprnt.c: 659:  if (!(g.f =
      +                          = 0.0)) {
  8970     00ED  0851               	movf	(efgtoa@g+3)^(0+128),w
  8971     00EE  00F3               	movwf	___fleq@ff1+3
  8972     00EF  0850               	movf	(efgtoa@g+2)^(0+128),w
  8973     00F0  00F2               	movwf	___fleq@ff1+2
  8974     00F1  084F               	movf	(efgtoa@g+1)^(0+128),w
  8975     00F2  00F1               	movwf	___fleq@ff1+1
  8976     00F3  084E               	movf	efgtoa@g^(0+128),w
  8977     00F4  00F0               	movwf	___fleq@ff1
  8978     00F5  3000               	movlw	0
  8979     00F6  00F7               	movwf	___fleq@ff2+3
  8980     00F7  3000               	movlw	0
  8981     00F8  00F6               	movwf	___fleq@ff2+2
  8982     00F9  3000               	movlw	0
  8983     00FA  00F5               	movwf	___fleq@ff2+1
  8984     00FB  3000               	movlw	0
  8985     00FC  00F4               	movwf	___fleq@ff2
  8986     00FD  160A  158A  26AD  120A  118A  	fcall	___fleq
  8987     0102  1803               	btfsc	3,0
  8988     0103  2905               	goto	u4221
  8989     0104  2906               	goto	u4220
  8990     0105                     u4221:
  8991     0105  2ACF               	goto	l2950
  8992     0106                     u4220:
  8993     0106  2917               	goto	l2930
  8994     0107                     l2928:
  8995                           
  8996                           ;C:\Program Files\Microchip\xc8\v2.46\pic\sources\c99\common\doprnt.c: 661:    u = ou;
  8997     0107  1683               	bsf	3,5	;RP0=1, select bank1
  8998     0108  1303               	bcf	3,6	;RP1=0, select bank1
  8999     0109  0840               	movf	(efgtoa@ou+3)^(0+128),w
  9000     010A  00D5               	movwf	(efgtoa@u+3)^(0+128)
  9001     010B  083F               	movf	(efgtoa@ou+2)^(0+128),w
  9002     010C  00D4               	movwf	(efgtoa@u+2)^(0+128)
  9003     010D  083E               	movf	(efgtoa@ou+1)^(0+128),w
  9004     010E  00D3               	movwf	(efgtoa@u+1)^(0+128)
  9005     010F  083D               	movf	efgtoa@ou^(0+128),w
  9006     0110  00D2               	movwf	efgtoa@u^(0+128)
  9007                           
  9008                           ;C:\Program Files\Microchip\xc8\v2.46\pic\sources\c99\common\doprnt.c: 662:    ++e;
  9009     0111  3001               	movlw	1
  9010     0112  07B9               	addwf	efgtoa@e^(0+128),f
  9011     0113  1803               	skipnc
  9012     0114  0ABA               	incf	(efgtoa@e+1)^(0+128),f
  9013     0115  3000               	movlw	0
  9014     0116  07BA               	addwf	(efgtoa@e+1)^(0+128),f
  9015     0117                     l2930:
  9016                           
  9017                           ;C:\Program Files\Microchip\xc8\v2.46\pic\sources\c99\common\doprnt.c: 660:   while ((la
      +                          bs((g).u-((ou.f = u.f*10.0,ou)).u) <= 1) || g.f > ou.f) {
  9018     0117  3041               	movlw	65
  9019     0118  1283               	bcf	3,5	;RP0=0, select bank0
  9020     0119  1303               	bcf	3,6	;RP1=0, select bank0
  9021     011A  00AB               	movwf	___flmul@b+3
  9022     011B  3020               	movlw	32
  9023     011C  00AA               	movwf	___flmul@b+2
  9024     011D  3000               	movlw	0
  9025     011E  00A9               	movwf	___flmul@b+1
  9026     011F  3000               	movlw	0
  9027     0120  00A8               	movwf	___flmul@b
  9028     0121  1683               	bsf	3,5	;RP0=1, select bank1
  9029     0122  1303               	bcf	3,6	;RP1=0, select bank1
  9030     0123  0855               	movf	(efgtoa@u+3)^(0+128),w
  9031     0124  1283               	bcf	3,5	;RP0=0, select bank0
  9032     0125  1303               	bcf	3,6	;RP1=0, select bank0
  9033     0126  00AF               	movwf	___flmul@a+3
  9034     0127  1683               	bsf	3,5	;RP0=1, select bank1
  9035     0128  1303               	bcf	3,6	;RP1=0, select bank1
  9036     0129  0854               	movf	(efgtoa@u+2)^(0+128),w
  9037     012A  1283               	bcf	3,5	;RP0=0, select bank0
  9038     012B  1303               	bcf	3,6	;RP1=0, select bank0
  9039     012C  00AE               	movwf	___flmul@a+2
  9040     012D  1683               	bsf	3,5	;RP0=1, select bank1
  9041     012E  1303               	bcf	3,6	;RP1=0, select bank1
  9042     012F  0853               	movf	(efgtoa@u+1)^(0+128),w
  9043     0130  1283               	bcf	3,5	;RP0=0, select bank0
  9044     0131  1303               	bcf	3,6	;RP1=0, select bank0
  9045     0132  00AD               	movwf	___flmul@a+1
  9046     0133  1683               	bsf	3,5	;RP0=1, select bank1
  9047     0134  1303               	bcf	3,6	;RP1=0, select bank1
  9048     0135  0852               	movf	efgtoa@u^(0+128),w
  9049     0136  1283               	bcf	3,5	;RP0=0, select bank0
  9050     0137  1303               	bcf	3,6	;RP1=0, select bank0
  9051     0138  00AC               	movwf	___flmul@a
  9052     0139  120A  158A  24BB  120A  118A  	fcall	___flmul
  9053     013E  1283               	bcf	3,5	;RP0=0, select bank0
  9054     013F  1303               	bcf	3,6	;RP1=0, select bank0
  9055     0140  082B               	movf	?___flmul+3,w
  9056     0141  1683               	bsf	3,5	;RP0=1, select bank1
  9057     0142  1303               	bcf	3,6	;RP1=0, select bank1
  9058     0143  00C0               	movwf	(efgtoa@ou+3)^(0+128)
  9059     0144  1283               	bcf	3,5	;RP0=0, select bank0
  9060     0145  1303               	bcf	3,6	;RP1=0, select bank0
  9061     0146  082A               	movf	?___flmul+2,w
  9062     0147  1683               	bsf	3,5	;RP0=1, select bank1
  9063     0148  1303               	bcf	3,6	;RP1=0, select bank1
  9064     0149  00BF               	movwf	(efgtoa@ou+2)^(0+128)
  9065     014A  1283               	bcf	3,5	;RP0=0, select bank0
  9066     014B  1303               	bcf	3,6	;RP1=0, select bank0
  9067     014C  0829               	movf	?___flmul+1,w
  9068     014D  1683               	bsf	3,5	;RP0=1, select bank1
  9069     014E  1303               	bcf	3,6	;RP1=0, select bank1
  9070     014F  00BE               	movwf	(efgtoa@ou+1)^(0+128)
  9071     0150  1283               	bcf	3,5	;RP0=0, select bank0
  9072     0151  1303               	bcf	3,6	;RP1=0, select bank0
  9073     0152  0828               	movf	?___flmul,w
  9074     0153  1683               	bsf	3,5	;RP0=1, select bank1
  9075     0154  1303               	bcf	3,6	;RP1=0, select bank1
  9076     0155  00BD               	movwf	efgtoa@ou^(0+128)
  9077     0156                     l2932:
  9078     0156  084E               	movf	efgtoa@g^(0+128),w
  9079     0157  00A5               	movwf	??_efgtoa^(0+128)
  9080     0158  084F               	movf	(efgtoa@g+1)^(0+128),w
  9081     0159  00A6               	movwf	(??_efgtoa^(0+128)+1)
  9082     015A  0850               	movf	(efgtoa@g+2)^(0+128),w
  9083     015B  00A7               	movwf	(??_efgtoa^(0+128)+2)
  9084     015C  0851               	movf	(efgtoa@g+3)^(0+128),w
  9085     015D  00A8               	movwf	(??_efgtoa^(0+128)+3)
  9086     015E  083D               	movf	efgtoa@ou^(0+128),w
  9087     015F  02A5               	subwf	??_efgtoa^(0+128),f
  9088     0160  083E               	movf	(efgtoa@ou+1)^(0+128),w
  9089     0161  1C03               	skipc
  9090     0162  0F3E               	incfsz	(efgtoa@ou+1)^(0+128),w
  9091     0163  2965               	goto	u4231
  9092     0164  2966               	goto	u4232
  9093     0165                     u4231:
  9094     0165  02A6               	subwf	(??_efgtoa^(0+128)+1),f
  9095     0166                     u4232:
  9096     0166  083F               	movf	(efgtoa@ou+2)^(0+128),w
  9097     0167  1C03               	skipc
  9098     0168  0F3F               	incfsz	(efgtoa@ou+2)^(0+128),w
  9099     0169  296B               	goto	u4233
  9100     016A  296C               	goto	u4234
  9101     016B                     u4233:
  9102     016B  02A7               	subwf	(??_efgtoa^(0+128)+2),f
  9103     016C                     u4234:
  9104     016C  0840               	movf	(efgtoa@ou+3)^(0+128),w
  9105     016D  1C03               	skipc
  9106     016E  0F40               	incfsz	(efgtoa@ou+3)^(0+128),w
  9107     016F  2971               	goto	u4235
  9108     0170  2972               	goto	u4236
  9109     0171                     u4235:
  9110     0171  02A8               	subwf	(??_efgtoa^(0+128)+3),f
  9111     0172                     u4236:
  9112     0172  0828               	movf	(??_efgtoa+3)^(0+128),w
  9113     0173  00F3               	movwf	labs@a+3
  9114     0174  0827               	movf	(??_efgtoa+2)^(0+128),w
  9115     0175  00F2               	movwf	labs@a+2
  9116     0176  0826               	movf	(??_efgtoa+1)^(0+128),w
  9117     0177  00F1               	movwf	labs@a+1
  9118     0178  0825               	movf	??_efgtoa^(0+128),w
  9119     0179  00F0               	movwf	labs@a
  9120     017A  160A  158A  24E7  120A  118A  	fcall	_labs
  9121     017F  1BF3               	btfsc	?_labs+3,7
  9122     0180  2991               	goto	u4241
  9123     0181  0873               	movf	?_labs+3,w
  9124     0182  1D03               	btfss	3,2
  9125     0183  2992               	goto	u4240
  9126     0184  0872               	movf	?_labs+2,w
  9127     0185  1D03               	btfss	3,2
  9128     0186  2992               	goto	u4240
  9129     0187  0871               	movf	?_labs+1,w
  9130     0188  1D03               	btfss	3,2
  9131     0189  2992               	goto	u4240
  9132     018A  3002               	movlw	2
  9133     018B  0270               	subwf	?_labs,w
  9134     018C  1D03               	skipz
  9135     018D  298E               	goto	u4243
  9136     018E                     u4243:
  9137     018E  1C03               	btfss	3,0
  9138     018F  2991               	goto	u4241
  9139     0190  2992               	goto	u4240
  9140     0191                     u4241:
  9141     0191  2907               	goto	l2928
  9142     0192                     u4240:
  9143     0192                     l2934:
  9144     0192  1683               	bsf	3,5	;RP0=1, select bank1
  9145     0193  1303               	bcf	3,6	;RP1=0, select bank1
  9146     0194  0840               	movf	(efgtoa@ou+3)^(0+128),w
  9147     0195  1283               	bcf	3,5	;RP0=0, select bank0
  9148     0196  1303               	bcf	3,6	;RP1=0, select bank0
  9149     0197  00C5               	movwf	___flge@ff1+3
  9150     0198  1683               	bsf	3,5	;RP0=1, select bank1
  9151     0199  1303               	bcf	3,6	;RP1=0, select bank1
  9152     019A  083F               	movf	(efgtoa@ou+2)^(0+128),w
  9153     019B  1283               	bcf	3,5	;RP0=0, select bank0
  9154     019C  1303               	bcf	3,6	;RP1=0, select bank0
  9155     019D  00C4               	movwf	___flge@ff1+2
  9156     019E  1683               	bsf	3,5	;RP0=1, select bank1
  9157     019F  1303               	bcf	3,6	;RP1=0, select bank1
  9158     01A0  083E               	movf	(efgtoa@ou+1)^(0+128),w
  9159     01A1  1283               	bcf	3,5	;RP0=0, select bank0
  9160     01A2  1303               	bcf	3,6	;RP1=0, select bank0
  9161     01A3  00C3               	movwf	___flge@ff1+1
  9162     01A4  1683               	bsf	3,5	;RP0=1, select bank1
  9163     01A5  1303               	bcf	3,6	;RP1=0, select bank1
  9164     01A6  083D               	movf	efgtoa@ou^(0+128),w
  9165     01A7  1283               	bcf	3,5	;RP0=0, select bank0
  9166     01A8  1303               	bcf	3,6	;RP1=0, select bank0
  9167     01A9  00C2               	movwf	___flge@ff1
  9168     01AA  1683               	bsf	3,5	;RP0=1, select bank1
  9169     01AB  1303               	bcf	3,6	;RP1=0, select bank1
  9170     01AC  0851               	movf	(efgtoa@g+3)^(0+128),w
  9171     01AD  1283               	bcf	3,5	;RP0=0, select bank0
  9172     01AE  1303               	bcf	3,6	;RP1=0, select bank0
  9173     01AF  00C9               	movwf	___flge@ff2+3
  9174     01B0  1683               	bsf	3,5	;RP0=1, select bank1
  9175     01B1  1303               	bcf	3,6	;RP1=0, select bank1
  9176     01B2  0850               	movf	(efgtoa@g+2)^(0+128),w
  9177     01B3  1283               	bcf	3,5	;RP0=0, select bank0
  9178     01B4  1303               	bcf	3,6	;RP1=0, select bank0
  9179     01B5  00C8               	movwf	___flge@ff2+2
  9180     01B6  1683               	bsf	3,5	;RP0=1, select bank1
  9181     01B7  1303               	bcf	3,6	;RP1=0, select bank1
  9182     01B8  084F               	movf	(efgtoa@g+1)^(0+128),w
  9183     01B9  1283               	bcf	3,5	;RP0=0, select bank0
  9184     01BA  1303               	bcf	3,6	;RP1=0, select bank0
  9185     01BB  00C7               	movwf	___flge@ff2+1
  9186     01BC  1683               	bsf	3,5	;RP0=1, select bank1
  9187     01BD  1303               	bcf	3,6	;RP1=0, select bank1
  9188     01BE  084E               	movf	efgtoa@g^(0+128),w
  9189     01BF  1283               	bcf	3,5	;RP0=0, select bank0
  9190     01C0  1303               	bcf	3,6	;RP1=0, select bank0
  9191     01C1  00C6               	movwf	___flge@ff2
  9192     01C2  160A  118A  21C9  120A  118A  	fcall	___flge
  9193     01C7  1C03               	btfss	3,0
  9194     01C8  29CA               	goto	u4251
  9195     01C9  29CB               	goto	u4250
  9196     01CA                     u4251:
  9197     01CA  2907               	goto	l2928
  9198     01CB                     u4250:
  9199     01CB                     l2936:
  9200                           
  9201                           ;C:\Program Files\Microchip\xc8\v2.46\pic\sources\c99\common\doprnt.c: 664:   if ((labs(
      +                          (g).u-(u).u) <= 1)) {
  9202     01CB  1683               	bsf	3,5	;RP0=1, select bank1
  9203     01CC  1303               	bcf	3,6	;RP1=0, select bank1
  9204     01CD  084E               	movf	efgtoa@g^(0+128),w
  9205     01CE  00A5               	movwf	??_efgtoa^(0+128)
  9206     01CF  084F               	movf	(efgtoa@g+1)^(0+128),w
  9207     01D0  00A6               	movwf	(??_efgtoa^(0+128)+1)
  9208     01D1  0850               	movf	(efgtoa@g+2)^(0+128),w
  9209     01D2  00A7               	movwf	(??_efgtoa^(0+128)+2)
  9210     01D3  0851               	movf	(efgtoa@g+3)^(0+128),w
  9211     01D4  00A8               	movwf	(??_efgtoa^(0+128)+3)
  9212     01D5  0852               	movf	efgtoa@u^(0+128),w
  9213     01D6  02A5               	subwf	??_efgtoa^(0+128),f
  9214     01D7  0853               	movf	(efgtoa@u+1)^(0+128),w
  9215     01D8  1C03               	skipc
  9216     01D9  0F53               	incfsz	(efgtoa@u+1)^(0+128),w
  9217     01DA  29DC               	goto	u4261
  9218     01DB  29DD               	goto	u4262
  9219     01DC                     u4261:
  9220     01DC  02A6               	subwf	(??_efgtoa^(0+128)+1),f
  9221     01DD                     u4262:
  9222     01DD  0854               	movf	(efgtoa@u+2)^(0+128),w
  9223     01DE  1C03               	skipc
  9224     01DF  0F54               	incfsz	(efgtoa@u+2)^(0+128),w
  9225     01E0  29E2               	goto	u4263
  9226     01E1  29E3               	goto	u4264
  9227     01E2                     u4263:
  9228     01E2  02A7               	subwf	(??_efgtoa^(0+128)+2),f
  9229     01E3                     u4264:
  9230     01E3  0855               	movf	(efgtoa@u+3)^(0+128),w
  9231     01E4  1C03               	skipc
  9232     01E5  0F55               	incfsz	(efgtoa@u+3)^(0+128),w
  9233     01E6  29E8               	goto	u4265
  9234     01E7  29E9               	goto	u4266
  9235     01E8                     u4265:
  9236     01E8  02A8               	subwf	(??_efgtoa^(0+128)+3),f
  9237     01E9                     u4266:
  9238     01E9  0828               	movf	(??_efgtoa+3)^(0+128),w
  9239     01EA  00F3               	movwf	labs@a+3
  9240     01EB  0827               	movf	(??_efgtoa+2)^(0+128),w
  9241     01EC  00F2               	movwf	labs@a+2
  9242     01ED  0826               	movf	(??_efgtoa+1)^(0+128),w
  9243     01EE  00F1               	movwf	labs@a+1
  9244     01EF  0825               	movf	??_efgtoa^(0+128),w
  9245     01F0  00F0               	movwf	labs@a
  9246     01F1  160A  158A  24E7  120A  118A  	fcall	_labs
  9247     01F6  1BF3               	btfsc	?_labs+3,7
  9248     01F7  2A09               	goto	u4270
  9249     01F8  0873               	movf	?_labs+3,w
  9250     01F9  1D03               	btfss	3,2
  9251     01FA  2A08               	goto	u4271
  9252     01FB  0872               	movf	?_labs+2,w
  9253     01FC  1D03               	btfss	3,2
  9254     01FD  2A08               	goto	u4271
  9255     01FE  0871               	movf	?_labs+1,w
  9256     01FF  1D03               	btfss	3,2
  9257     0200  2A08               	goto	u4271
  9258     0201  3002               	movlw	2
  9259     0202  0270               	subwf	?_labs,w
  9260     0203  1D03               	skipz
  9261     0204  2A05               	goto	u4273
  9262     0205                     u4273:
  9263     0205  1803               	btfsc	3,0
  9264     0206  2A08               	goto	u4271
  9265     0207  2A09               	goto	u4270
  9266     0208                     u4271:
  9267     0208  2A96               	goto	l2948
  9268     0209                     u4270:
  9269     0209                     l2938:
  9270                           
  9271                           ;C:\Program Files\Microchip\xc8\v2.46\pic\sources\c99\common\doprnt.c: 665:    g = u;
  9272     0209  1683               	bsf	3,5	;RP0=1, select bank1
  9273     020A  1303               	bcf	3,6	;RP1=0, select bank1
  9274     020B  0855               	movf	(efgtoa@u+3)^(0+128),w
  9275     020C  00D1               	movwf	(efgtoa@g+3)^(0+128)
  9276     020D  0854               	movf	(efgtoa@u+2)^(0+128),w
  9277     020E  00D0               	movwf	(efgtoa@g+2)^(0+128)
  9278     020F  0853               	movf	(efgtoa@u+1)^(0+128),w
  9279     0210  00CF               	movwf	(efgtoa@g+1)^(0+128)
  9280     0211  0852               	movf	efgtoa@u^(0+128),w
  9281     0212  00CE               	movwf	efgtoa@g^(0+128)
  9282                           
  9283                           ;C:\Program Files\Microchip\xc8\v2.46\pic\sources\c99\common\doprnt.c: 666:   }
  9284     0213  2ACF               	goto	l2950
  9285     0214                     l2940:
  9286                           
  9287                           ;C:\Program Files\Microchip\xc8\v2.46\pic\sources\c99\common\doprnt.c: 669:     u.f = u.
      +                          f/10.0;
  9288     0214  3041               	movlw	65
  9289     0215  1283               	bcf	3,5	;RP0=0, select bank0
  9290     0216  1303               	bcf	3,6	;RP1=0, select bank0
  9291     0217  00C5               	movwf	___fldiv@a+3
  9292     0218  3020               	movlw	32
  9293     0219  00C4               	movwf	___fldiv@a+2
  9294     021A  3000               	movlw	0
  9295     021B  00C3               	movwf	___fldiv@a+1
  9296     021C  3000               	movlw	0
  9297     021D  00C2               	movwf	___fldiv@a
  9298     021E  1683               	bsf	3,5	;RP0=1, select bank1
  9299     021F  1303               	bcf	3,6	;RP1=0, select bank1
  9300     0220  0855               	movf	(efgtoa@u+3)^(0+128),w
  9301     0221  1283               	bcf	3,5	;RP0=0, select bank0
  9302     0222  1303               	bcf	3,6	;RP1=0, select bank0
  9303     0223  00C9               	movwf	___fldiv@b+3
  9304     0224  1683               	bsf	3,5	;RP0=1, select bank1
  9305     0225  1303               	bcf	3,6	;RP1=0, select bank1
  9306     0226  0854               	movf	(efgtoa@u+2)^(0+128),w
  9307     0227  1283               	bcf	3,5	;RP0=0, select bank0
  9308     0228  1303               	bcf	3,6	;RP1=0, select bank0
  9309     0229  00C8               	movwf	___fldiv@b+2
  9310     022A  1683               	bsf	3,5	;RP0=1, select bank1
  9311     022B  1303               	bcf	3,6	;RP1=0, select bank1
  9312     022C  0853               	movf	(efgtoa@u+1)^(0+128),w
  9313     022D  1283               	bcf	3,5	;RP0=0, select bank0
  9314     022E  1303               	bcf	3,6	;RP1=0, select bank0
  9315     022F  00C7               	movwf	___fldiv@b+1
  9316     0230  1683               	bsf	3,5	;RP0=1, select bank1
  9317     0231  1303               	bcf	3,6	;RP1=0, select bank1
  9318     0232  0852               	movf	efgtoa@u^(0+128),w
  9319     0233  1283               	bcf	3,5	;RP0=0, select bank0
  9320     0234  1303               	bcf	3,6	;RP1=0, select bank0
  9321     0235  00C6               	movwf	___fldiv@b
  9322     0236  120A  158A  206E  120A  118A  	fcall	___fldiv
  9323     023B  1283               	bcf	3,5	;RP0=0, select bank0
  9324     023C  1303               	bcf	3,6	;RP1=0, select bank0
  9325     023D  0845               	movf	?___fldiv+3,w
  9326     023E  1683               	bsf	3,5	;RP0=1, select bank1
  9327     023F  1303               	bcf	3,6	;RP1=0, select bank1
  9328     0240  00D5               	movwf	(efgtoa@u+3)^(0+128)
  9329     0241  1283               	bcf	3,5	;RP0=0, select bank0
  9330     0242  1303               	bcf	3,6	;RP1=0, select bank0
  9331     0243  0844               	movf	?___fldiv+2,w
  9332     0244  1683               	bsf	3,5	;RP0=1, select bank1
  9333     0245  1303               	bcf	3,6	;RP1=0, select bank1
  9334     0246  00D4               	movwf	(efgtoa@u+2)^(0+128)
  9335     0247  1283               	bcf	3,5	;RP0=0, select bank0
  9336     0248  1303               	bcf	3,6	;RP1=0, select bank0
  9337     0249  0843               	movf	?___fldiv+1,w
  9338     024A  1683               	bsf	3,5	;RP0=1, select bank1
  9339     024B  1303               	bcf	3,6	;RP1=0, select bank1
  9340     024C  00D3               	movwf	(efgtoa@u+1)^(0+128)
  9341     024D  1283               	bcf	3,5	;RP0=0, select bank0
  9342     024E  1303               	bcf	3,6	;RP1=0, select bank0
  9343     024F  0842               	movf	?___fldiv,w
  9344     0250  1683               	bsf	3,5	;RP0=1, select bank1
  9345     0251  1303               	bcf	3,6	;RP1=0, select bank1
  9346     0252  00D2               	movwf	efgtoa@u^(0+128)
  9347     0253                     l2942:
  9348                           
  9349                           ;C:\Program Files\Microchip\xc8\v2.46\pic\sources\c99\common\doprnt.c: 670:     --e;
  9350     0253  30FF               	movlw	255
  9351     0254  07B9               	addwf	efgtoa@e^(0+128),f
  9352     0255  1803               	skipnc
  9353     0256  0ABA               	incf	(efgtoa@e+1)^(0+128),f
  9354     0257  30FF               	movlw	255
  9355     0258  07BA               	addwf	(efgtoa@e+1)^(0+128),f
  9356     0259                     l2944:
  9357                           
  9358                           ;C:\Program Files\Microchip\xc8\v2.46\pic\sources\c99\common\doprnt.c: 671:     if ((lab
      +                          s((g).u-(u).u) <= 1)) {
  9359     0259  084E               	movf	efgtoa@g^(0+128),w
  9360     025A  00A5               	movwf	??_efgtoa^(0+128)
  9361     025B  084F               	movf	(efgtoa@g+1)^(0+128),w
  9362     025C  00A6               	movwf	(??_efgtoa^(0+128)+1)
  9363     025D  0850               	movf	(efgtoa@g+2)^(0+128),w
  9364     025E  00A7               	movwf	(??_efgtoa^(0+128)+2)
  9365     025F  0851               	movf	(efgtoa@g+3)^(0+128),w
  9366     0260  00A8               	movwf	(??_efgtoa^(0+128)+3)
  9367     0261  0852               	movf	efgtoa@u^(0+128),w
  9368     0262  02A5               	subwf	??_efgtoa^(0+128),f
  9369     0263  0853               	movf	(efgtoa@u+1)^(0+128),w
  9370     0264  1C03               	skipc
  9371     0265  0F53               	incfsz	(efgtoa@u+1)^(0+128),w
  9372     0266  2A68               	goto	u4281
  9373     0267  2A69               	goto	u4282
  9374     0268                     u4281:
  9375     0268  02A6               	subwf	(??_efgtoa^(0+128)+1),f
  9376     0269                     u4282:
  9377     0269  0854               	movf	(efgtoa@u+2)^(0+128),w
  9378     026A  1C03               	skipc
  9379     026B  0F54               	incfsz	(efgtoa@u+2)^(0+128),w
  9380     026C  2A6E               	goto	u4283
  9381     026D  2A6F               	goto	u4284
  9382     026E                     u4283:
  9383     026E  02A7               	subwf	(??_efgtoa^(0+128)+2),f
  9384     026F                     u4284:
  9385     026F  0855               	movf	(efgtoa@u+3)^(0+128),w
  9386     0270  1C03               	skipc
  9387     0271  0F55               	incfsz	(efgtoa@u+3)^(0+128),w
  9388     0272  2A74               	goto	u4285
  9389     0273  2A75               	goto	u4286
  9390     0274                     u4285:
  9391     0274  02A8               	subwf	(??_efgtoa^(0+128)+3),f
  9392     0275                     u4286:
  9393     0275  0828               	movf	(??_efgtoa+3)^(0+128),w
  9394     0276  00F3               	movwf	labs@a+3
  9395     0277  0827               	movf	(??_efgtoa+2)^(0+128),w
  9396     0278  00F2               	movwf	labs@a+2
  9397     0279  0826               	movf	(??_efgtoa+1)^(0+128),w
  9398     027A  00F1               	movwf	labs@a+1
  9399     027B  0825               	movf	??_efgtoa^(0+128),w
  9400     027C  00F0               	movwf	labs@a
  9401     027D  160A  158A  24E7  120A  118A  	fcall	_labs
  9402     0282  1BF3               	btfsc	?_labs+3,7
  9403     0283  2A95               	goto	u4290
  9404     0284  0873               	movf	?_labs+3,w
  9405     0285  1D03               	btfss	3,2
  9406     0286  2A94               	goto	u4291
  9407     0287  0872               	movf	?_labs+2,w
  9408     0288  1D03               	btfss	3,2
  9409     0289  2A94               	goto	u4291
  9410     028A  0871               	movf	?_labs+1,w
  9411     028B  1D03               	btfss	3,2
  9412     028C  2A94               	goto	u4291
  9413     028D  3002               	movlw	2
  9414     028E  0270               	subwf	?_labs,w
  9415     028F  1D03               	skipz
  9416     0290  2A91               	goto	u4293
  9417     0291                     u4293:
  9418     0291  1803               	btfsc	3,0
  9419     0292  2A94               	goto	u4291
  9420     0293  2A95               	goto	u4290
  9421     0294                     u4291:
  9422     0294  2A96               	goto	l2948
  9423     0295                     u4290:
  9424     0295  2A09               	goto	l2938
  9425     0296                     l2948:
  9426                           
  9427                           ;C:\Program Files\Microchip\xc8\v2.46\pic\sources\c99\common\doprnt.c: 668:    while (g.
      +                          f < u.f) {
  9428     0296  1683               	bsf	3,5	;RP0=1, select bank1
  9429     0297  1303               	bcf	3,6	;RP1=0, select bank1
  9430     0298  0851               	movf	(efgtoa@g+3)^(0+128),w
  9431     0299  1283               	bcf	3,5	;RP0=0, select bank0
  9432     029A  1303               	bcf	3,6	;RP1=0, select bank0
  9433     029B  00C5               	movwf	___flge@ff1+3
  9434     029C  1683               	bsf	3,5	;RP0=1, select bank1
  9435     029D  1303               	bcf	3,6	;RP1=0, select bank1
  9436     029E  0850               	movf	(efgtoa@g+2)^(0+128),w
  9437     029F  1283               	bcf	3,5	;RP0=0, select bank0
  9438     02A0  1303               	bcf	3,6	;RP1=0, select bank0
  9439     02A1  00C4               	movwf	___flge@ff1+2
  9440     02A2  1683               	bsf	3,5	;RP0=1, select bank1
  9441     02A3  1303               	bcf	3,6	;RP1=0, select bank1
  9442     02A4  084F               	movf	(efgtoa@g+1)^(0+128),w
  9443     02A5  1283               	bcf	3,5	;RP0=0, select bank0
  9444     02A6  1303               	bcf	3,6	;RP1=0, select bank0
  9445     02A7  00C3               	movwf	___flge@ff1+1
  9446     02A8  1683               	bsf	3,5	;RP0=1, select bank1
  9447     02A9  1303               	bcf	3,6	;RP1=0, select bank1
  9448     02AA  084E               	movf	efgtoa@g^(0+128),w
  9449     02AB  1283               	bcf	3,5	;RP0=0, select bank0
  9450     02AC  1303               	bcf	3,6	;RP1=0, select bank0
  9451     02AD  00C2               	movwf	___flge@ff1
  9452     02AE  1683               	bsf	3,5	;RP0=1, select bank1
  9453     02AF  1303               	bcf	3,6	;RP1=0, select bank1
  9454     02B0  0855               	movf	(efgtoa@u+3)^(0+128),w
  9455     02B1  1283               	bcf	3,5	;RP0=0, select bank0
  9456     02B2  1303               	bcf	3,6	;RP1=0, select bank0
  9457     02B3  00C9               	movwf	___flge@ff2+3
  9458     02B4  1683               	bsf	3,5	;RP0=1, select bank1
  9459     02B5  1303               	bcf	3,6	;RP1=0, select bank1
  9460     02B6  0854               	movf	(efgtoa@u+2)^(0+128),w
  9461     02B7  1283               	bcf	3,5	;RP0=0, select bank0
  9462     02B8  1303               	bcf	3,6	;RP1=0, select bank0
  9463     02B9  00C8               	movwf	___flge@ff2+2
  9464     02BA  1683               	bsf	3,5	;RP0=1, select bank1
  9465     02BB  1303               	bcf	3,6	;RP1=0, select bank1
  9466     02BC  0853               	movf	(efgtoa@u+1)^(0+128),w
  9467     02BD  1283               	bcf	3,5	;RP0=0, select bank0
  9468     02BE  1303               	bcf	3,6	;RP1=0, select bank0
  9469     02BF  00C7               	movwf	___flge@ff2+1
  9470     02C0  1683               	bsf	3,5	;RP0=1, select bank1
  9471     02C1  1303               	bcf	3,6	;RP1=0, select bank1
  9472     02C2  0852               	movf	efgtoa@u^(0+128),w
  9473     02C3  1283               	bcf	3,5	;RP0=0, select bank0
  9474     02C4  1303               	bcf	3,6	;RP1=0, select bank0
  9475     02C5  00C6               	movwf	___flge@ff2
  9476     02C6  160A  118A  21C9  120A  118A  	fcall	___flge
  9477     02CB  1C03               	btfss	3,0
  9478     02CC  2ACE               	goto	u4301
  9479     02CD  2ACF               	goto	u4300
  9480     02CE                     u4301:
  9481     02CE  2A14               	goto	l2940
  9482     02CF                     u4300:
  9483     02CF                     l2950:
  9484                           
  9485                           ;C:\Program Files\Microchip\xc8\v2.46\pic\sources\c99\common\doprnt.c: 683:  mode = c;
  9486     02CF  1683               	bsf	3,5	;RP0=1, select bank1
  9487     02D0  1303               	bcf	3,6	;RP1=0, select bank1
  9488     02D1  0824               	movf	efgtoa@c^(0+128),w
  9489     02D2  00B2               	movwf	efgtoa@mode^(0+128)
  9490                           
  9491                           ;C:\Program Files\Microchip\xc8\v2.46\pic\sources\c99\common\doprnt.c: 685:     nmode = 
      +                          mode;
  9492     02D3  0832               	movf	efgtoa@mode^(0+128),w
  9493     02D4  00B3               	movwf	efgtoa@nmode^(0+128)
  9494     02D5                     l2952:
  9495                           
  9496                           ;C:\Program Files\Microchip\xc8\v2.46\pic\sources\c99\common\doprnt.c: 695:  {;C:\Progra
      +                          m Files\Microchip\xc8\v2.46\pic\sources\c99\common\doprnt.c: 696:         p = (prec < 0)
      +                           ? 6 : prec;
  9497     02D5  1BEE               	btfsc	(_prec+1)^(0+128),7
  9498     02D6  2AD8               	goto	u4311
  9499     02D7  2AD9               	goto	u4310
  9500     02D8                     u4311:
  9501     02D8  2ADE               	goto	l2956
  9502     02D9                     u4310:
  9503     02D9                     l2954:
  9504     02D9  086E               	movf	(_prec+1)^(0+128),w
  9505     02DA  00AC               	movwf	(efgtoa@p+1)^(0+128)
  9506     02DB  086D               	movf	_prec^(0+128),w
  9507     02DC  00AB               	movwf	efgtoa@p^(0+128)
  9508     02DD  2AE2               	goto	l743
  9509     02DE                     l2956:
  9510     02DE  3006               	movlw	6
  9511     02DF  00AB               	movwf	efgtoa@p^(0+128)
  9512     02E0  3000               	movlw	0
  9513     02E1  00AC               	movwf	(efgtoa@p^(0+128)+1)
  9514     02E2                     l743:
  9515                           
  9516                           ;C:\Program Files\Microchip\xc8\v2.46\pic\sources\c99\common\doprnt.c: 697:     };C:\Pro
      +                          gram Files\Microchip\xc8\v2.46\pic\sources\c99\common\doprnt.c: 711:     m = p;
  9517     02E2  082C               	movf	(efgtoa@p+1)^(0+128),w
  9518     02E3  00B7               	movwf	(efgtoa@m+1)^(0+128)
  9519     02E4  082B               	movf	efgtoa@p^(0+128),w
  9520     02E5  00B6               	movwf	efgtoa@m^(0+128)
  9521                           
  9522                           ;C:\Program Files\Microchip\xc8\v2.46\pic\sources\c99\common\doprnt.c: 715:  {;C:\Progra
      +                          m Files\Microchip\xc8\v2.46\pic\sources\c99\common\doprnt.c: 716:         ++m;
  9523     02E6  3001               	movlw	1
  9524     02E7  07B6               	addwf	efgtoa@m^(0+128),f
  9525     02E8  1803               	skipnc
  9526     02E9  0AB7               	incf	(efgtoa@m+1)^(0+128),f
  9527     02EA  3000               	movlw	0
  9528     02EB  07B7               	addwf	(efgtoa@m+1)^(0+128),f
  9529     02EC                     l2958:
  9530                           
  9531                           ;C:\Program Files\Microchip\xc8\v2.46\pic\sources\c99\common\doprnt.c: 717:     };C:\Pro
      +                          gram Files\Microchip\xc8\v2.46\pic\sources\c99\common\doprnt.c: 721:     if (nmode == 'f
      +                          ') {
  9532     02EC  3066               	movlw	102
  9533     02ED  0633               	xorwf	efgtoa@nmode^(0+128),w
  9534     02EE  1D03               	btfss	3,2
  9535     02EF  2AF1               	goto	u4321
  9536     02F0  2AF2               	goto	u4320
  9537     02F1                     u4321:
  9538     02F1  2B0C               	goto	l2970
  9539     02F2                     u4320:
  9540     02F2                     l2960:
  9541                           
  9542                           ;C:\Program Files\Microchip\xc8\v2.46\pic\sources\c99\common\doprnt.c: 722:         if (
      +                          e < 0) {
  9543     02F2  1FBA               	btfss	(efgtoa@e+1)^(0+128),7
  9544     02F3  2AF5               	goto	u4331
  9545     02F4  2AF6               	goto	u4330
  9546     02F5                     u4331:
  9547     02F5  2B00               	goto	l2966
  9548     02F6                     u4330:
  9549     02F6                     l2962:
  9550                           
  9551                           ;C:\Program Files\Microchip\xc8\v2.46\pic\sources\c99\common\doprnt.c: 723:             
      +                          u.f = 1.0;
  9552     02F6  303F               	movlw	63
  9553     02F7  00D5               	movwf	(efgtoa@u+3)^(0+128)
  9554     02F8  3080               	movlw	128
  9555     02F9  00D4               	movwf	(efgtoa@u+2)^(0+128)
  9556     02FA  3000               	movlw	0
  9557     02FB  00D3               	movwf	(efgtoa@u+1)^(0+128)
  9558     02FC  3000               	movlw	0
  9559     02FD  00D2               	movwf	efgtoa@u^(0+128)
  9560     02FE                     l2964:
  9561                           
  9562                           ;C:\Program Files\Microchip\xc8\v2.46\pic\sources\c99\common\doprnt.c: 724:             
      +                          e = 0;
  9563     02FE  01B9               	clrf	efgtoa@e^(0+128)
  9564     02FF  01BA               	clrf	(efgtoa@e+1)^(0+128)
  9565     0300                     l2966:
  9566                           
  9567                           ;C:\Program Files\Microchip\xc8\v2.46\pic\sources\c99\common\doprnt.c: 726:         if (
      +                          !(mode == 'g')) {
  9568     0300  3067               	movlw	103
  9569     0301  0632               	xorwf	efgtoa@mode^(0+128),w
  9570     0302  1903               	btfsc	3,2
  9571     0303  2B05               	goto	u4341
  9572     0304  2B06               	goto	u4340
  9573     0305                     u4341:
  9574     0305  2B0C               	goto	l2970
  9575     0306                     u4340:
  9576     0306                     l2968:
  9577                           
  9578                           ;C:\Program Files\Microchip\xc8\v2.46\pic\sources\c99\common\doprnt.c: 727:             
      +                          m += e;
  9579     0306  0839               	movf	efgtoa@e^(0+128),w
  9580     0307  07B6               	addwf	efgtoa@m^(0+128),f
  9581     0308  1803               	skipnc
  9582     0309  0AB7               	incf	(efgtoa@m+1)^(0+128),f
  9583     030A  083A               	movf	(efgtoa@e+1)^(0+128),w
  9584     030B  07B7               	addwf	(efgtoa@m+1)^(0+128),f
  9585     030C                     l2970:
  9586                           
  9587                           ;C:\Program Files\Microchip\xc8\v2.46\pic\sources\c99\common\doprnt.c: 733:     i = 0;
  9588     030C  01C1               	clrf	efgtoa@i^(0+128)
  9589     030D  01C2               	clrf	(efgtoa@i+1)^(0+128)
  9590     030E                     l2972:
  9591                           
  9592                           ;C:\Program Files\Microchip\xc8\v2.46\pic\sources\c99\common\doprnt.c: 734:     h = g.f;
  9593     030E  0851               	movf	(efgtoa@g+3)^(0+128),w
  9594     030F  00C6               	movwf	(efgtoa@h+3)^(0+128)
  9595     0310  0850               	movf	(efgtoa@g+2)^(0+128),w
  9596     0311  00C5               	movwf	(efgtoa@h+2)^(0+128)
  9597     0312  084F               	movf	(efgtoa@g+1)^(0+128),w
  9598     0313  00C4               	movwf	(efgtoa@h+1)^(0+128)
  9599     0314  084E               	movf	efgtoa@g^(0+128),w
  9600     0315  00C3               	movwf	efgtoa@h^(0+128)
  9601     0316                     l2974:
  9602                           
  9603                           ;C:\Program Files\Microchip\xc8\v2.46\pic\sources\c99\common\doprnt.c: 735:     ou = u;
  9604     0316  0855               	movf	(efgtoa@u+3)^(0+128),w
  9605     0317  00C0               	movwf	(efgtoa@ou+3)^(0+128)
  9606     0318  0854               	movf	(efgtoa@u+2)^(0+128),w
  9607     0319  00BF               	movwf	(efgtoa@ou+2)^(0+128)
  9608     031A  0853               	movf	(efgtoa@u+1)^(0+128),w
  9609     031B  00BE               	movwf	(efgtoa@ou+1)^(0+128)
  9610     031C  0852               	movf	efgtoa@u^(0+128),w
  9611     031D  00BD               	movwf	efgtoa@ou^(0+128)
  9612                           
  9613                           ;C:\Program Files\Microchip\xc8\v2.46\pic\sources\c99\common\doprnt.c: 736:     while (i
      +                           < m) {
  9614     031E  2C45               	goto	l2980
  9615     031F                     l2976:
  9616                           
  9617                           ;C:\Program Files\Microchip\xc8\v2.46\pic\sources\c99\common\doprnt.c: 737:         l = 
      +                          floorf(h/u.f);
  9618     031F  1683               	bsf	3,5	;RP0=1, select bank1
  9619     0320  1303               	bcf	3,6	;RP1=0, select bank1
  9620     0321  0855               	movf	(efgtoa@u+3)^(0+128),w
  9621     0322  1283               	bcf	3,5	;RP0=0, select bank0
  9622     0323  1303               	bcf	3,6	;RP1=0, select bank0
  9623     0324  00C5               	movwf	___fldiv@a+3
  9624     0325  1683               	bsf	3,5	;RP0=1, select bank1
  9625     0326  1303               	bcf	3,6	;RP1=0, select bank1
  9626     0327  0854               	movf	(efgtoa@u+2)^(0+128),w
  9627     0328  1283               	bcf	3,5	;RP0=0, select bank0
  9628     0329  1303               	bcf	3,6	;RP1=0, select bank0
  9629     032A  00C4               	movwf	___fldiv@a+2
  9630     032B  1683               	bsf	3,5	;RP0=1, select bank1
  9631     032C  1303               	bcf	3,6	;RP1=0, select bank1
  9632     032D  0853               	movf	(efgtoa@u+1)^(0+128),w
  9633     032E  1283               	bcf	3,5	;RP0=0, select bank0
  9634     032F  1303               	bcf	3,6	;RP1=0, select bank0
  9635     0330  00C3               	movwf	___fldiv@a+1
  9636     0331  1683               	bsf	3,5	;RP0=1, select bank1
  9637     0332  1303               	bcf	3,6	;RP1=0, select bank1
  9638     0333  0852               	movf	efgtoa@u^(0+128),w
  9639     0334  1283               	bcf	3,5	;RP0=0, select bank0
  9640     0335  1303               	bcf	3,6	;RP1=0, select bank0
  9641     0336  00C2               	movwf	___fldiv@a
  9642     0337  1683               	bsf	3,5	;RP0=1, select bank1
  9643     0338  1303               	bcf	3,6	;RP1=0, select bank1
  9644     0339  0846               	movf	(efgtoa@h+3)^(0+128),w
  9645     033A  1283               	bcf	3,5	;RP0=0, select bank0
  9646     033B  1303               	bcf	3,6	;RP1=0, select bank0
  9647     033C  00C9               	movwf	___fldiv@b+3
  9648     033D  1683               	bsf	3,5	;RP0=1, select bank1
  9649     033E  1303               	bcf	3,6	;RP1=0, select bank1
  9650     033F  0845               	movf	(efgtoa@h+2)^(0+128),w
  9651     0340  1283               	bcf	3,5	;RP0=0, select bank0
  9652     0341  1303               	bcf	3,6	;RP1=0, select bank0
  9653     0342  00C8               	movwf	___fldiv@b+2
  9654     0343  1683               	bsf	3,5	;RP0=1, select bank1
  9655     0344  1303               	bcf	3,6	;RP1=0, select bank1
  9656     0345  0844               	movf	(efgtoa@h+1)^(0+128),w
  9657     0346  1283               	bcf	3,5	;RP0=0, select bank0
  9658     0347  1303               	bcf	3,6	;RP1=0, select bank0
  9659     0348  00C7               	movwf	___fldiv@b+1
  9660     0349  1683               	bsf	3,5	;RP0=1, select bank1
  9661     034A  1303               	bcf	3,6	;RP1=0, select bank1
  9662     034B  0843               	movf	efgtoa@h^(0+128),w
  9663     034C  1283               	bcf	3,5	;RP0=0, select bank0
  9664     034D  1303               	bcf	3,6	;RP1=0, select bank0
  9665     034E  00C6               	movwf	___fldiv@b
  9666     034F  120A  158A  206E  120A  118A  	fcall	___fldiv
  9667     0354  1283               	bcf	3,5	;RP0=0, select bank0
  9668     0355  1303               	bcf	3,6	;RP1=0, select bank0
  9669     0356  0845               	movf	?___fldiv+3,w
  9670     0357  00DF               	movwf	floorf@x+3
  9671     0358  0844               	movf	?___fldiv+2,w
  9672     0359  00DE               	movwf	floorf@x+2
  9673     035A  0843               	movf	?___fldiv+1,w
  9674     035B  00DD               	movwf	floorf@x+1
  9675     035C  0842               	movf	?___fldiv,w
  9676     035D  00DC               	movwf	floorf@x
  9677     035E  160A  118A  2376  120A  118A  	fcall	_floorf
  9678     0363  1283               	bcf	3,5	;RP0=0, select bank0
  9679     0364  1303               	bcf	3,6	;RP1=0, select bank0
  9680     0365  085F               	movf	?_floorf+3,w
  9681     0366  1683               	bsf	3,5	;RP0=1, select bank1
  9682     0367  1303               	bcf	3,6	;RP1=0, select bank1
  9683     0368  00CA               	movwf	(efgtoa@l+3)^(0+128)
  9684     0369  1283               	bcf	3,5	;RP0=0, select bank0
  9685     036A  1303               	bcf	3,6	;RP1=0, select bank0
  9686     036B  085E               	movf	?_floorf+2,w
  9687     036C  1683               	bsf	3,5	;RP0=1, select bank1
  9688     036D  1303               	bcf	3,6	;RP1=0, select bank1
  9689     036E  00C9               	movwf	(efgtoa@l+2)^(0+128)
  9690     036F  1283               	bcf	3,5	;RP0=0, select bank0
  9691     0370  1303               	bcf	3,6	;RP1=0, select bank0
  9692     0371  085D               	movf	?_floorf+1,w
  9693     0372  1683               	bsf	3,5	;RP0=1, select bank1
  9694     0373  1303               	bcf	3,6	;RP1=0, select bank1
  9695     0374  00C8               	movwf	(efgtoa@l+1)^(0+128)
  9696     0375  1283               	bcf	3,5	;RP0=0, select bank0
  9697     0376  1303               	bcf	3,6	;RP1=0, select bank0
  9698     0377  085C               	movf	?_floorf,w
  9699     0378  1683               	bsf	3,5	;RP0=1, select bank1
  9700     0379  1303               	bcf	3,6	;RP1=0, select bank1
  9701     037A  00C7               	movwf	efgtoa@l^(0+128)
  9702                           
  9703                           ;C:\Program Files\Microchip\xc8\v2.46\pic\sources\c99\common\doprnt.c: 738:         d = 
      +                          (int)l;
  9704     037B  084A               	movf	(efgtoa@l+3)^(0+128),w
  9705     037C  00F3               	movwf	___fltol@f1+3
  9706     037D  0849               	movf	(efgtoa@l+2)^(0+128),w
  9707     037E  00F2               	movwf	___fltol@f1+2
  9708     037F  0848               	movf	(efgtoa@l+1)^(0+128),w
  9709     0380  00F1               	movwf	___fltol@f1+1
  9710     0381  0847               	movf	efgtoa@l^(0+128),w
  9711     0382  00F0               	movwf	___fltol@f1
  9712     0383  160A  118A  2039  120A  118A  	fcall	___fltol
  9713     0388  0871               	movf	?___fltol+1,w
  9714     0389  1683               	bsf	3,5	;RP0=1, select bank1
  9715     038A  1303               	bcf	3,6	;RP1=0, select bank1
  9716     038B  00B5               	movwf	(efgtoa@d+1)^(0+128)
  9717     038C  0870               	movf	?___fltol,w
  9718     038D  00B4               	movwf	efgtoa@d^(0+128)
  9719                           
  9720                           ;C:\Program Files\Microchip\xc8\v2.46\pic\sources\c99\common\doprnt.c: 739:         h -=
      +                           l*u.f;
  9721     038E  0855               	movf	(efgtoa@u+3)^(0+128),w
  9722     038F  1283               	bcf	3,5	;RP0=0, select bank0
  9723     0390  1303               	bcf	3,6	;RP1=0, select bank0
  9724     0391  00AF               	movwf	___flmul@a+3
  9725     0392  1683               	bsf	3,5	;RP0=1, select bank1
  9726     0393  1303               	bcf	3,6	;RP1=0, select bank1
  9727     0394  0854               	movf	(efgtoa@u+2)^(0+128),w
  9728     0395  1283               	bcf	3,5	;RP0=0, select bank0
  9729     0396  1303               	bcf	3,6	;RP1=0, select bank0
  9730     0397  00AE               	movwf	___flmul@a+2
  9731     0398  1683               	bsf	3,5	;RP0=1, select bank1
  9732     0399  1303               	bcf	3,6	;RP1=0, select bank1
  9733     039A  0853               	movf	(efgtoa@u+1)^(0+128),w
  9734     039B  1283               	bcf	3,5	;RP0=0, select bank0
  9735     039C  1303               	bcf	3,6	;RP1=0, select bank0
  9736     039D  00AD               	movwf	___flmul@a+1
  9737     039E  1683               	bsf	3,5	;RP0=1, select bank1
  9738     039F  1303               	bcf	3,6	;RP1=0, select bank1
  9739     03A0  0852               	movf	efgtoa@u^(0+128),w
  9740     03A1  1283               	bcf	3,5	;RP0=0, select bank0
  9741     03A2  1303               	bcf	3,6	;RP1=0, select bank0
  9742     03A3  00AC               	movwf	___flmul@a
  9743     03A4  1683               	bsf	3,5	;RP0=1, select bank1
  9744     03A5  1303               	bcf	3,6	;RP1=0, select bank1
  9745     03A6  084A               	movf	(efgtoa@l+3)^(0+128),w
  9746     03A7  1283               	bcf	3,5	;RP0=0, select bank0
  9747     03A8  1303               	bcf	3,6	;RP1=0, select bank0
  9748     03A9  00AB               	movwf	___flmul@b+3
  9749     03AA  1683               	bsf	3,5	;RP0=1, select bank1
  9750     03AB  1303               	bcf	3,6	;RP1=0, select bank1
  9751     03AC  0849               	movf	(efgtoa@l+2)^(0+128),w
  9752     03AD  1283               	bcf	3,5	;RP0=0, select bank0
  9753     03AE  1303               	bcf	3,6	;RP1=0, select bank0
  9754     03AF  00AA               	movwf	___flmul@b+2
  9755     03B0  1683               	bsf	3,5	;RP0=1, select bank1
  9756     03B1  1303               	bcf	3,6	;RP1=0, select bank1
  9757     03B2  0848               	movf	(efgtoa@l+1)^(0+128),w
  9758     03B3  1283               	bcf	3,5	;RP0=0, select bank0
  9759     03B4  1303               	bcf	3,6	;RP1=0, select bank0
  9760     03B5  00A9               	movwf	___flmul@b+1
  9761     03B6  1683               	bsf	3,5	;RP0=1, select bank1
  9762     03B7  1303               	bcf	3,6	;RP1=0, select bank1
  9763     03B8  0847               	movf	efgtoa@l^(0+128),w
  9764     03B9  1283               	bcf	3,5	;RP0=0, select bank0
  9765     03BA  1303               	bcf	3,6	;RP1=0, select bank0
  9766     03BB  00A8               	movwf	___flmul@b
  9767     03BC  120A  158A  24BB  120A  118A  	fcall	___flmul
  9768     03C1  1283               	bcf	3,5	;RP0=0, select bank0
  9769     03C2  1303               	bcf	3,6	;RP1=0, select bank0
  9770     03C3  082B               	movf	?___flmul+3,w
  9771     03C4  00C5               	movwf	___flsub@a+3
  9772     03C5  082A               	movf	?___flmul+2,w
  9773     03C6  00C4               	movwf	___flsub@a+2
  9774     03C7  0829               	movf	?___flmul+1,w
  9775     03C8  00C3               	movwf	___flsub@a+1
  9776     03C9  0828               	movf	?___flmul,w
  9777     03CA  00C2               	movwf	___flsub@a
  9778     03CB  1683               	bsf	3,5	;RP0=1, select bank1
  9779     03CC  1303               	bcf	3,6	;RP1=0, select bank1
  9780     03CD  0846               	movf	(efgtoa@h+3)^(0+128),w
  9781     03CE  1283               	bcf	3,5	;RP0=0, select bank0
  9782     03CF  1303               	bcf	3,6	;RP1=0, select bank0
  9783     03D0  00C9               	movwf	___flsub@b+3
  9784     03D1  1683               	bsf	3,5	;RP0=1, select bank1
  9785     03D2  1303               	bcf	3,6	;RP1=0, select bank1
  9786     03D3  0845               	movf	(efgtoa@h+2)^(0+128),w
  9787     03D4  1283               	bcf	3,5	;RP0=0, select bank0
  9788     03D5  1303               	bcf	3,6	;RP1=0, select bank0
  9789     03D6  00C8               	movwf	___flsub@b+2
  9790     03D7  1683               	bsf	3,5	;RP0=1, select bank1
  9791     03D8  1303               	bcf	3,6	;RP1=0, select bank1
  9792     03D9  0844               	movf	(efgtoa@h+1)^(0+128),w
  9793     03DA  1283               	bcf	3,5	;RP0=0, select bank0
  9794     03DB  1303               	bcf	3,6	;RP1=0, select bank0
  9795     03DC  00C7               	movwf	___flsub@b+1
  9796     03DD  1683               	bsf	3,5	;RP0=1, select bank1
  9797     03DE  1303               	bcf	3,6	;RP1=0, select bank1
  9798     03DF  0843               	movf	efgtoa@h^(0+128),w
  9799     03E0  1283               	bcf	3,5	;RP0=0, select bank0
  9800     03E1  1303               	bcf	3,6	;RP1=0, select bank0
  9801     03E2  00C6               	movwf	___flsub@b
  9802     03E3  160A  158A  2597  120A  118A  	fcall	___flsub
  9803     03E8  1283               	bcf	3,5	;RP0=0, select bank0
  9804     03E9  1303               	bcf	3,6	;RP1=0, select bank0
  9805     03EA  0845               	movf	?___flsub+3,w
  9806     03EB  1683               	bsf	3,5	;RP0=1, select bank1
  9807     03EC  1303               	bcf	3,6	;RP1=0, select bank1
  9808     03ED  00C6               	movwf	(efgtoa@h+3)^(0+128)
  9809     03EE  1283               	bcf	3,5	;RP0=0, select bank0
  9810     03EF  1303               	bcf	3,6	;RP1=0, select bank0
  9811     03F0  0844               	movf	?___flsub+2,w
  9812     03F1  1683               	bsf	3,5	;RP0=1, select bank1
  9813     03F2  1303               	bcf	3,6	;RP1=0, select bank1
  9814     03F3  00C5               	movwf	(efgtoa@h+2)^(0+128)
  9815     03F4  1283               	bcf	3,5	;RP0=0, select bank0
  9816     03F5  1303               	bcf	3,6	;RP1=0, select bank0
  9817     03F6  0843               	movf	?___flsub+1,w
  9818     03F7  1683               	bsf	3,5	;RP0=1, select bank1
  9819     03F8  1303               	bcf	3,6	;RP1=0, select bank1
  9820     03F9  00C4               	movwf	(efgtoa@h+1)^(0+128)
  9821     03FA  1283               	bcf	3,5	;RP0=0, select bank0
  9822     03FB  1303               	bcf	3,6	;RP1=0, select bank0
  9823     03FC  0842               	movf	?___flsub,w
  9824     03FD  1683               	bsf	3,5	;RP0=1, select bank1
  9825     03FE  1303               	bcf	3,6	;RP1=0, select bank1
  9826     03FF  00C3               	movwf	efgtoa@h^(0+128)
  9827                           
  9828                           ;C:\Program Files\Microchip\xc8\v2.46\pic\sources\c99\common\doprnt.c: 740:         u.f 
      +                          = u.f/10.0;
  9829     0400  3041               	movlw	65
  9830     0401  1283               	bcf	3,5	;RP0=0, select bank0
  9831     0402  1303               	bcf	3,6	;RP1=0, select bank0
  9832     0403  00C5               	movwf	___fldiv@a+3
  9833     0404  3020               	movlw	32
  9834     0405  00C4               	movwf	___fldiv@a+2
  9835     0406  3000               	movlw	0
  9836     0407  00C3               	movwf	___fldiv@a+1
  9837     0408  3000               	movlw	0
  9838     0409  00C2               	movwf	___fldiv@a
  9839     040A  1683               	bsf	3,5	;RP0=1, select bank1
  9840     040B  1303               	bcf	3,6	;RP1=0, select bank1
  9841     040C  0855               	movf	(efgtoa@u+3)^(0+128),w
  9842     040D  1283               	bcf	3,5	;RP0=0, select bank0
  9843     040E  1303               	bcf	3,6	;RP1=0, select bank0
  9844     040F  00C9               	movwf	___fldiv@b+3
  9845     0410  1683               	bsf	3,5	;RP0=1, select bank1
  9846     0411  1303               	bcf	3,6	;RP1=0, select bank1
  9847     0412  0854               	movf	(efgtoa@u+2)^(0+128),w
  9848     0413  1283               	bcf	3,5	;RP0=0, select bank0
  9849     0414  1303               	bcf	3,6	;RP1=0, select bank0
  9850     0415  00C8               	movwf	___fldiv@b+2
  9851     0416  1683               	bsf	3,5	;RP0=1, select bank1
  9852     0417  1303               	bcf	3,6	;RP1=0, select bank1
  9853     0418  0853               	movf	(efgtoa@u+1)^(0+128),w
  9854     0419  1283               	bcf	3,5	;RP0=0, select bank0
  9855     041A  1303               	bcf	3,6	;RP1=0, select bank0
  9856     041B  00C7               	movwf	___fldiv@b+1
  9857     041C  1683               	bsf	3,5	;RP0=1, select bank1
  9858     041D  1303               	bcf	3,6	;RP1=0, select bank1
  9859     041E  0852               	movf	efgtoa@u^(0+128),w
  9860     041F  1283               	bcf	3,5	;RP0=0, select bank0
  9861     0420  1303               	bcf	3,6	;RP1=0, select bank0
  9862     0421  00C6               	movwf	___fldiv@b
  9863     0422  120A  158A  206E  120A  118A  	fcall	___fldiv
  9864     0427  1283               	bcf	3,5	;RP0=0, select bank0
  9865     0428  1303               	bcf	3,6	;RP1=0, select bank0
  9866     0429  0845               	movf	?___fldiv+3,w
  9867     042A  1683               	bsf	3,5	;RP0=1, select bank1
  9868     042B  1303               	bcf	3,6	;RP1=0, select bank1
  9869     042C  00D5               	movwf	(efgtoa@u+3)^(0+128)
  9870     042D  1283               	bcf	3,5	;RP0=0, select bank0
  9871     042E  1303               	bcf	3,6	;RP1=0, select bank0
  9872     042F  0844               	movf	?___fldiv+2,w
  9873     0430  1683               	bsf	3,5	;RP0=1, select bank1
  9874     0431  1303               	bcf	3,6	;RP1=0, select bank1
  9875     0432  00D4               	movwf	(efgtoa@u+2)^(0+128)
  9876     0433  1283               	bcf	3,5	;RP0=0, select bank0
  9877     0434  1303               	bcf	3,6	;RP1=0, select bank0
  9878     0435  0843               	movf	?___fldiv+1,w
  9879     0436  1683               	bsf	3,5	;RP0=1, select bank1
  9880     0437  1303               	bcf	3,6	;RP1=0, select bank1
  9881     0438  00D3               	movwf	(efgtoa@u+1)^(0+128)
  9882     0439  1283               	bcf	3,5	;RP0=0, select bank0
  9883     043A  1303               	bcf	3,6	;RP1=0, select bank0
  9884     043B  0842               	movf	?___fldiv,w
  9885     043C  1683               	bsf	3,5	;RP0=1, select bank1
  9886     043D  1303               	bcf	3,6	;RP1=0, select bank1
  9887     043E  00D2               	movwf	efgtoa@u^(0+128)
  9888     043F                     l2978:
  9889                           
  9890                           ;C:\Program Files\Microchip\xc8\v2.46\pic\sources\c99\common\doprnt.c: 741:         ++i;
  9891     043F  3001               	movlw	1
  9892     0440  07C1               	addwf	efgtoa@i^(0+128),f
  9893     0441  1803               	skipnc
  9894     0442  0AC2               	incf	(efgtoa@i+1)^(0+128),f
  9895     0443  3000               	movlw	0
  9896     0444  07C2               	addwf	(efgtoa@i+1)^(0+128),f
  9897     0445                     l2980:
  9898                           
  9899                           ;C:\Program Files\Microchip\xc8\v2.46\pic\sources\c99\common\doprnt.c: 736:     while (i
      +                           < m) {
  9900     0445  0842               	movf	(efgtoa@i+1)^(0+128),w
  9901     0446  3A80               	xorlw	128
  9902     0447  00A5               	movwf	??_efgtoa^(0+128)
  9903     0448  0837               	movf	(efgtoa@m+1)^(0+128),w
  9904     0449  3A80               	xorlw	128
  9905     044A  0225               	subwf	??_efgtoa^(0+128),w
  9906     044B  1D03               	skipz
  9907     044C  2C4F               	goto	u4355
  9908     044D  0836               	movf	efgtoa@m^(0+128),w
  9909     044E  0241               	subwf	efgtoa@i^(0+128),w
  9910     044F                     u4355:
  9911     044F  1C03               	skipc
  9912     0450  2C52               	goto	u4351
  9913     0451  2C53               	goto	u4350
  9914     0452                     u4351:
  9915     0452  2B1F               	goto	l2976
  9916     0453                     u4350:
  9917     0453                     l2982:
  9918                           
  9919                           ;C:\Program Files\Microchip\xc8\v2.46\pic\sources\c99\common\doprnt.c: 745:     l = u.f*
      +                          5.0;
  9920     0453  3040               	movlw	64
  9921     0454  1283               	bcf	3,5	;RP0=0, select bank0
  9922     0455  1303               	bcf	3,6	;RP1=0, select bank0
  9923     0456  00AB               	movwf	___flmul@b+3
  9924     0457  30A0               	movlw	160
  9925     0458  00AA               	movwf	___flmul@b+2
  9926     0459  3000               	movlw	0
  9927     045A  00A9               	movwf	___flmul@b+1
  9928     045B  3000               	movlw	0
  9929     045C  00A8               	movwf	___flmul@b
  9930     045D  1683               	bsf	3,5	;RP0=1, select bank1
  9931     045E  1303               	bcf	3,6	;RP1=0, select bank1
  9932     045F  0855               	movf	(efgtoa@u+3)^(0+128),w
  9933     0460  1283               	bcf	3,5	;RP0=0, select bank0
  9934     0461  1303               	bcf	3,6	;RP1=0, select bank0
  9935     0462  00AF               	movwf	___flmul@a+3
  9936     0463  1683               	bsf	3,5	;RP0=1, select bank1
  9937     0464  1303               	bcf	3,6	;RP1=0, select bank1
  9938     0465  0854               	movf	(efgtoa@u+2)^(0+128),w
  9939     0466  1283               	bcf	3,5	;RP0=0, select bank0
  9940     0467  1303               	bcf	3,6	;RP1=0, select bank0
  9941     0468  00AE               	movwf	___flmul@a+2
  9942     0469  1683               	bsf	3,5	;RP0=1, select bank1
  9943     046A  1303               	bcf	3,6	;RP1=0, select bank1
  9944     046B  0853               	movf	(efgtoa@u+1)^(0+128),w
  9945     046C  1283               	bcf	3,5	;RP0=0, select bank0
  9946     046D  1303               	bcf	3,6	;RP1=0, select bank0
  9947     046E  00AD               	movwf	___flmul@a+1
  9948     046F  1683               	bsf	3,5	;RP0=1, select bank1
  9949     0470  1303               	bcf	3,6	;RP1=0, select bank1
  9950     0471  0852               	movf	efgtoa@u^(0+128),w
  9951     0472  1283               	bcf	3,5	;RP0=0, select bank0
  9952     0473  1303               	bcf	3,6	;RP1=0, select bank0
  9953     0474  00AC               	movwf	___flmul@a
  9954     0475  120A  158A  24BB  120A  118A  	fcall	___flmul
  9955     047A  1283               	bcf	3,5	;RP0=0, select bank0
  9956     047B  1303               	bcf	3,6	;RP1=0, select bank0
  9957     047C  082B               	movf	?___flmul+3,w
  9958     047D  1683               	bsf	3,5	;RP0=1, select bank1
  9959     047E  1303               	bcf	3,6	;RP1=0, select bank1
  9960     047F  00CA               	movwf	(efgtoa@l+3)^(0+128)
  9961     0480  1283               	bcf	3,5	;RP0=0, select bank0
  9962     0481  1303               	bcf	3,6	;RP1=0, select bank0
  9963     0482  082A               	movf	?___flmul+2,w
  9964     0483  1683               	bsf	3,5	;RP0=1, select bank1
  9965     0484  1303               	bcf	3,6	;RP1=0, select bank1
  9966     0485  00C9               	movwf	(efgtoa@l+2)^(0+128)
  9967     0486  1283               	bcf	3,5	;RP0=0, select bank0
  9968     0487  1303               	bcf	3,6	;RP1=0, select bank0
  9969     0488  0829               	movf	?___flmul+1,w
  9970     0489  1683               	bsf	3,5	;RP0=1, select bank1
  9971     048A  1303               	bcf	3,6	;RP1=0, select bank1
  9972     048B  00C8               	movwf	(efgtoa@l+1)^(0+128)
  9973     048C  1283               	bcf	3,5	;RP0=0, select bank0
  9974     048D  1303               	bcf	3,6	;RP1=0, select bank0
  9975     048E  0828               	movf	?___flmul,w
  9976     048F  1683               	bsf	3,5	;RP0=1, select bank1
  9977     0490  1303               	bcf	3,6	;RP1=0, select bank1
  9978     0491  00C7               	movwf	efgtoa@l^(0+128)
  9979     0492                     l2984:
  9980                           
  9981                           ;C:\Program Files\Microchip\xc8\v2.46\pic\sources\c99\common\doprnt.c: 746:     if (h < 
      +                          l) {
  9982     0492  0846               	movf	(efgtoa@h+3)^(0+128),w
  9983     0493  1283               	bcf	3,5	;RP0=0, select bank0
  9984     0494  1303               	bcf	3,6	;RP1=0, select bank0
  9985     0495  00C5               	movwf	___flge@ff1+3
  9986     0496  1683               	bsf	3,5	;RP0=1, select bank1
  9987     0497  1303               	bcf	3,6	;RP1=0, select bank1
  9988     0498  0845               	movf	(efgtoa@h+2)^(0+128),w
  9989     0499  1283               	bcf	3,5	;RP0=0, select bank0
  9990     049A  1303               	bcf	3,6	;RP1=0, select bank0
  9991     049B  00C4               	movwf	___flge@ff1+2
  9992     049C  1683               	bsf	3,5	;RP0=1, select bank1
  9993     049D  1303               	bcf	3,6	;RP1=0, select bank1
  9994     049E  0844               	movf	(efgtoa@h+1)^(0+128),w
  9995     049F  1283               	bcf	3,5	;RP0=0, select bank0
  9996     04A0  1303               	bcf	3,6	;RP1=0, select bank0
  9997     04A1  00C3               	movwf	___flge@ff1+1
  9998     04A2  1683               	bsf	3,5	;RP0=1, select bank1
  9999     04A3  1303               	bcf	3,6	;RP1=0, select bank1
 10000     04A4  0843               	movf	efgtoa@h^(0+128),w
 10001     04A5  1283               	bcf	3,5	;RP0=0, select bank0
 10002     04A6  1303               	bcf	3,6	;RP1=0, select bank0
 10003     04A7  00C2               	movwf	___flge@ff1
 10004     04A8  1683               	bsf	3,5	;RP0=1, select bank1
 10005     04A9  1303               	bcf	3,6	;RP1=0, select bank1
 10006     04AA  084A               	movf	(efgtoa@l+3)^(0+128),w
 10007     04AB  1283               	bcf	3,5	;RP0=0, select bank0
 10008     04AC  1303               	bcf	3,6	;RP1=0, select bank0
 10009     04AD  00C9               	movwf	___flge@ff2+3
 10010     04AE  1683               	bsf	3,5	;RP0=1, select bank1
 10011     04AF  1303               	bcf	3,6	;RP1=0, select bank1
 10012     04B0  0849               	movf	(efgtoa@l+2)^(0+128),w
 10013     04B1  1283               	bcf	3,5	;RP0=0, select bank0
 10014     04B2  1303               	bcf	3,6	;RP1=0, select bank0
 10015     04B3  00C8               	movwf	___flge@ff2+2
 10016     04B4  1683               	bsf	3,5	;RP0=1, select bank1
 10017     04B5  1303               	bcf	3,6	;RP1=0, select bank1
 10018     04B6  0848               	movf	(efgtoa@l+1)^(0+128),w
 10019     04B7  1283               	bcf	3,5	;RP0=0, select bank0
 10020     04B8  1303               	bcf	3,6	;RP1=0, select bank0
 10021     04B9  00C7               	movwf	___flge@ff2+1
 10022     04BA  1683               	bsf	3,5	;RP0=1, select bank1
 10023     04BB  1303               	bcf	3,6	;RP1=0, select bank1
 10024     04BC  0847               	movf	efgtoa@l^(0+128),w
 10025     04BD  1283               	bcf	3,5	;RP0=0, select bank0
 10026     04BE  1303               	bcf	3,6	;RP1=0, select bank0
 10027     04BF  00C6               	movwf	___flge@ff2
 10028     04C0  160A  118A  21C9  120A  118A  	fcall	___flge
 10029     04C5  1803               	btfsc	3,0
 10030     04C6  2CC8               	goto	u4361
 10031     04C7  2CC9               	goto	u4360
 10032     04C8                     u4361:
 10033     04C8  2CD4               	goto	l2988
 10034     04C9                     u4360:
 10035     04C9                     l2986:
 10036                           
 10037                           ;C:\Program Files\Microchip\xc8\v2.46\pic\sources\c99\common\doprnt.c: 747:         l = 
      +                          0.0;
 10038     04C9  3000               	movlw	0
 10039     04CA  1683               	bsf	3,5	;RP0=1, select bank1
 10040     04CB  1303               	bcf	3,6	;RP1=0, select bank1
 10041     04CC  00CA               	movwf	(efgtoa@l+3)^(0+128)
 10042     04CD  3000               	movlw	0
 10043     04CE  00C9               	movwf	(efgtoa@l+2)^(0+128)
 10044     04CF  3000               	movlw	0
 10045     04D0  00C8               	movwf	(efgtoa@l+1)^(0+128)
 10046     04D1  3000               	movlw	0
 10047     04D2  00C7               	movwf	efgtoa@l^(0+128)
 10048                           
 10049                           ;C:\Program Files\Microchip\xc8\v2.46\pic\sources\c99\common\doprnt.c: 748:     } else {
 10050     04D3  2CFD               	goto	l2994
 10051     04D4                     l2988:
 10052                           
 10053                           ;C:\Program Files\Microchip\xc8\v2.46\pic\sources\c99\common\doprnt.c: 750:         if (
      +                          (h == l) && !(d % 2)) {
 10054     04D4  1683               	bsf	3,5	;RP0=1, select bank1
 10055     04D5  1303               	bcf	3,6	;RP1=0, select bank1
 10056     04D6  0846               	movf	(efgtoa@h+3)^(0+128),w
 10057     04D7  00F3               	movwf	___fleq@ff1+3
 10058     04D8  0845               	movf	(efgtoa@h+2)^(0+128),w
 10059     04D9  00F2               	movwf	___fleq@ff1+2
 10060     04DA  0844               	movf	(efgtoa@h+1)^(0+128),w
 10061     04DB  00F1               	movwf	___fleq@ff1+1
 10062     04DC  0843               	movf	efgtoa@h^(0+128),w
 10063     04DD  00F0               	movwf	___fleq@ff1
 10064     04DE  084A               	movf	(efgtoa@l+3)^(0+128),w
 10065     04DF  00F7               	movwf	___fleq@ff2+3
 10066     04E0  0849               	movf	(efgtoa@l+2)^(0+128),w
 10067     04E1  00F6               	movwf	___fleq@ff2+2
 10068     04E2  0848               	movf	(efgtoa@l+1)^(0+128),w
 10069     04E3  00F5               	movwf	___fleq@ff2+1
 10070     04E4  0847               	movf	efgtoa@l^(0+128),w
 10071     04E5  00F4               	movwf	___fleq@ff2
 10072     04E6  160A  158A  26AD  120A  118A  	fcall	___fleq
 10073     04EB  1C03               	btfss	3,0
 10074     04EC  2CEE               	goto	u4371
 10075     04ED  2CEF               	goto	u4370
 10076     04EE                     u4371:
 10077     04EE  2CFD               	goto	l2994
 10078     04EF                     u4370:
 10079     04EF                     l2990:
 10080     04EF  1683               	bsf	3,5	;RP0=1, select bank1
 10081     04F0  1303               	bcf	3,6	;RP1=0, select bank1
 10082     04F1  1834               	btfsc	efgtoa@d^(0+128),0
 10083     04F2  2CF4               	goto	u4381
 10084     04F3  2CF5               	goto	u4380
 10085     04F4                     u4381:
 10086     04F4  2CFD               	goto	l2994
 10087     04F5                     u4380:
 10088     04F5                     l2992:
 10089                           
 10090                           ;C:\Program Files\Microchip\xc8\v2.46\pic\sources\c99\common\doprnt.c: 751:             
      +                          l = 0.0;
 10091     04F5  3000               	movlw	0
 10092     04F6  00CA               	movwf	(efgtoa@l+3)^(0+128)
 10093     04F7  3000               	movlw	0
 10094     04F8  00C9               	movwf	(efgtoa@l+2)^(0+128)
 10095     04F9  3000               	movlw	0
 10096     04FA  00C8               	movwf	(efgtoa@l+1)^(0+128)
 10097     04FB  3000               	movlw	0
 10098     04FC  00C7               	movwf	efgtoa@l^(0+128)
 10099     04FD                     l2994:
 10100                           
 10101                           ;C:\Program Files\Microchip\xc8\v2.46\pic\sources\c99\common\doprnt.c: 756:     h = g.f 
      +                          + l;
 10102     04FD  1683               	bsf	3,5	;RP0=1, select bank1
 10103     04FE  1303               	bcf	3,6	;RP1=0, select bank1
 10104     04FF  084A               	movf	(efgtoa@l+3)^(0+128),w
 10105     0500  00F3               	movwf	___fladd@b+3
 10106     0501  0849               	movf	(efgtoa@l+2)^(0+128),w
 10107     0502  00F2               	movwf	___fladd@b+2
 10108     0503  0848               	movf	(efgtoa@l+1)^(0+128),w
 10109     0504  00F1               	movwf	___fladd@b+1
 10110     0505  0847               	movf	efgtoa@l^(0+128),w
 10111     0506  00F0               	movwf	___fladd@b
 10112     0507  0851               	movf	(efgtoa@g+3)^(0+128),w
 10113     0508  00F7               	movwf	___fladd@a+3
 10114     0509  0850               	movf	(efgtoa@g+2)^(0+128),w
 10115     050A  00F6               	movwf	___fladd@a+2
 10116     050B  084F               	movf	(efgtoa@g+1)^(0+128),w
 10117     050C  00F5               	movwf	___fladd@a+1
 10118     050D  084E               	movf	efgtoa@g^(0+128),w
 10119     050E  00F4               	movwf	___fladd@a
 10120     050F  160A  118A  259C  120A  118A  	fcall	___fladd
 10121     0514  0873               	movf	?___fladd+3,w
 10122     0515  1683               	bsf	3,5	;RP0=1, select bank1
 10123     0516  1303               	bcf	3,6	;RP1=0, select bank1
 10124     0517  00C6               	movwf	(efgtoa@h+3)^(0+128)
 10125     0518  0872               	movf	?___fladd+2,w
 10126     0519  00C5               	movwf	(efgtoa@h+2)^(0+128)
 10127     051A  0871               	movf	?___fladd+1,w
 10128     051B  00C4               	movwf	(efgtoa@h+1)^(0+128)
 10129     051C  0870               	movf	?___fladd,w
 10130     051D  00C3               	movwf	efgtoa@h^(0+128)
 10131     051E                     l2996:
 10132                           
 10133                           ;C:\Program Files\Microchip\xc8\v2.46\pic\sources\c99\common\doprnt.c: 758:  if (h >= (o
      +                          u.f*10.0)) {
 10134     051E  0846               	movf	(efgtoa@h+3)^(0+128),w
 10135     051F  1283               	bcf	3,5	;RP0=0, select bank0
 10136     0520  1303               	bcf	3,6	;RP1=0, select bank0
 10137     0521  00C5               	movwf	___flge@ff1+3
 10138     0522  1683               	bsf	3,5	;RP0=1, select bank1
 10139     0523  1303               	bcf	3,6	;RP1=0, select bank1
 10140     0524  0845               	movf	(efgtoa@h+2)^(0+128),w
 10141     0525  1283               	bcf	3,5	;RP0=0, select bank0
 10142     0526  1303               	bcf	3,6	;RP1=0, select bank0
 10143     0527  00C4               	movwf	___flge@ff1+2
 10144     0528  1683               	bsf	3,5	;RP0=1, select bank1
 10145     0529  1303               	bcf	3,6	;RP1=0, select bank1
 10146     052A  0844               	movf	(efgtoa@h+1)^(0+128),w
 10147     052B  1283               	bcf	3,5	;RP0=0, select bank0
 10148     052C  1303               	bcf	3,6	;RP1=0, select bank0
 10149     052D  00C3               	movwf	___flge@ff1+1
 10150     052E  1683               	bsf	3,5	;RP0=1, select bank1
 10151     052F  1303               	bcf	3,6	;RP1=0, select bank1
 10152     0530  0843               	movf	efgtoa@h^(0+128),w
 10153     0531  1283               	bcf	3,5	;RP0=0, select bank0
 10154     0532  1303               	bcf	3,6	;RP1=0, select bank0
 10155     0533  00C2               	movwf	___flge@ff1
 10156     0534  3041               	movlw	65
 10157     0535  00AB               	movwf	___flmul@b+3
 10158     0536  3020               	movlw	32
 10159     0537  00AA               	movwf	___flmul@b+2
 10160     0538  3000               	movlw	0
 10161     0539  00A9               	movwf	___flmul@b+1
 10162     053A  3000               	movlw	0
 10163     053B  00A8               	movwf	___flmul@b
 10164     053C  1683               	bsf	3,5	;RP0=1, select bank1
 10165     053D  1303               	bcf	3,6	;RP1=0, select bank1
 10166     053E  0840               	movf	(efgtoa@ou+3)^(0+128),w
 10167     053F  1283               	bcf	3,5	;RP0=0, select bank0
 10168     0540  1303               	bcf	3,6	;RP1=0, select bank0
 10169     0541  00AF               	movwf	___flmul@a+3
 10170     0542  1683               	bsf	3,5	;RP0=1, select bank1
 10171     0543  1303               	bcf	3,6	;RP1=0, select bank1
 10172     0544  083F               	movf	(efgtoa@ou+2)^(0+128),w
 10173     0545  1283               	bcf	3,5	;RP0=0, select bank0
 10174     0546  1303               	bcf	3,6	;RP1=0, select bank0
 10175     0547  00AE               	movwf	___flmul@a+2
 10176     0548  1683               	bsf	3,5	;RP0=1, select bank1
 10177     0549  1303               	bcf	3,6	;RP1=0, select bank1
 10178     054A  083E               	movf	(efgtoa@ou+1)^(0+128),w
 10179     054B  1283               	bcf	3,5	;RP0=0, select bank0
 10180     054C  1303               	bcf	3,6	;RP1=0, select bank0
 10181     054D  00AD               	movwf	___flmul@a+1
 10182     054E  1683               	bsf	3,5	;RP0=1, select bank1
 10183     054F  1303               	bcf	3,6	;RP1=0, select bank1
 10184     0550  083D               	movf	efgtoa@ou^(0+128),w
 10185     0551  1283               	bcf	3,5	;RP0=0, select bank0
 10186     0552  1303               	bcf	3,6	;RP1=0, select bank0
 10187     0553  00AC               	movwf	___flmul@a
 10188     0554  120A  158A  24BB  120A  118A  	fcall	___flmul
 10189     0559  1283               	bcf	3,5	;RP0=0, select bank0
 10190     055A  1303               	bcf	3,6	;RP1=0, select bank0
 10191     055B  082B               	movf	?___flmul+3,w
 10192     055C  00C9               	movwf	___flge@ff2+3
 10193     055D  082A               	movf	?___flmul+2,w
 10194     055E  00C8               	movwf	___flge@ff2+2
 10195     055F  0829               	movf	?___flmul+1,w
 10196     0560  00C7               	movwf	___flge@ff2+1
 10197     0561  0828               	movf	?___flmul,w
 10198     0562  00C6               	movwf	___flge@ff2
 10199     0563  160A  118A  21C9  120A  118A  	fcall	___flge
 10200     0568  1C03               	btfss	3,0
 10201     0569  2D6B               	goto	u4391
 10202     056A  2D6C               	goto	u4390
 10203     056B                     u4391:
 10204     056B  2DBF               	goto	l753
 10205     056C                     u4390:
 10206     056C                     l2998:
 10207                           
 10208                           ;C:\Program Files\Microchip\xc8\v2.46\pic\sources\c99\common\doprnt.c: 759:   e++;
 10209     056C  3001               	movlw	1
 10210     056D  1683               	bsf	3,5	;RP0=1, select bank1
 10211     056E  1303               	bcf	3,6	;RP1=0, select bank1
 10212     056F  07B9               	addwf	efgtoa@e^(0+128),f
 10213     0570  1803               	skipnc
 10214     0571  0ABA               	incf	(efgtoa@e+1)^(0+128),f
 10215     0572  3000               	movlw	0
 10216     0573  07BA               	addwf	(efgtoa@e+1)^(0+128),f
 10217     0574                     l3000:
 10218                           
 10219                           ;C:\Program Files\Microchip\xc8\v2.46\pic\sources\c99\common\doprnt.c: 760:   ou.f *= 10
      +                          .0;
 10220     0574  3041               	movlw	65
 10221     0575  1283               	bcf	3,5	;RP0=0, select bank0
 10222     0576  1303               	bcf	3,6	;RP1=0, select bank0
 10223     0577  00AB               	movwf	___flmul@b+3
 10224     0578  3020               	movlw	32
 10225     0579  00AA               	movwf	___flmul@b+2
 10226     057A  3000               	movlw	0
 10227     057B  00A9               	movwf	___flmul@b+1
 10228     057C  3000               	movlw	0
 10229     057D  00A8               	movwf	___flmul@b
 10230     057E  1683               	bsf	3,5	;RP0=1, select bank1
 10231     057F  1303               	bcf	3,6	;RP1=0, select bank1
 10232     0580  0840               	movf	(efgtoa@ou+3)^(0+128),w
 10233     0581  1283               	bcf	3,5	;RP0=0, select bank0
 10234     0582  1303               	bcf	3,6	;RP1=0, select bank0
 10235     0583  00AF               	movwf	___flmul@a+3
 10236     0584  1683               	bsf	3,5	;RP0=1, select bank1
 10237     0585  1303               	bcf	3,6	;RP1=0, select bank1
 10238     0586  083F               	movf	(efgtoa@ou+2)^(0+128),w
 10239     0587  1283               	bcf	3,5	;RP0=0, select bank0
 10240     0588  1303               	bcf	3,6	;RP1=0, select bank0
 10241     0589  00AE               	movwf	___flmul@a+2
 10242     058A  1683               	bsf	3,5	;RP0=1, select bank1
 10243     058B  1303               	bcf	3,6	;RP1=0, select bank1
 10244     058C  083E               	movf	(efgtoa@ou+1)^(0+128),w
 10245     058D  1283               	bcf	3,5	;RP0=0, select bank0
 10246     058E  1303               	bcf	3,6	;RP1=0, select bank0
 10247     058F  00AD               	movwf	___flmul@a+1
 10248     0590  1683               	bsf	3,5	;RP0=1, select bank1
 10249     0591  1303               	bcf	3,6	;RP1=0, select bank1
 10250     0592  083D               	movf	efgtoa@ou^(0+128),w
 10251     0593  1283               	bcf	3,5	;RP0=0, select bank0
 10252     0594  1303               	bcf	3,6	;RP1=0, select bank0
 10253     0595  00AC               	movwf	___flmul@a
 10254     0596  120A  158A  24BB  120A  118A  	fcall	___flmul
 10255     059B  1283               	bcf	3,5	;RP0=0, select bank0
 10256     059C  1303               	bcf	3,6	;RP1=0, select bank0
 10257     059D  082B               	movf	?___flmul+3,w
 10258     059E  1683               	bsf	3,5	;RP0=1, select bank1
 10259     059F  1303               	bcf	3,6	;RP1=0, select bank1
 10260     05A0  00C0               	movwf	(efgtoa@ou+3)^(0+128)
 10261     05A1  1283               	bcf	3,5	;RP0=0, select bank0
 10262     05A2  1303               	bcf	3,6	;RP1=0, select bank0
 10263     05A3  082A               	movf	?___flmul+2,w
 10264     05A4  1683               	bsf	3,5	;RP0=1, select bank1
 10265     05A5  1303               	bcf	3,6	;RP1=0, select bank1
 10266     05A6  00BF               	movwf	(efgtoa@ou+2)^(0+128)
 10267     05A7  1283               	bcf	3,5	;RP0=0, select bank0
 10268     05A8  1303               	bcf	3,6	;RP1=0, select bank0
 10269     05A9  0829               	movf	?___flmul+1,w
 10270     05AA  1683               	bsf	3,5	;RP0=1, select bank1
 10271     05AB  1303               	bcf	3,6	;RP1=0, select bank1
 10272     05AC  00BE               	movwf	(efgtoa@ou+1)^(0+128)
 10273     05AD  1283               	bcf	3,5	;RP0=0, select bank0
 10274     05AE  1303               	bcf	3,6	;RP1=0, select bank0
 10275     05AF  0828               	movf	?___flmul,w
 10276     05B0  1683               	bsf	3,5	;RP0=1, select bank1
 10277     05B1  1303               	bcf	3,6	;RP1=0, select bank1
 10278     05B2  00BD               	movwf	efgtoa@ou^(0+128)
 10279     05B3                     l3002:
 10280                           
 10281                           ;C:\Program Files\Microchip\xc8\v2.46\pic\sources\c99\common\doprnt.c: 762:   if (nmode 
      +                          == 'f') {
 10282     05B3  3066               	movlw	102
 10283     05B4  0633               	xorwf	efgtoa@nmode^(0+128),w
 10284     05B5  1D03               	btfss	3,2
 10285     05B6  2DB8               	goto	u4401
 10286     05B7  2DB9               	goto	u4400
 10287     05B8                     u4401:
 10288     05B8  2DBF               	goto	l753
 10289     05B9                     u4400:
 10290     05B9                     l3004:
 10291                           
 10292                           ;C:\Program Files\Microchip\xc8\v2.46\pic\sources\c99\common\doprnt.c: 764:    m++;
 10293     05B9  3001               	movlw	1
 10294     05BA  07B6               	addwf	efgtoa@m^(0+128),f
 10295     05BB  1803               	skipnc
 10296     05BC  0AB7               	incf	(efgtoa@m+1)^(0+128),f
 10297     05BD  3000               	movlw	0
 10298     05BE  07B7               	addwf	(efgtoa@m+1)^(0+128),f
 10299     05BF                     l753:	
 10300                           ;C:\Program Files\Microchip\xc8\v2.46\pic\sources\c99\common\doprnt.c: 767:  }
 10301                           
 10302                           
 10303                           ;C:\Program Files\Microchip\xc8\v2.46\pic\sources\c99\common\doprnt.c: 770:     u = ou;
 10304     05BF  1683               	bsf	3,5	;RP0=1, select bank1
 10305     05C0  1303               	bcf	3,6	;RP1=0, select bank1
 10306     05C1  0840               	movf	(efgtoa@ou+3)^(0+128),w
 10307     05C2  00D5               	movwf	(efgtoa@u+3)^(0+128)
 10308     05C3  083F               	movf	(efgtoa@ou+2)^(0+128),w
 10309     05C4  00D4               	movwf	(efgtoa@u+2)^(0+128)
 10310     05C5  083E               	movf	(efgtoa@ou+1)^(0+128),w
 10311     05C6  00D3               	movwf	(efgtoa@u+1)^(0+128)
 10312     05C7  083D               	movf	efgtoa@ou^(0+128),w
 10313     05C8  00D2               	movwf	efgtoa@u^(0+128)
 10314                           
 10315                           ;C:\Program Files\Microchip\xc8\v2.46\pic\sources\c99\common\doprnt.c: 774:  ne = e;
 10316     05C9  083A               	movf	(efgtoa@e+1)^(0+128),w
 10317     05CA  00AA               	movwf	(efgtoa@ne+1)^(0+128)
 10318     05CB  0839               	movf	efgtoa@e^(0+128),w
 10319     05CC  00A9               	movwf	efgtoa@ne^(0+128)
 10320     05CD                     l3006:
 10321                           
 10322                           ;C:\Program Files\Microchip\xc8\v2.46\pic\sources\c99\common\doprnt.c: 776:     pp = 0;
 10323     05CD  01B1               	clrf	efgtoa@pp^(0+128)
 10324     05CE                     l3008:
 10325                           
 10326                           ;C:\Program Files\Microchip\xc8\v2.46\pic\sources\c99\common\doprnt.c: 777:     t = 0;
 10327     05CE  01AD               	clrf	efgtoa@t^(0+128)
 10328     05CF  01AE               	clrf	(efgtoa@t+1)^(0+128)
 10329     05D0                     l3010:
 10330                           
 10331                           ;C:\Program Files\Microchip\xc8\v2.46\pic\sources\c99\common\doprnt.c: 778:     i = 0;
 10332     05D0  01C1               	clrf	efgtoa@i^(0+128)
 10333     05D1  01C2               	clrf	(efgtoa@i+1)^(0+128)
 10334                           
 10335                           ;C:\Program Files\Microchip\xc8\v2.46\pic\sources\c99\common\doprnt.c: 779:     while ((
      +                          i < m) && (n < (80 - 5))) {
 10336     05D2  2F71               	goto	l3054
 10337     05D3                     l3012:
 10338                           
 10339                           ;C:\Program Files\Microchip\xc8\v2.46\pic\sources\c99\common\doprnt.c: 780:         l = 
      +                          floorf(h/u.f);
 10340     05D3  1683               	bsf	3,5	;RP0=1, select bank1
 10341     05D4  1303               	bcf	3,6	;RP1=0, select bank1
 10342     05D5  0855               	movf	(efgtoa@u+3)^(0+128),w
 10343     05D6  1283               	bcf	3,5	;RP0=0, select bank0
 10344     05D7  1303               	bcf	3,6	;RP1=0, select bank0
 10345     05D8  00C5               	movwf	___fldiv@a+3
 10346     05D9  1683               	bsf	3,5	;RP0=1, select bank1
 10347     05DA  1303               	bcf	3,6	;RP1=0, select bank1
 10348     05DB  0854               	movf	(efgtoa@u+2)^(0+128),w
 10349     05DC  1283               	bcf	3,5	;RP0=0, select bank0
 10350     05DD  1303               	bcf	3,6	;RP1=0, select bank0
 10351     05DE  00C4               	movwf	___fldiv@a+2
 10352     05DF  1683               	bsf	3,5	;RP0=1, select bank1
 10353     05E0  1303               	bcf	3,6	;RP1=0, select bank1
 10354     05E1  0853               	movf	(efgtoa@u+1)^(0+128),w
 10355     05E2  1283               	bcf	3,5	;RP0=0, select bank0
 10356     05E3  1303               	bcf	3,6	;RP1=0, select bank0
 10357     05E4  00C3               	movwf	___fldiv@a+1
 10358     05E5  1683               	bsf	3,5	;RP0=1, select bank1
 10359     05E6  1303               	bcf	3,6	;RP1=0, select bank1
 10360     05E7  0852               	movf	efgtoa@u^(0+128),w
 10361     05E8  1283               	bcf	3,5	;RP0=0, select bank0
 10362     05E9  1303               	bcf	3,6	;RP1=0, select bank0
 10363     05EA  00C2               	movwf	___fldiv@a
 10364     05EB  1683               	bsf	3,5	;RP0=1, select bank1
 10365     05EC  1303               	bcf	3,6	;RP1=0, select bank1
 10366     05ED  0846               	movf	(efgtoa@h+3)^(0+128),w
 10367     05EE  1283               	bcf	3,5	;RP0=0, select bank0
 10368     05EF  1303               	bcf	3,6	;RP1=0, select bank0
 10369     05F0  00C9               	movwf	___fldiv@b+3
 10370     05F1  1683               	bsf	3,5	;RP0=1, select bank1
 10371     05F2  1303               	bcf	3,6	;RP1=0, select bank1
 10372     05F3  0845               	movf	(efgtoa@h+2)^(0+128),w
 10373     05F4  1283               	bcf	3,5	;RP0=0, select bank0
 10374     05F5  1303               	bcf	3,6	;RP1=0, select bank0
 10375     05F6  00C8               	movwf	___fldiv@b+2
 10376     05F7  1683               	bsf	3,5	;RP0=1, select bank1
 10377     05F8  1303               	bcf	3,6	;RP1=0, select bank1
 10378     05F9  0844               	movf	(efgtoa@h+1)^(0+128),w
 10379     05FA  1283               	bcf	3,5	;RP0=0, select bank0
 10380     05FB  1303               	bcf	3,6	;RP1=0, select bank0
 10381     05FC  00C7               	movwf	___fldiv@b+1
 10382     05FD  1683               	bsf	3,5	;RP0=1, select bank1
 10383     05FE  1303               	bcf	3,6	;RP1=0, select bank1
 10384     05FF  0843               	movf	efgtoa@h^(0+128),w
 10385     0600  1283               	bcf	3,5	;RP0=0, select bank0
 10386     0601  1303               	bcf	3,6	;RP1=0, select bank0
 10387     0602  00C6               	movwf	___fldiv@b
 10388     0603  120A  158A  206E  120A  118A  	fcall	___fldiv
 10389     0608  1283               	bcf	3,5	;RP0=0, select bank0
 10390     0609  1303               	bcf	3,6	;RP1=0, select bank0
 10391     060A  0845               	movf	?___fldiv+3,w
 10392     060B  00DF               	movwf	floorf@x+3
 10393     060C  0844               	movf	?___fldiv+2,w
 10394     060D  00DE               	movwf	floorf@x+2
 10395     060E  0843               	movf	?___fldiv+1,w
 10396     060F  00DD               	movwf	floorf@x+1
 10397     0610  0842               	movf	?___fldiv,w
 10398     0611  00DC               	movwf	floorf@x
 10399     0612  160A  118A  2376  120A  118A  	fcall	_floorf
 10400     0617  1283               	bcf	3,5	;RP0=0, select bank0
 10401     0618  1303               	bcf	3,6	;RP1=0, select bank0
 10402     0619  085F               	movf	?_floorf+3,w
 10403     061A  1683               	bsf	3,5	;RP0=1, select bank1
 10404     061B  1303               	bcf	3,6	;RP1=0, select bank1
 10405     061C  00CA               	movwf	(efgtoa@l+3)^(0+128)
 10406     061D  1283               	bcf	3,5	;RP0=0, select bank0
 10407     061E  1303               	bcf	3,6	;RP1=0, select bank0
 10408     061F  085E               	movf	?_floorf+2,w
 10409     0620  1683               	bsf	3,5	;RP0=1, select bank1
 10410     0621  1303               	bcf	3,6	;RP1=0, select bank1
 10411     0622  00C9               	movwf	(efgtoa@l+2)^(0+128)
 10412     0623  1283               	bcf	3,5	;RP0=0, select bank0
 10413     0624  1303               	bcf	3,6	;RP1=0, select bank0
 10414     0625  085D               	movf	?_floorf+1,w
 10415     0626  1683               	bsf	3,5	;RP0=1, select bank1
 10416     0627  1303               	bcf	3,6	;RP1=0, select bank1
 10417     0628  00C8               	movwf	(efgtoa@l+1)^(0+128)
 10418     0629  1283               	bcf	3,5	;RP0=0, select bank0
 10419     062A  1303               	bcf	3,6	;RP1=0, select bank0
 10420     062B  085C               	movf	?_floorf,w
 10421     062C  1683               	bsf	3,5	;RP0=1, select bank1
 10422     062D  1303               	bcf	3,6	;RP1=0, select bank1
 10423     062E  00C7               	movwf	efgtoa@l^(0+128)
 10424                           
 10425                           ;C:\Program Files\Microchip\xc8\v2.46\pic\sources\c99\common\doprnt.c: 781:         d = 
      +                          (int)l > 9 ? 9 : (int)l;
 10426     062F  084A               	movf	(efgtoa@l+3)^(0+128),w
 10427     0630  00F3               	movwf	___fltol@f1+3
 10428     0631  0849               	movf	(efgtoa@l+2)^(0+128),w
 10429     0632  00F2               	movwf	___fltol@f1+2
 10430     0633  0848               	movf	(efgtoa@l+1)^(0+128),w
 10431     0634  00F1               	movwf	___fltol@f1+1
 10432     0635  0847               	movf	efgtoa@l^(0+128),w
 10433     0636  00F0               	movwf	___fltol@f1
 10434     0637  160A  118A  2039  120A  118A  	fcall	___fltol
 10435     063C  0871               	movf	?___fltol+1,w
 10436     063D  3A80               	xorlw	128
 10437     063E  00FF               	movwf	btemp+1
 10438     063F  3080               	movlw	128
 10439     0640  027F               	subwf	btemp+1,w
 10440     0641  1D03               	skipz
 10441     0642  2E45               	goto	u4415
 10442     0643  300A               	movlw	10
 10443     0644  0270               	subwf	?___fltol,w
 10444     0645                     u4415:
 10445     0645  1803               	skipnc
 10446     0646  2E48               	goto	u4411
 10447     0647  2E49               	goto	u4410
 10448     0648                     u4411:
 10449     0648  2E5F               	goto	l3016
 10450     0649                     u4410:
 10451     0649                     l3014:
 10452     0649  1683               	bsf	3,5	;RP0=1, select bank1
 10453     064A  1303               	bcf	3,6	;RP1=0, select bank1
 10454     064B  084A               	movf	(efgtoa@l+3)^(0+128),w
 10455     064C  00F3               	movwf	___fltol@f1+3
 10456     064D  0849               	movf	(efgtoa@l+2)^(0+128),w
 10457     064E  00F2               	movwf	___fltol@f1+2
 10458     064F  0848               	movf	(efgtoa@l+1)^(0+128),w
 10459     0650  00F1               	movwf	___fltol@f1+1
 10460     0651  0847               	movf	efgtoa@l^(0+128),w
 10461     0652  00F0               	movwf	___fltol@f1
 10462     0653  160A  118A  2039  120A  118A  	fcall	___fltol
 10463     0658  0871               	movf	?___fltol+1,w
 10464     0659  1683               	bsf	3,5	;RP0=1, select bank1
 10465     065A  1303               	bcf	3,6	;RP1=0, select bank1
 10466     065B  00B5               	movwf	(efgtoa@d+1)^(0+128)
 10467     065C  0870               	movf	?___fltol,w
 10468     065D  00B4               	movwf	efgtoa@d^(0+128)
 10469     065E  2E65               	goto	l3018
 10470     065F                     l3016:
 10471     065F  3009               	movlw	9
 10472     0660  1683               	bsf	3,5	;RP0=1, select bank1
 10473     0661  1303               	bcf	3,6	;RP1=0, select bank1
 10474     0662  00B4               	movwf	efgtoa@d^(0+128)
 10475     0663  3000               	movlw	0
 10476     0664  00B5               	movwf	(efgtoa@d^(0+128)+1)
 10477     0665                     l3018:
 10478                           
 10479                           ;C:\Program Files\Microchip\xc8\v2.46\pic\sources\c99\common\doprnt.c: 792:   {;C:\Progr
      +                          am Files\Microchip\xc8\v2.46\pic\sources\c99\common\doprnt.c: 793:             if (!pp &
      +                          & (ne < 0)) {
 10480     0665  0831               	movf	efgtoa@pp^(0+128),w
 10481     0666  1D03               	btfss	3,2
 10482     0667  2E69               	goto	u4421
 10483     0668  2E6A               	goto	u4420
 10484     0669                     u4421:
 10485     0669  2E9B               	goto	l3038
 10486     066A                     u4420:
 10487     066A                     l3020:
 10488     066A  1FAA               	btfss	(efgtoa@ne+1)^(0+128),7
 10489     066B  2E6D               	goto	u4431
 10490     066C  2E6E               	goto	u4430
 10491     066D                     u4431:
 10492     066D  2E9B               	goto	l3038
 10493     066E                     u4430:
 10494     066E                     l3022:
 10495                           
 10496                           ;C:\Program Files\Microchip\xc8\v2.46\pic\sources\c99\common\doprnt.c: 794:             
      +                              dbuf[n++] = '.';
 10497     066E  084C               	movf	efgtoa@n^(0+128),w
 10498     066F  3E10               	addlw	(low (_dbuf| (0+256)))& (0+255)
 10499     0670  0084               	movwf	4
 10500     0671  302E               	movlw	46
 10501     0672  1783               	bsf	3,7	;select IRP bank2
 10502     0673  0080               	movwf	0
 10503     0674                     l3024:
 10504     0674  3001               	movlw	1
 10505     0675  07CC               	addwf	efgtoa@n^(0+128),f
 10506     0676  1803               	skipnc
 10507     0677  0ACD               	incf	(efgtoa@n+1)^(0+128),f
 10508     0678  3000               	movlw	0
 10509     0679  07CD               	addwf	(efgtoa@n+1)^(0+128),f
 10510     067A                     l3026:
 10511                           
 10512                           ;C:\Program Files\Microchip\xc8\v2.46\pic\sources\c99\common\doprnt.c: 795:             
      +                              --w;
 10513     067A  30FF               	movlw	255
 10514     067B  07BB               	addwf	efgtoa@w^(0+128),f
 10515     067C  1803               	skipnc
 10516     067D  0ABC               	incf	(efgtoa@w+1)^(0+128),f
 10517     067E  30FF               	movlw	255
 10518     067F  07BC               	addwf	(efgtoa@w+1)^(0+128),f
 10519     0680                     l3028:
 10520                           
 10521                           ;C:\Program Files\Microchip\xc8\v2.46\pic\sources\c99\common\doprnt.c: 796:             
      +                              pp = 1;
 10522     0680  01B1               	clrf	efgtoa@pp^(0+128)
 10523     0681  0AB1               	incf	efgtoa@pp^(0+128),f
 10524     0682  2E9B               	goto	l3038
 10525     0683                     l3030:
 10526                           
 10527                           ;C:\Program Files\Microchip\xc8\v2.46\pic\sources\c99\common\doprnt.c: 799:             
      +                              dbuf[n++] = '0';
 10528     0683  084C               	movf	efgtoa@n^(0+128),w
 10529     0684  3E10               	addlw	(low (_dbuf| (0+256)))& (0+255)
 10530     0685  0084               	movwf	4
 10531     0686  3030               	movlw	48
 10532     0687  1783               	bsf	3,7	;select IRP bank2
 10533     0688  0080               	movwf	0
 10534     0689                     l3032:
 10535     0689  3001               	movlw	1
 10536     068A  07CC               	addwf	efgtoa@n^(0+128),f
 10537     068B  1803               	skipnc
 10538     068C  0ACD               	incf	(efgtoa@n+1)^(0+128),f
 10539     068D  3000               	movlw	0
 10540     068E  07CD               	addwf	(efgtoa@n+1)^(0+128),f
 10541     068F                     l3034:
 10542                           
 10543                           ;C:\Program Files\Microchip\xc8\v2.46\pic\sources\c99\common\doprnt.c: 800:             
      +                              --w;
 10544     068F  30FF               	movlw	255
 10545     0690  07BB               	addwf	efgtoa@w^(0+128),f
 10546     0691  1803               	skipnc
 10547     0692  0ABC               	incf	(efgtoa@w+1)^(0+128),f
 10548     0693  30FF               	movlw	255
 10549     0694  07BC               	addwf	(efgtoa@w+1)^(0+128),f
 10550     0695                     l3036:
 10551                           
 10552                           ;C:\Program Files\Microchip\xc8\v2.46\pic\sources\c99\common\doprnt.c: 801:             
      +                              --t;
 10553     0695  30FF               	movlw	255
 10554     0696  07AD               	addwf	efgtoa@t^(0+128),f
 10555     0697  1803               	skipnc
 10556     0698  0AAE               	incf	(efgtoa@t+1)^(0+128),f
 10557     0699  30FF               	movlw	255
 10558     069A  07AE               	addwf	(efgtoa@t+1)^(0+128),f
 10559     069B                     l3038:
 10560                           
 10561                           ;C:\Program Files\Microchip\xc8\v2.46\pic\sources\c99\common\doprnt.c: 798:             
      +                          while (t) {
 10562     069B  082D               	movf	efgtoa@t^(0+128),w
 10563     069C  042E               	iorwf	(efgtoa@t+1)^(0+128),w
 10564     069D  1D03               	btfss	3,2
 10565     069E  2EA0               	goto	u4441
 10566     069F  2EA1               	goto	u4440
 10567     06A0                     u4441:
 10568     06A0  2E83               	goto	l3030
 10569     06A1                     u4440:
 10570     06A1                     l3040:
 10571                           
 10572                           ;C:\Program Files\Microchip\xc8\v2.46\pic\sources\c99\common\doprnt.c: 803:             
      +                          dbuf[n++] = (char)((int)'0' + d);
 10573     06A1  084C               	movf	efgtoa@n^(0+128),w
 10574     06A2  3E10               	addlw	(low (_dbuf| (0+256)))& (0+255)
 10575     06A3  0084               	movwf	4
 10576     06A4  0834               	movf	efgtoa@d^(0+128),w
 10577     06A5  3E30               	addlw	48
 10578     06A6  1783               	bsf	3,7	;select IRP bank2
 10579     06A7  0080               	movwf	0
 10580     06A8                     l3042:
 10581     06A8  3001               	movlw	1
 10582     06A9  07CC               	addwf	efgtoa@n^(0+128),f
 10583     06AA  1803               	skipnc
 10584     06AB  0ACD               	incf	(efgtoa@n+1)^(0+128),f
 10585     06AC  3000               	movlw	0
 10586     06AD  07CD               	addwf	(efgtoa@n+1)^(0+128),f
 10587     06AE                     l3044:
 10588                           
 10589                           ;C:\Program Files\Microchip\xc8\v2.46\pic\sources\c99\common\doprnt.c: 804:             
      +                          --w;
 10590     06AE  30FF               	movlw	255
 10591     06AF  07BB               	addwf	efgtoa@w^(0+128),f
 10592     06B0  1803               	skipnc
 10593     06B1  0ABC               	incf	(efgtoa@w+1)^(0+128),f
 10594     06B2  30FF               	movlw	255
 10595     06B3  07BC               	addwf	(efgtoa@w+1)^(0+128),f
 10596     06B4                     l3046:
 10597                           
 10598                           ;C:\Program Files\Microchip\xc8\v2.46\pic\sources\c99\common\doprnt.c: 805:         };C:
      +                          \Program Files\Microchip\xc8\v2.46\pic\sources\c99\common\doprnt.c: 806:         h -= l*
      +                          u.f;
 10599     06B4  0855               	movf	(efgtoa@u+3)^(0+128),w
 10600     06B5  1283               	bcf	3,5	;RP0=0, select bank0
 10601     06B6  1303               	bcf	3,6	;RP1=0, select bank0
 10602     06B7  00AF               	movwf	___flmul@a+3
 10603     06B8  1683               	bsf	3,5	;RP0=1, select bank1
 10604     06B9  1303               	bcf	3,6	;RP1=0, select bank1
 10605     06BA  0854               	movf	(efgtoa@u+2)^(0+128),w
 10606     06BB  1283               	bcf	3,5	;RP0=0, select bank0
 10607     06BC  1303               	bcf	3,6	;RP1=0, select bank0
 10608     06BD  00AE               	movwf	___flmul@a+2
 10609     06BE  1683               	bsf	3,5	;RP0=1, select bank1
 10610     06BF  1303               	bcf	3,6	;RP1=0, select bank1
 10611     06C0  0853               	movf	(efgtoa@u+1)^(0+128),w
 10612     06C1  1283               	bcf	3,5	;RP0=0, select bank0
 10613     06C2  1303               	bcf	3,6	;RP1=0, select bank0
 10614     06C3  00AD               	movwf	___flmul@a+1
 10615     06C4  1683               	bsf	3,5	;RP0=1, select bank1
 10616     06C5  1303               	bcf	3,6	;RP1=0, select bank1
 10617     06C6  0852               	movf	efgtoa@u^(0+128),w
 10618     06C7  1283               	bcf	3,5	;RP0=0, select bank0
 10619     06C8  1303               	bcf	3,6	;RP1=0, select bank0
 10620     06C9  00AC               	movwf	___flmul@a
 10621     06CA  1683               	bsf	3,5	;RP0=1, select bank1
 10622     06CB  1303               	bcf	3,6	;RP1=0, select bank1
 10623     06CC  084A               	movf	(efgtoa@l+3)^(0+128),w
 10624     06CD  1283               	bcf	3,5	;RP0=0, select bank0
 10625     06CE  1303               	bcf	3,6	;RP1=0, select bank0
 10626     06CF  00AB               	movwf	___flmul@b+3
 10627     06D0  1683               	bsf	3,5	;RP0=1, select bank1
 10628     06D1  1303               	bcf	3,6	;RP1=0, select bank1
 10629     06D2  0849               	movf	(efgtoa@l+2)^(0+128),w
 10630     06D3  1283               	bcf	3,5	;RP0=0, select bank0
 10631     06D4  1303               	bcf	3,6	;RP1=0, select bank0
 10632     06D5  00AA               	movwf	___flmul@b+2
 10633     06D6  1683               	bsf	3,5	;RP0=1, select bank1
 10634     06D7  1303               	bcf	3,6	;RP1=0, select bank1
 10635     06D8  0848               	movf	(efgtoa@l+1)^(0+128),w
 10636     06D9  1283               	bcf	3,5	;RP0=0, select bank0
 10637     06DA  1303               	bcf	3,6	;RP1=0, select bank0
 10638     06DB  00A9               	movwf	___flmul@b+1
 10639     06DC  1683               	bsf	3,5	;RP0=1, select bank1
 10640     06DD  1303               	bcf	3,6	;RP1=0, select bank1
 10641     06DE  0847               	movf	efgtoa@l^(0+128),w
 10642     06DF  1283               	bcf	3,5	;RP0=0, select bank0
 10643     06E0  1303               	bcf	3,6	;RP1=0, select bank0
 10644     06E1  00A8               	movwf	___flmul@b
 10645     06E2  120A  158A  24BB  120A  118A  	fcall	___flmul
 10646     06E7  1283               	bcf	3,5	;RP0=0, select bank0
 10647     06E8  1303               	bcf	3,6	;RP1=0, select bank0
 10648     06E9  082B               	movf	?___flmul+3,w
 10649     06EA  00C5               	movwf	___flsub@a+3
 10650     06EB  082A               	movf	?___flmul+2,w
 10651     06EC  00C4               	movwf	___flsub@a+2
 10652     06ED  0829               	movf	?___flmul+1,w
 10653     06EE  00C3               	movwf	___flsub@a+1
 10654     06EF  0828               	movf	?___flmul,w
 10655     06F0  00C2               	movwf	___flsub@a
 10656     06F1  1683               	bsf	3,5	;RP0=1, select bank1
 10657     06F2  1303               	bcf	3,6	;RP1=0, select bank1
 10658     06F3  0846               	movf	(efgtoa@h+3)^(0+128),w
 10659     06F4  1283               	bcf	3,5	;RP0=0, select bank0
 10660     06F5  1303               	bcf	3,6	;RP1=0, select bank0
 10661     06F6  00C9               	movwf	___flsub@b+3
 10662     06F7  1683               	bsf	3,5	;RP0=1, select bank1
 10663     06F8  1303               	bcf	3,6	;RP1=0, select bank1
 10664     06F9  0845               	movf	(efgtoa@h+2)^(0+128),w
 10665     06FA  1283               	bcf	3,5	;RP0=0, select bank0
 10666     06FB  1303               	bcf	3,6	;RP1=0, select bank0
 10667     06FC  00C8               	movwf	___flsub@b+2
 10668     06FD  1683               	bsf	3,5	;RP0=1, select bank1
 10669     06FE  1303               	bcf	3,6	;RP1=0, select bank1
 10670     06FF  0844               	movf	(efgtoa@h+1)^(0+128),w
 10671     0700  1283               	bcf	3,5	;RP0=0, select bank0
 10672     0701  1303               	bcf	3,6	;RP1=0, select bank0
 10673     0702  00C7               	movwf	___flsub@b+1
 10674     0703  1683               	bsf	3,5	;RP0=1, select bank1
 10675     0704  1303               	bcf	3,6	;RP1=0, select bank1
 10676     0705  0843               	movf	efgtoa@h^(0+128),w
 10677     0706  1283               	bcf	3,5	;RP0=0, select bank0
 10678     0707  1303               	bcf	3,6	;RP1=0, select bank0
 10679     0708  00C6               	movwf	___flsub@b
 10680     0709  160A  158A  2597  120A  118A  	fcall	___flsub
 10681     070E  1283               	bcf	3,5	;RP0=0, select bank0
 10682     070F  1303               	bcf	3,6	;RP1=0, select bank0
 10683     0710  0845               	movf	?___flsub+3,w
 10684     0711  1683               	bsf	3,5	;RP0=1, select bank1
 10685     0712  1303               	bcf	3,6	;RP1=0, select bank1
 10686     0713  00C6               	movwf	(efgtoa@h+3)^(0+128)
 10687     0714  1283               	bcf	3,5	;RP0=0, select bank0
 10688     0715  1303               	bcf	3,6	;RP1=0, select bank0
 10689     0716  0844               	movf	?___flsub+2,w
 10690     0717  1683               	bsf	3,5	;RP0=1, select bank1
 10691     0718  1303               	bcf	3,6	;RP1=0, select bank1
 10692     0719  00C5               	movwf	(efgtoa@h+2)^(0+128)
 10693     071A  1283               	bcf	3,5	;RP0=0, select bank0
 10694     071B  1303               	bcf	3,6	;RP1=0, select bank0
 10695     071C  0843               	movf	?___flsub+1,w
 10696     071D  1683               	bsf	3,5	;RP0=1, select bank1
 10697     071E  1303               	bcf	3,6	;RP1=0, select bank1
 10698     071F  00C4               	movwf	(efgtoa@h+1)^(0+128)
 10699     0720  1283               	bcf	3,5	;RP0=0, select bank0
 10700     0721  1303               	bcf	3,6	;RP1=0, select bank0
 10701     0722  0842               	movf	?___flsub,w
 10702     0723  1683               	bsf	3,5	;RP0=1, select bank1
 10703     0724  1303               	bcf	3,6	;RP1=0, select bank1
 10704     0725  00C3               	movwf	efgtoa@h^(0+128)
 10705     0726                     l3048:
 10706                           
 10707                           ;C:\Program Files\Microchip\xc8\v2.46\pic\sources\c99\common\doprnt.c: 807:         u.f 
      +                          = u.f/10.0;
 10708     0726  3041               	movlw	65
 10709     0727  1283               	bcf	3,5	;RP0=0, select bank0
 10710     0728  1303               	bcf	3,6	;RP1=0, select bank0
 10711     0729  00C5               	movwf	___fldiv@a+3
 10712     072A  3020               	movlw	32
 10713     072B  00C4               	movwf	___fldiv@a+2
 10714     072C  3000               	movlw	0
 10715     072D  00C3               	movwf	___fldiv@a+1
 10716     072E  3000               	movlw	0
 10717     072F  00C2               	movwf	___fldiv@a
 10718     0730  1683               	bsf	3,5	;RP0=1, select bank1
 10719     0731  1303               	bcf	3,6	;RP1=0, select bank1
 10720     0732  0855               	movf	(efgtoa@u+3)^(0+128),w
 10721     0733  1283               	bcf	3,5	;RP0=0, select bank0
 10722     0734  1303               	bcf	3,6	;RP1=0, select bank0
 10723     0735  00C9               	movwf	___fldiv@b+3
 10724     0736  1683               	bsf	3,5	;RP0=1, select bank1
 10725     0737  1303               	bcf	3,6	;RP1=0, select bank1
 10726     0738  0854               	movf	(efgtoa@u+2)^(0+128),w
 10727     0739  1283               	bcf	3,5	;RP0=0, select bank0
 10728     073A  1303               	bcf	3,6	;RP1=0, select bank0
 10729     073B  00C8               	movwf	___fldiv@b+2
 10730     073C  1683               	bsf	3,5	;RP0=1, select bank1
 10731     073D  1303               	bcf	3,6	;RP1=0, select bank1
 10732     073E  0853               	movf	(efgtoa@u+1)^(0+128),w
 10733     073F  1283               	bcf	3,5	;RP0=0, select bank0
 10734     0740  1303               	bcf	3,6	;RP1=0, select bank0
 10735     0741  00C7               	movwf	___fldiv@b+1
 10736     0742  1683               	bsf	3,5	;RP0=1, select bank1
 10737     0743  1303               	bcf	3,6	;RP1=0, select bank1
 10738     0744  0852               	movf	efgtoa@u^(0+128),w
 10739     0745  1283               	bcf	3,5	;RP0=0, select bank0
 10740     0746  1303               	bcf	3,6	;RP1=0, select bank0
 10741     0747  00C6               	movwf	___fldiv@b
 10742     0748  120A  158A  206E  120A  118A  	fcall	___fldiv
 10743     074D  1283               	bcf	3,5	;RP0=0, select bank0
 10744     074E  1303               	bcf	3,6	;RP1=0, select bank0
 10745     074F  0845               	movf	?___fldiv+3,w
 10746     0750  1683               	bsf	3,5	;RP0=1, select bank1
 10747     0751  1303               	bcf	3,6	;RP1=0, select bank1
 10748     0752  00D5               	movwf	(efgtoa@u+3)^(0+128)
 10749     0753  1283               	bcf	3,5	;RP0=0, select bank0
 10750     0754  1303               	bcf	3,6	;RP1=0, select bank0
 10751     0755  0844               	movf	?___fldiv+2,w
 10752     0756  1683               	bsf	3,5	;RP0=1, select bank1
 10753     0757  1303               	bcf	3,6	;RP1=0, select bank1
 10754     0758  00D4               	movwf	(efgtoa@u+2)^(0+128)
 10755     0759  1283               	bcf	3,5	;RP0=0, select bank0
 10756     075A  1303               	bcf	3,6	;RP1=0, select bank0
 10757     075B  0843               	movf	?___fldiv+1,w
 10758     075C  1683               	bsf	3,5	;RP0=1, select bank1
 10759     075D  1303               	bcf	3,6	;RP1=0, select bank1
 10760     075E  00D3               	movwf	(efgtoa@u+1)^(0+128)
 10761     075F  1283               	bcf	3,5	;RP0=0, select bank0
 10762     0760  1303               	bcf	3,6	;RP1=0, select bank0
 10763     0761  0842               	movf	?___fldiv,w
 10764     0762  1683               	bsf	3,5	;RP0=1, select bank1
 10765     0763  1303               	bcf	3,6	;RP1=0, select bank1
 10766     0764  00D2               	movwf	efgtoa@u^(0+128)
 10767     0765                     l3050:
 10768                           
 10769                           ;C:\Program Files\Microchip\xc8\v2.46\pic\sources\c99\common\doprnt.c: 808:         --ne
      +                          ;
 10770     0765  30FF               	movlw	255
 10771     0766  07A9               	addwf	efgtoa@ne^(0+128),f
 10772     0767  1803               	skipnc
 10773     0768  0AAA               	incf	(efgtoa@ne+1)^(0+128),f
 10774     0769  30FF               	movlw	255
 10775     076A  07AA               	addwf	(efgtoa@ne+1)^(0+128),f
 10776     076B                     l3052:
 10777                           
 10778                           ;C:\Program Files\Microchip\xc8\v2.46\pic\sources\c99\common\doprnt.c: 809:         ++i;
 10779     076B  3001               	movlw	1
 10780     076C  07C1               	addwf	efgtoa@i^(0+128),f
 10781     076D  1803               	skipnc
 10782     076E  0AC2               	incf	(efgtoa@i+1)^(0+128),f
 10783     076F  3000               	movlw	0
 10784     0770  07C2               	addwf	(efgtoa@i+1)^(0+128),f
 10785     0771                     l3054:
 10786                           
 10787                           ;C:\Program Files\Microchip\xc8\v2.46\pic\sources\c99\common\doprnt.c: 779:     while ((
      +                          i < m) && (n < (80 - 5))) {
 10788     0771  0842               	movf	(efgtoa@i+1)^(0+128),w
 10789     0772  3A80               	xorlw	128
 10790     0773  00A5               	movwf	??_efgtoa^(0+128)
 10791     0774  0837               	movf	(efgtoa@m+1)^(0+128),w
 10792     0775  3A80               	xorlw	128
 10793     0776  0225               	subwf	??_efgtoa^(0+128),w
 10794     0777  1D03               	skipz
 10795     0778  2F7B               	goto	u4455
 10796     0779  0836               	movf	efgtoa@m^(0+128),w
 10797     077A  0241               	subwf	efgtoa@i^(0+128),w
 10798     077B                     u4455:
 10799     077B  1803               	skipnc
 10800     077C  2F7E               	goto	u4451
 10801     077D  2F7F               	goto	u4450
 10802     077E                     u4451:
 10803     077E  2F8E               	goto	l3058
 10804     077F                     u4450:
 10805     077F                     l3056:
 10806     077F  1683               	bsf	3,5	;RP0=1, select bank1
 10807     0780  1303               	bcf	3,6	;RP1=0, select bank1
 10808     0781  084D               	movf	(efgtoa@n+1)^(0+128),w
 10809     0782  3A80               	xorlw	128
 10810     0783  00FF               	movwf	btemp+1
 10811     0784  3080               	movlw	128
 10812     0785  027F               	subwf	btemp+1,w
 10813     0786  1D03               	skipz
 10814     0787  2F8A               	goto	u4465
 10815     0788  304B               	movlw	75
 10816     0789  024C               	subwf	efgtoa@n^(0+128),w
 10817     078A                     u4465:
 10818     078A  1C03               	skipc
 10819     078B  2F8D               	goto	u4461
 10820     078C  2F8E               	goto	u4460
 10821     078D                     u4461:
 10822     078D  2DD3               	goto	l3012
 10823     078E                     u4460:
 10824     078E                     l3058:
 10825                           
 10826                           ;C:\Program Files\Microchip\xc8\v2.46\pic\sources\c99\common\doprnt.c: 816:  i = sizeof(
      +                          dbuf) - 1;
 10827     078E  304F               	movlw	79
 10828     078F  1683               	bsf	3,5	;RP0=1, select bank1
 10829     0790  1303               	bcf	3,6	;RP1=0, select bank1
 10830     0791  00C1               	movwf	efgtoa@i^(0+128)
 10831     0792  3000               	movlw	0
 10832     0793  00C2               	movwf	(efgtoa@i^(0+128)+1)
 10833     0794                     l3060:
 10834                           
 10835                           ;C:\Program Files\Microchip\xc8\v2.46\pic\sources\c99\common\doprnt.c: 817:     dbuf[i] 
      +                          = '\0';
 10836     0794  0841               	movf	efgtoa@i^(0+128),w
 10837     0795  3E10               	addlw	(low (_dbuf| (0+256)))& (0+255)
 10838     0796  0084               	movwf	4
 10839     0797  1783               	bsf	3,7	;select IRP bank2
 10840     0798  0180               	clrf	0
 10841     0799                     l3062:
 10842                           
 10843                           ;C:\Program Files\Microchip\xc8\v2.46\pic\sources\c99\common\doprnt.c: 848:  memcpy(&dbu
      +                          f[i-n], &dbuf[0], (size_t)n);
 10844     0799  3010               	movlw	(low (_dbuf| (0+256)))& (0+255)
 10845     079A  00F0               	movwf	memcpy@s1
 10846     079B  084D               	movf	(efgtoa@n+1)^(0+128),w
 10847     079C  00F2               	movwf	memcpy@n+1
 10848     079D  084C               	movf	efgtoa@n^(0+128),w
 10849     079E  00F1               	movwf	memcpy@n
 10850     079F  3010               	movlw	(low (_dbuf| (0+256)))& (0+255)
 10851     07A0  00A5               	movwf	??_efgtoa^(0+128)
 10852     07A1  084C               	movf	efgtoa@n^(0+128),w
 10853     07A2  02A5               	subwf	??_efgtoa^(0+128),f
 10854     07A3  0841               	movf	efgtoa@i^(0+128),w
 10855     07A4  0725               	addwf	??_efgtoa^(0+128),w
 10856     07A5  120A  118A  2003  120A  118A  	fcall	_memcpy
 10857     07AA                     l3064:
 10858                           
 10859                           ;C:\Program Files\Microchip\xc8\v2.46\pic\sources\c99\common\doprnt.c: 849:  n = i-n;
 10860     07AA  1683               	bsf	3,5	;RP0=1, select bank1
 10861     07AB  1303               	bcf	3,6	;RP1=0, select bank1
 10862     07AC  084C               	movf	efgtoa@n^(0+128),w
 10863     07AD  0241               	subwf	efgtoa@i^(0+128),w
 10864     07AE  00CC               	movwf	efgtoa@n^(0+128)
 10865     07AF  084D               	movf	(efgtoa@n+1)^(0+128),w
 10866     07B0  1C03               	skipc
 10867     07B1  0A4D               	incf	(efgtoa@n+1)^(0+128),w
 10868     07B2  0242               	subwf	(efgtoa@i+1)^(0+128),w
 10869     07B3  00CD               	movwf	(efgtoa@n+1)^(0+128)
 10870     07B4                     l3066:
 10871                           
 10872                           ;C:\Program Files\Microchip\xc8\v2.46\pic\sources\c99\common\doprnt.c: 850:  i = sign ==
      +                           0 ? 0 : 1;
 10873     07B4  084B               	movf	efgtoa@sign^(0+128),w
 10874     07B5  1D03               	btfss	3,2
 10875     07B6  2FB8               	goto	u4471
 10876     07B7  2FBA               	goto	u4470
 10877     07B8                     u4471:
 10878     07B8  3001               	movlw	1
 10879     07B9  2FBB               	goto	u4480
 10880     07BA                     u4470:
 10881     07BA  3000               	movlw	0
 10882     07BB                     u4480:
 10883     07BB  00A5               	movwf	??_efgtoa^(0+128)
 10884     07BC  01A6               	clrf	(??_efgtoa^(0+128)+1)
 10885     07BD  0825               	movf	??_efgtoa^(0+128),w
 10886     07BE  00C1               	movwf	efgtoa@i^(0+128)
 10887     07BF  0826               	movf	(??_efgtoa+1)^(0+128),w
 10888     07C0  00C2               	movwf	(efgtoa@i+1)^(0+128)
 10889     07C1                     l3068:
 10890                           
 10891                           ;C:\Program Files\Microchip\xc8\v2.46\pic\sources\c99\common\doprnt.c: 861:  if (sign) {
 10892     07C1  084B               	movf	efgtoa@sign^(0+128),w
 10893     07C2  1903               	btfsc	3,2
 10894     07C3  2FC5               	goto	u4491
 10895     07C4  2FC6               	goto	u4490
 10896     07C5                     u4491:
 10897     07C5  2FD2               	goto	l3072
 10898     07C6                     u4490:
 10899     07C6                     l3070:
 10900                           
 10901                           ;C:\Program Files\Microchip\xc8\v2.46\pic\sources\c99\common\doprnt.c: 862:   dbuf[--n] 
      +                          = sign;
 10902     07C6  30FF               	movlw	255
 10903     07C7  07CC               	addwf	efgtoa@n^(0+128),f
 10904     07C8  1803               	skipnc
 10905     07C9  0ACD               	incf	(efgtoa@n+1)^(0+128),f
 10906     07CA  30FF               	movlw	255
 10907     07CB  07CD               	addwf	(efgtoa@n+1)^(0+128),f
 10908     07CC  084C               	movf	efgtoa@n^(0+128),w
 10909     07CD  3E10               	addlw	(low (_dbuf| (0+256)))& (0+255)
 10910     07CE  0084               	movwf	4
 10911     07CF  084B               	movf	efgtoa@sign^(0+128),w
 10912     07D0  1783               	bsf	3,7	;select IRP bank2
 10913     07D1  0080               	movwf	0
 10914     07D2                     l3072:
 10915                           
 10916                           ;C:\Program Files\Microchip\xc8\v2.46\pic\sources\c99\common\doprnt.c: 864:  w -= i;
 10917     07D2  0841               	movf	efgtoa@i^(0+128),w
 10918     07D3  02BB               	subwf	efgtoa@w^(0+128),f
 10919     07D4  0842               	movf	(efgtoa@i+1)^(0+128),w
 10920     07D5  1C03               	skipc
 10921     07D6  03BC               	decf	(efgtoa@w+1)^(0+128),f
 10922     07D7  02BC               	subwf	(efgtoa@w+1)^(0+128),f
 10923     07D8                     l3074:
 10924                           
 10925                           ;C:\Program Files\Microchip\xc8\v2.46\pic\sources\c99\common\doprnt.c: 867:     return (
      +                          void) pad(fp, &dbuf[n], w);
 10926     07D8  084C               	movf	efgtoa@n^(0+128),w
 10927     07D9  3E10               	addlw	(low (_dbuf| (0+256)))& (0+255)
 10928     07DA  00FB               	movwf	pad@buf
 10929     07DB  083C               	movf	(efgtoa@w+1)^(0+128),w
 10930     07DC  00FD               	movwf	pad@p+1
 10931     07DD  083B               	movf	efgtoa@w^(0+128),w
 10932     07DE  00FC               	movwf	pad@p
 10933     07DF  0838               	movf	efgtoa@fp^(0+128),w
 10934     07E0  160A  158A  2631  120A  118A  	fcall	_pad
 10935     07E5                     l727:
 10936     07E5  0008               	return
 10937     07E6                     __end_of_efgtoa:

Data Sizes:
    Strings     56
    Constant    0
    Data        0
    BSS         147
    Persistent  0
    Stack       0

Auto Spaces:
    Space          Size  Autos    Used
    COMMON           14     14      14
    BANK0            80     80      80
    BANK1            80     77      80
    BANK3            96     13      77
    BANK2            96      0      80

Pointer List with Targets:

    efgtoa@fp	PTR struct _IO_FILE size(1) Largest target is 11
		 -> sprintf@f(BANK3[11]), 

    f$.$buffer	PTR unsigned char  size(1) Largest target is 0

    f$.$source	PTR const unsigned char  size(1) Largest target is 0

    fputc@fp	PTR struct _IO_FILE size(1) Largest target is 11
		 -> sprintf@f(BANK3[11]), 

    fputc@fp$.$buffer	PTR unsigned char  size(1) Largest target is 0

    fputc@fp$.$source	PTR const unsigned char  size(1) Largest target is 0

    fputs@fp	PTR struct _IO_FILE size(1) Largest target is 11
		 -> sprintf@f(BANK3[11]), 

    fputs@s	PTR const unsigned char  size(1) Largest target is 80
		 -> dbuf(BANK2[80]), 

    Lcd_Write_String@a	PTR unsigned char  size(2) Largest target is 20
		 -> s(BANK3[20]), STR_4(CODE[7]), 

    memcpy@d	PTR unsigned char  size(1) Largest target is 80
		 -> dbuf(BANK2[80]), 

    memcpy@d1	PTR void  size(1) Largest target is 80
		 -> dbuf(BANK2[80]), 

    memcpy@s	PTR const unsigned char  size(1) Largest target is 80
		 -> dbuf(BANK2[80]), 

    memcpy@s1	PTR const void  size(1) Largest target is 80
		 -> dbuf(BANK2[80]), 

    pad@buf	PTR unsigned char  size(1) Largest target is 80
		 -> dbuf(BANK2[80]), 

    pad@fp	PTR struct _IO_FILE size(1) Largest target is 11
		 -> sprintf@f(BANK3[11]), 

    read_prec_or_width@ap	PTR PTR void [1] size(1) Largest target is 1
		 -> sprintf@ap(BANK3[1]), 

    read_prec_or_width@fmt	PTR PTR const unsigned char  size(1) Largest target is 1
		 -> vfprintf@cfmt(BANK1[1]), 

    S664$buffer	PTR unsigned char  size(1) Largest target is 0

    S664$source	PTR const unsigned char  size(1) Largest target is 0

    sp__memcpy	PTR void  size(1) Largest target is 80
		 -> dbuf(BANK2[80]), 

    sp__strcpy	PTR unsigned char  size(1) Largest target is 80
		 -> dbuf(BANK2[80]), 

    sprintf@ap	PTR void [1] size(1) Largest target is 2
		 -> ?_sprintf(BANK1[2]), 

    sprintf@fmt	PTR const unsigned char  size(1) Largest target is 14
		 -> STR_1(CODE[14]), STR_2(CODE[14]), STR_3(CODE[13]), 

    sprintf@s	PTR unsigned char  size(1) Largest target is 20
		 -> s(BANK3[20]), 

    strcpy@d	PTR unsigned char  size(1) Largest target is 80
		 -> dbuf(BANK2[80]), 

    strcpy@dest	PTR unsigned char  size(1) Largest target is 80
		 -> dbuf(BANK2[80]), 

    strcpy@src	PTR const unsigned char  size(1) Largest target is 4
		 -> STR_5(CODE[4]), STR_8(CODE[4]), 

    vfpfcnvrt@ap	PTR PTR void  size(1) Largest target is 1
		 -> sprintf@ap(BANK3[1]), 

    vfpfcnvrt@cp	PTR unsigned char  size(1) Largest target is 14
		 -> STR_1(CODE[14]), STR_2(CODE[14]), STR_3(CODE[13]), 

    vfpfcnvrt@fmt	PTR PTR unsigned char  size(1) Largest target is 1
		 -> vfprintf@cfmt(BANK1[1]), 

    vfpfcnvrt@fp	PTR struct _IO_FILE size(1) Largest target is 11
		 -> sprintf@f(BANK3[11]), 

    vfprintf@ap	PTR PTR void  size(1) Largest target is 1
		 -> sprintf@ap(BANK3[1]), 

    vfprintf@cfmt	PTR unsigned char  size(1) Largest target is 14
		 -> STR_1(CODE[14]), STR_2(CODE[14]), STR_3(CODE[13]), 

    vfprintf@fmt	PTR const unsigned char  size(1) Largest target is 14
		 -> STR_1(CODE[14]), STR_2(CODE[14]), STR_3(CODE[13]), 

    vfprintf@fp	PTR struct _IO_FILE size(1) Largest target is 11
		 -> sprintf@f(BANK3[11]), 


Critical Paths under _main in COMMON

    _main->___xxtofl
    _read_prec_or_width->___wmul
    _efgtoa->_pad
    _pad->_fputs
    _fputs->_fputc
    ___flmul->___xxtofl
    ___fldiv->___xxtofl
    _Lcd_Write_String->_Lcd_Write_Char
    _Lcd_Write_Char->_Lcd_Port
    _Lcd_Set_Cursor->_Lcd_Cmd
    _Lcd_Init->_Lcd_Cmd
    _Lcd_Clear->_Lcd_Cmd
    _Lcd_Cmd->_Lcd_Port

Critical Paths under _main in BANK0

    _efgtoa->_floorf
    _pad->_fputs
    _floorf->___fldiv
    ___flsub->___flmul
    ___flmul->___fladd
    ___flge->___flmul
    ___fldiv->___flmul

Critical Paths under _main in BANK1

    _main->_sprintf
    _sprintf->_vfprintf
    _vfprintf->_vfpfcnvrt
    _vfpfcnvrt->_efgtoa

Critical Paths under _main in BANK3

    _main->_sprintf

Critical Paths under _main in BANK2

    None.

Call Graph Tables:

 ---------------------------------------------------------------------------------
 (Depth) Function   	        Calls       Base Space   Used Autos Params    Refs
 ---------------------------------------------------------------------------------
 (0) _main                                                 2     2      0   35354
                                             75 BANK1      2     2      0
                            _ADCInit
                            _ADCRead
                                _LCD
                          _Lcd_Clear
                           _Lcd_Init
                     _Lcd_Set_Cursor
                   _Lcd_Write_String
                            ___fladd
                            ___fldiv
                             ___flge
                            ___flmul
                           ___xxtofl
                            _sprintf
 ---------------------------------------------------------------------------------
 (1) _sprintf                                             21    16      5   23064
                                             69 BANK1      6     1      5
                                              0 BANK3     13    13      0
                           _vfprintf
 ---------------------------------------------------------------------------------
 (2) _vfprintf                                             4     2      2   22534
                                             65 BANK1      4     2      2
                          _vfpfcnvrt
 ---------------------------------------------------------------------------------
 (3) _vfpfcnvrt                                           12    10      2   22215
                                             54 BANK1     11     9      2
                             _efgtoa
                              _fputc
                 _read_prec_or_width
 ---------------------------------------------------------------------------------
 (4) _read_prec_or_width                                   6     4      2     533
                                              6 COMMON     6     4      2
                             ___wmul
 ---------------------------------------------------------------------------------
 (5) ___wmul                                               6     2      4     244
                                              0 COMMON     6     2      4
 ---------------------------------------------------------------------------------
 (4) _efgtoa                                              55    50      5   20084
                                              0 BANK1     54    49      5
                            ___fladd
                            ___fldiv
                             ___fleq
                             ___flge
                            ___flmul
                            ___flneg
                            ___flsub
                            ___fltol
                      ___fpclassifyf
                             _floorf
                               _labs
                             _memcpy
                                _pad
                             _strcpy
 ---------------------------------------------------------------------------------
 (6) _strcpy                                               3     2      1     291
                                              0 COMMON     3     2      1
 ---------------------------------------------------------------------------------
 (5) _pad                                                  7     4      3    2564
                                             11 COMMON     3     0      3
                                              4 BANK0      4     4      0
                              _fputc
                              _fputs
 ---------------------------------------------------------------------------------
 (6) _fputs                                                7     6      1    1040
                                              8 COMMON     3     2      1
                                              0 BANK0      4     4      0
                              _fputc
 ---------------------------------------------------------------------------------
 (4) _fputc                                                8     5      3     834
                                              0 COMMON     8     5      3
                              _putch
 ---------------------------------------------------------------------------------
 (5) _putch                                                1     1      0       0
 ---------------------------------------------------------------------------------
 (5) _memcpy                                               7     4      3     328
                                              0 COMMON     7     4      3
 ---------------------------------------------------------------------------------
 (5) _labs                                                 4     0      4     294
                                              0 COMMON     4     0      4
 ---------------------------------------------------------------------------------
 (5) _floorf                                              20    16      4     490
                                             60 BANK0     20    16      4
                            ___fldiv (ARG)
 ---------------------------------------------------------------------------------
 (5) ___fpclassifyf                                       16    12      4     287
                                              0 COMMON    10     6      4
                                              0 BANK0      6     6      0
 ---------------------------------------------------------------------------------
 (5) ___fltol                                             10     6      4     457
                                              0 COMMON    10     6      4
 ---------------------------------------------------------------------------------
 (5) ___flsub                                              8     0      8    2789
                                             34 BANK0      8     0      8
                            ___fladd
                            ___flmul (ARG)
 ---------------------------------------------------------------------------------
 (6) ___fladd                                             20    12      8    2440
                                              0 COMMON    12     4      8
                                              0 BANK0      8     8      0
 ---------------------------------------------------------------------------------
 (5) ___flneg                                              4     0      4     121
                                              0 COMMON     4     0      4
 ---------------------------------------------------------------------------------
 (5) ___flmul                                             26    18      8    3785
                                              8 BANK0     26    18      8
                          __Umul8_16
                            ___fladd (ARG)
                           ___xxtofl (ARG)
 ---------------------------------------------------------------------------------
 (6) __Umul8_16                                            9     7      2     799
                                              0 COMMON     9     7      2
 ---------------------------------------------------------------------------------
 (5) ___flge                                              12     4      8    1094
                                             34 BANK0     12     4      8
                            ___flmul (ARG)
 ---------------------------------------------------------------------------------
 (5) ___fleq                                              12     4      8     394
                                              0 COMMON    12     4      8
 ---------------------------------------------------------------------------------
 (5) ___fldiv                                             26    18      8    2337
                                             34 BANK0     26    18      8
                            ___flmul (ARG)
                           ___xxtofl (ARG)
 ---------------------------------------------------------------------------------
 (1) ___xxtofl                                            14    10      4     550
                                              0 COMMON    14    10      4
 ---------------------------------------------------------------------------------
 (1) _Lcd_Write_String                                     7     5      2     572
                                              5 COMMON     7     5      2
                     _Lcd_Write_Char
 ---------------------------------------------------------------------------------
 (2) _Lcd_Write_Char                                       4     4      0     178
                                              1 COMMON     4     4      0
                           _Lcd_Port
 ---------------------------------------------------------------------------------
 (1) _Lcd_Set_Cursor                                       6     5      1     954
                                              4 COMMON     6     5      1
                            _Lcd_Cmd
 ---------------------------------------------------------------------------------
 (1) _Lcd_Init                                             2     2      0     198
                                              4 COMMON     2     2      0
                            _Lcd_Cmd
                           _Lcd_Port
 ---------------------------------------------------------------------------------
 (1) _Lcd_Clear                                            0     0      0     110
                            _Lcd_Cmd
 ---------------------------------------------------------------------------------
 (2) _Lcd_Cmd                                              3     3      0     110
                                              1 COMMON     3     3      0
                           _Lcd_Port
 ---------------------------------------------------------------------------------
 (3) _Lcd_Port                                             1     1      0      88
                                              0 COMMON     1     1      0
 ---------------------------------------------------------------------------------
 (1) _LCD                                                  2     2      0       0
 ---------------------------------------------------------------------------------
 (1) _ADCRead                                              3     1      2     250
                                              0 COMMON     3     1      2
 ---------------------------------------------------------------------------------
 (1) _ADCInit                                              0     0      0       0
 ---------------------------------------------------------------------------------
 Estimated maximum stack depth 6
 ---------------------------------------------------------------------------------

 Call Graph Graphs:

 _main (ROOT)
   _ADCInit
   _ADCRead
   _LCD
   _Lcd_Clear
     _Lcd_Cmd
       _Lcd_Port
   _Lcd_Init
     _Lcd_Cmd
     _Lcd_Port
   _Lcd_Set_Cursor
     _Lcd_Cmd
   _Lcd_Write_String
     _Lcd_Write_Char
       _Lcd_Port
   ___fladd
   ___fldiv
     ___flmul (ARG)
       __Umul8_16
       ___fladd (ARG)
       ___xxtofl (ARG)
     ___xxtofl (ARG)
   ___flge
     ___flmul (ARG)
   ___flmul
   ___xxtofl
   _sprintf
     _vfprintf
       _vfpfcnvrt
         _efgtoa
           ___fladd
           ___fldiv
           ___fleq
           ___flge
           ___flmul
           ___flneg
           ___flsub
             ___fladd
             ___flmul (ARG)
           ___fltol
           ___fpclassifyf
           _floorf
             ___fldiv (ARG)
           _labs
           _memcpy
           _pad
             _fputc
               _putch
             _fputs
               _fputc
           _strcpy
         _fputc
         _read_prec_or_width
           ___wmul

 Address spaces:
Name               Size   Autos  Total    Cost      Usage
BITCOMMON            E      0       0       0        0.0%
EEDATA             100      0       0       0        0.0%
NULL                 0      0       0       0        0.0%
CODE                 0      0       0       0        0.0%
COMMON               E      E       E       1      100.0%
BITSFR0              0      0       0       1        0.0%
SFR0                 0      0       0       1        0.0%
BITSFR1              0      0       0       2        0.0%
SFR1                 0      0       0       2        0.0%
STACK                0      0       0       2        0.0%
ABS                  0      0     14B       3        0.0%
BITBANK0            50      0       0       4        0.0%
BITSFR3              0      0       0       4        0.0%
SFR3                 0      0       0       4        0.0%
BANK0               50     50      50       5      100.0%
BITSFR2              0      0       0       5        0.0%
SFR2                 0      0       0       5        0.0%
BITBANK1            50      0       0       6        0.0%
BANK1               50     4D      50       7      100.0%
BITBANK3            60      0       0       8        0.0%
BANK3               60      D      4D       9       80.2%
BITBANK2            60      0       0      10        0.0%
BANK2               60      0      50      11       83.3%
DATA                 0      0     14B      12        0.0%


Microchip Technology PIC Macro Assembler V2.46 build 20240104201356 
Symbol Table                                                                                   Sun Dec 15 14:44:16 2024

              ___fldiv@aexp 005B                ___fldiv@bexp 005A                           _s 01B8  
                         pc 0002                ___fldiv@sign 0053                          l71 1D73  
                        l63 1D5B                          l64 1D5E                          l65 1D64  
                        l66 1D65                          l74 1D15                          l90 086D  
                        l67 1D6B                          l83 113B                          l68 1D6C  
                        l69 1D72                          l77 080F                          l93 1038  
                        l87 113B                          l99 1EAC                          fsr 0004  
       ___wmul@multiplicand 0072         __Umul8_16@word_mpld 0076                         l111 1CE6  
                       l123 1F45                         l108 1003                         l132 0CB4  
                       l126 1F4F                         l222 1DC7                         l400 11E7  
                       l224 1DDF                         l403 1253                         l412 1CD5  
                       l423 1099                         l408 126C                         l416 10AE  
                       l601 0A28                         l426 10AE                         l523 15F7  
                       l391 1EC9                         l527 167A                         l392 1EE5  
                       l640 1E06                         l544 1749                         l536 17FF  
                       l712 1E3A                         l625 0F6F                         l529 1651  
                       l554 1791                         l619 0FFF                         l548 176F  
                       l820 13C3                         l716 1E6A                         l724 12DE  
                       l804 1D51                         l581 0A3C                         l397 1EFA  
                       l821 1484                         l638 1DF4                         l566 17FF  
                       l814 11C8                         l663 004B                         l743 02E2  
                       l727 07E5                         l665 00E0                         l569 1DBA  
                       l825 147C                         l841 0028                         l753 05BF  
                       l595 09B6                         l579 08C4                         l835 1CFB  
                       l676 00AA                         l677 00B6                         l853 1FA5  
                       l861 1E30                         l685 1D96                         l870 1D30  
                       l864 0802                         l776 1FFF                         l796 159B  
                       _LCD 1000                         _RB0 0030                         _RB1 0031  
                       _RB2 0032                         _RB3 0033                         _RB4 0034  
                       _RB5 0035                         _pad 1E31                         fsr0 0004  
           __end_of_ADCInit 1CE7             __end_of_ADCRead 1F50                         indf 0000  
              ___flmul@aexp 003A                ___flmul@bexp 003B                ___flmul@sign 0035  
              ___flmul@temp 0040                ___flmul@prod 003C                        ?_LCD 0070  
              ___fltol@exp1 0079                        l2200 15D1                        l3000 0574  
                      l2210 15E4                        l2202 15D5                        l3010 05D0  
                      l3002 05B3                        l3100 1D69                        l2300 1721  
                      l2220 1601                        l2212 15EC                        l2204 15D9  
                      l3020 066A                        l3012 05D3                        l3004 05B9  
                      l3102 1D70                        l2310 1751                        l2302 1725  
                      l2230 160D                        l2222 1605                        l2214 15ED  
                      l2206 15DA                        l3030 0683                        l3022 066E  
                      l3014 0649                        l3006 05CD                        l3110 14A8  
                      l2320 176E                        l2312 1756                        l2304 1727  
                      l2240 1617                        l2232 160F                        l2224 1607  
                      l2208 15DF                        l2216 15EF                        l2160 1F50  
                      l3040 06A1                        l3032 0689                        l3024 0674  
                      l3016 065F                        l3008 05CE                        l2400 1DC1  
                      l3120 14D3                        l3112 14AC                        l3104 1488  
                      l3200 1D34                        l3210 0803                        l2410 1EAD  
                      l2322 1773                        l2330 177F                        l2306 172C  
                      l2250 1621                        l2242 1619                        l2234 1611  
                      l2226 1609                        l2218 15FD                        l2170 1F8E  
                      l2162 1F55                        l3050 0765                        l3042 06A8  
                      l3034 068F                        l3026 067A                        l3018 0665  
                      l2402 1DCE                        l3122 14DC                        l3130 14E6  
                      l3114 14BA                        l3106 1497                        l3202 1D37  
                      l3220 10CB                        l3212 10B0                        l2500 087B  
                      l2412 1EC1                        l2324 1776                        l2316 175F  
                      l2308 173B                        l2332 1783                        l2260 165E  
                      l2244 161B                        l2236 1613                        l2228 160B  
                      l2252 1623                        l2180 15A9                        l2164 1F5A  
                      l3060 0794                        l3052 076B                        l3044 06AE  
                      l3036 0695                        l3028 0680                        l2404 1DD5  
                      l3140 152A                        l3124 14E1                        l3132 14F1  
                      l3116 14C0                        l3108 149D                        l3204 1D41  
                      l3230 10EE                        l3214 10B5                        l3222 10D2  
                      l2510 088F                        l2502 087C                        l2414 1EDD  
                      l2430 1207                        l2422 11C9                        l2350 17CD  
                      l2342 1796                        l2334 1784                        l2326 1778  
                      l2318 176A                        l2262 1660                        l2270 1674  
                      l2254 1624                        l2246 161D                        l2238 1615  
                      l2190 15BD                        l2182 15AA                        l2174 159C  
                      l2166 1F61                        l3070 07C6                        l3062 0799  
                      l3046 06B4                        l3038 069B                        l3054 0771  
                      l2406 1DDB                        l3150 154F                        l3142 1532  
                      l3134 14FE                        l3126 14E4                        l3118 14CE  
                      l3206 1D4F                        l3310 1D7F                        l3240 1111  
                      l3224 10D8                        l3232 10F5                        l3216 10C2  
                      l3320 0033                        l2600 09B3                        l2520 08A6  
                      l2504 0881                        l2512 0891                        l2416 1EF7  
                      l2432 122B                        l2424 11DF                        l2360 17E8  
                      l2344 179B                        l2352 17D1                        l2336 1788  
                      l2328 177D                        l2280 16A3                        l2272 167E  
                      l2264 1664                        l2256 163B                        l2248 161F  
                      l2184 15AF                        l2192 15BF                        l2176 159F  
                      l2168 1F70                        l3072 07D2                        l3064 07AA  
                      l3056 077F                        l3048 0726                        l3080 1FA9  
                      l3160 157A                        l3144 1538                        l3136 1514  
                      l3152 155A                        l3312 1D8B                        l3304 1D77  
                      l3400 0BD2                        l3170 1CFD                        l3250 1134  
                      l3234 10FB                        l3242 1118                        l3226 10E5  
                      l3218 10C5                        l3330 005F                        l3322 0043  
                      l2610 09D2                        l2530 08BA                        l2522 08A7  
                      l2514 0899                        l2506 0886                        l2418 1EF9  
                      l2434 122F                        l2426 11FB                        l2442 1CCB  
                      l2370 17FA                        l2362 17E9                        l2354 17D6  
                      l2346 17A9                        l2338 178E                        l2290 16BA  
                      l2282 16A7                        l2274 1683                        l2266 1665  
                      l2258 1655                        l2194 15C7                        l2186 15B4  
                      l2178 15A5                        l2450 1039                        l3074 07D8  
                      l3066 07B4                        l3058 078E                        l3090 1FFB  
                      l3082 1FB8                        l3154 1568                        l3306 1D7B  
                      l3410 0C2F                        l3402 0BDA                        l3172 1D00  
                      l3260 0834                        l3252 0810                        l3244 111E  
                      l3236 1108                        l3228 10E8                        l3180 1005  
                      l3340 0085                        l3332 0063                        l3324 0053  
                      l3316 002A                        l2620 0A1B                        l2612 09EB  
                      l2604 09BB                        l2524 08AC                        l2532 08BC  
                      l2516 089E                        l2508 088E                        l2436 1269  
                      l2428 1203                        l2380 1DEE                        l2700 0DDF  
                      l2444 1CD3                        l2372 17FE                        l2364 17ED  
                      l2356 17DB                        l2348 17AD                        l2292 16BB  
                      l2284 16AB                        l2268 1670                        l2196 15CA  
                      l2188 15BC                        l2460 105F                        l2452 1042  
                      l3068 07C1                        l3084 1FCE                        l3156 156E  
                      l3164 1584                        l3308 1D7D                        l3420 0C73  
                      l3412 0C38                        l3404 0BFC                        l3270 1000  
                      l3094 1D53                        l3174 1D06                        l3254 0816  
                      l3246 112B                        l3238 110B                        l3190 1024  
                      l3182 100B                        l3262 1E6B                        l3350 00AE  
                      l3342 008E                        l3334 006C                        l3318 002F  
                      l2630 0A32                        l2622 0A1F                        l2606 09C0  
                      l2614 09F1                        l2550 0905                        l2534 08CC  
                      l2542 08E5                        l2526 08B1                        l2518 08A2  
                      l2438 126B                        l2382 1DFD                        l2374 1DE1  
                      l2710 0E4C                        l2702 0DED                        l2446 1CD5  
                      l2366 17EF                        l2358 17E3                        l2294 16C6  
                      l2286 16B4                        l2278 168C                        l2198 15D0  
                      l2462 1067                        l2390 1E0D                        l3086 1FE3  
                      l3078 1FA7                        l3422 0C7C                        l3414 0C5A  
                      l3406 0C05                        l3272 1CD6                        l3280 1F08  
                      l3096 1D57                        l3176 1D09                        l3256 081F  
                      l3248 112E                        l3192 1027                        l3184 100E  
                      l3264 1E6E                        l3360 00D8                        l3352 00B8  
                      l3344 0095                        l3336 0073                        l3328 005C  
                      l2632 0A36                        l2624 0A27                        l2616 09FE  
                      l2608 09CE                        l2560 0924                        l2552 090D  
                      l2544 08EA                        l2536 08D8                        l2528 08B9  
                      l2384 1E02                        l2376 1DE3                        l2720 0EF3  
                      l2712 0E69                        l2704 0E0A                        l2640 0CBB  
                      l2368 17F3                        l2288 16B6                        l2296 16CB  
                      l2472 1075                        l2464 1069                        l2456 104B  
                      l2800 1179                        l2392 1E1B                        l3088 1FEA  
                      l3424 0C87                        l3416 0C62                        l3408 0C27  
                      l3282 1F0F                        l3290 1F24                        l3274 1EFB  
                      l3098 1D62                        l3178 1D12                        l3258 082E  
                      l3194 102D                        l3186 101C                        l3266 1E8A  
                      l3354 00CE                        l3346 00A0                        l3338 0077  
                      l2626 0A2C                        l2618 0A0C                        l2570 0956  
                      l2562 0936                        l2554 0915                        l2538 08DC  
                      l2378 1DEA                        l2730 0F3F                        l2722 0F1B  
                      l2714 0E94                        l2706 0E18                        l2650 0CCE  
                      l2642 0CC0                        l2298 16E1                        l2490 1D9B  
                      l2482 108E                        l2474 107E                        l2466 106D  
                      l2458 105E                        l2810 11A2                        l2802 1192  
                      l2394 1E23                        l3426 0CB0                        l3418 0C6B  
                      l3370 0A40                        l3284 1F16                        l3292 1F3D  
                      l3276 1EFC                        l3196 1030                        l3188 101F  
                      l3268 1E90                        l3356 00D3                        l3348 00A4  
                      l2628 0A30                        l2580 0977                        l2572 0957  
                      l2564 093A                        l2556 091D                        l2548 08F3  
                      l2740 0F54                        l2732 0F40                        l2724 0F24  
                      l2716 0EA2                        l2708 0E35                        l2660 0CEA  
                      l2652 0CD3                        l2644 0CC4                        l2484 109E  
                      l2476 1087                        l2804 1197                        l2388 1E0A  
                      l2820 1D19                        l2900 1313                        l2396 1DBB  
                      l3380 0A4F                        l3372 0A45                        l3294 1F42  
                      l3286 1F1D                        l3278 1F01                        l3198 1035  
                      l3358 00D7                        l2590 0990                        l2582 0979  
                      l2574 0965                        l2566 093B                        l2558 091F  
                      l2494 086E                        l2750 0F79                        l2742 0F58  
                      l2734 0F49                        l2726 0F32                        l2718 0ECD  
                      l2670 0CFD                        l2662 0CEE                        l2654 0CDB  
                      l2646 0CC8                        l2486 10A3                        l2814 11C4  
                      l2830 1376                        l2822 1CE7                        l2910 1348  
                      l2902 131B                        l2398 1DBD                        l3390 0A83  
                      l3382 0A54                        l3374 0A4A                        l3296 1F49  
                      l3448 1F29                        l2584 0982                        l2592 0996  
                      l2568 0944                        l2576 0969                        l2496 0873  
                      l2760 0FB7                        l2752 0F87                        l2744 0F6C  
                      l2728 0F3B                        l2736 0F4F                        l2680 0D19  
                      l2672 0D05                        l2664 0CF2                        l2656 0CDD  
                      l2648 0CC9                        l2488 1D97                        l2808 119C  
                      l2840 13E3                        l2832 1396                        l2824 1CEB  
                      l2912 1358                        l2920 00E1                        l3392 0AD9  
                      l3384 0A57                        l3376 0A4D                        l3368 0A3D  
                      l2594 099A                        l2586 0986                        l2578 096F  
                      l2498 0877                        l2770 0FE9                        l2762 0FC2  
                      l2754 0F8B                        l2738 0F53                        l2690 0D58  
                      l2674 0D07                        l2666 0CF3                        l2658 0CE5  
                      l2850 1439                        l2834 13B5                        l2826 1CEC  
                      l2818 1D17                        l2930 0117                        l2922 00EB  
                      l2914 1361                        l2906 132A                        l3394 0B2F  
                      l3386 0A65                        l3378 0A4E                        l2596 099B  
                      l2588 0987                        l2772 0FED                        l2764 0FD1  
                      l2756 0FA4                        l2748 0F74                        l2692 0D74  
                      l2684 0D22                        l2676 0D0F                        l2668 0CF8  
                      l2852 1452                        l2844 13F8                        l2836 13C2  
                      l2860 0004                        l2940 0214                        l2932 0156  
                      l2924 00ED                        l2916 1369                        l2908 1341  
                      l3396 0B85                        l3388 0A74                        l2598 099F  
                      l2774 0FEE                        l2766 0FDB                        l2758 0FAA  
                      l2694 0D9E                        l2686 0D30                        l2678 0D14  
                      l2854 145B                        l2846 1411                        l2838 13C9  
                      l2862 0009                        l2790 1E52                        l2782 1E34  
                      l2942 0253                        l2934 0192                        l2950 02CF  
                      l2870 1270                        l3398 0BCD                        ?_pad 007B  
                      l2768 0FDD                        l2776 0FF3                        l2696 0DBA  
                      l2688 0D3D                        l2856 1474                        l2848 1428  
                      l2864 000E                        l2792 1E60                        l2784 1E38  
                      l2960 02F2                        l2952 02D5                        l2944 0259  
                      l2936 01CB                        l2928 0107                        l2880 12BB  
                      l2872 1271                        l2778 0FF7                        l2698 0DD6  
                      l2794 113C                        l2866 0012                        l2786 1E3D  
                      l2962 02F6                        l2970 030C                        l2954 02D9  
                      l2938 0209                        l2890 12DA                        l2882 12BF  
                      l2874 1279                        l2796 115C                        l2868 001A  
                      l2788 1E4A                        l2980 0445                        l2972 030E  
                      l2964 02FE                        l2956 02DE                        l2948 0296  
                      l2892 12E0                        l2884 12CB                        l2876 12A0  
                      l2798 1173                        l2990 04EF                        l2982 0453  
                      l2974 0316                        l2966 0300                        l2958 02EC  
                      l2894 12F3                        l2886 12D0                        l2878 12A4  
                      l2992 04F5                        l2984 0492                        l2976 031F  
                      l2968 0306                        l2896 12FA                        l2888 12D5  
                      l2994 04FD                        l2986 04C9                        l2978 043F  
                      l2898 130A                        l2996 051E                        l2988 04D4  
                      l2998 056C                        STR_1 1810                        STR_2 181E  
                      STR_3 182C                        STR_4 1839                        STR_5 1840  
                      STR_8 1844                        u3100 122F                        u3020 1DDB  
                      u3101 122E                        u3021 1DDA                        u3005 1DC8  
                      u3030 1EC1                        u3031 1EC0                        u3111 123E  
                      u3015 1DCF                        u3040 1EDD                        u3120 1269  
                      u3112 123F                        u3200 108D                        u4000 1D30  
                      u3041 1EDC                        u3121 1268                        u3113 1244  
                      u3201 108C                        u4001 1D2F                        u3050 1EF7  
                      u3114 1245                        u3130 1CD3                        u4010 1CEB  
                      u3051 1EF6                        u3115 124A                        u3131 1CD2  
                      u4011 1CEA                        u3300 08CC                        u3116 124B  
                      u3060 11DF                        u2500 15AF                        u3220 109E  
                      u3140 1042                        u4100 1447                        u4020 13A4  
                      u3301 08CB                        u3125 1265                        u3061 11DE  
                      u2501 15AE                        u3221 109D                        u3141 1041  
                      u3310 08EA                        u3070 11FB                        u2510 15B4  
                      u3230 10A3                        u3150 1059                        u4110 1452  
                      u4030 13C2                        u3311 08E9                        u3055 1EF3  
                      u3071 11FA                        u2511 15B3                        u3231 10A2  
                      u3215 1090                        u4111 1451                        u4031 13C1  
                      u3320 0924                        u3240 087B                        u3080 1207  
                      u2600 1645                        u2520 15D0                        u3160 106D  
                      u4120 1469                        u4040 13C9                        u4200 1341  
                      u3321 0923                        u3241 087A                        u3081 1206  
                      u2521 15CF                        u3161 106C                        u4105 1442  
                      u4041 13C8                        u4025 139F                        u4201 133E  
                      u3410 0986                        u3250 0881                        u2610 1655  
                      u2530 15D9                        u3170 1074                        u4130 1474  
                      u4050 13D9                        u2450 1F55                        u4210 1348  
                      u3411 0985                        u3251 0880                        u3091 1216  
                      u2611 1654                        u2531 15D8                        u3171 1073  
                      u3155 1054                        u4131 1473                        u4035 13BE  
                      u2451 1F54                        u4211 1347                        u3500 09FE  
                      u3260 0886                        u3092 1217                        u2700 16BA  
                      u2620 1664                        u2540 15DF                        u4060 13F7  
                      u4140 0028                        u2460 1F5A                        u4300 02CF  
                      u4220 0106                        u3501 09FD                        u3405 097B  
                      u3261 0885                        u3093 121C                        u2701 16B9  
                      u2621 1663                        u2541 15DE                        u4125 1464  
                      u4061 13F6                        u4141 0027                        u2461 1F59  
                      u4301 02CE                        u4221 0105                        u3510 0A1B  
                      u3430 099A                        u3350 093A                        u3270 08A6  
                      u3094 121D                        u2550 15E4                        u3190 1086  
                      u4070 1406                        u2470 1F70                        u4310 02D9  
                      u4150 12A0                        u3511 0A1A                        u3431 0999  
                      u3351 0939                        u3335 0926                        u3271 08A5  
                      u3095 1222                        u2551 15E3                        u3191 1085  
                      u4055 13D4                        u2471 1F6F                        u4311 02D8  
                      u4231 0165                        u4151 129F                        u3520 0A30  
                      u3440 099F                        u3280 08AC                        u3096 1223  
                      u3600 0D19                        u2800 1773                        u2720 16E1  
                      u2640 167A                        u2560 15FD                        u4080 1411  
                      u2480 1F8E                        u4400 05B9                        u4320 02F2  
                      u4240 0192                        u4232 0166                        u4160 12D0  
                      u3521 0A2F                        u3505 09FA                        u3441 099E  
                      u3425 0989                        u3345 092F                        u3281 08AB  
                      u3601 0D18                        u2801 1772                        u2721 16E0  
                      u2641 1679                        u2561 15FC                        u3185 1076  
                      u4081 1410                        u2481 1F8D                        u4401 05B8  
                      u4321 02F1                        u4241 0191                        u4233 016B  
                      u4161 12CF                        u3450 09B3                        u3370 0956  
                      u3290 08B1                        u3530 0CC8                        u2810 177D  
                      u2650 167E                        u2570 1601                        u2490 15A9  
                      u4410 0649                        u4330 02F6                        u4250 01CB  
                      u4234 016C                        u4170 12D5                        u3515 0A17  
                      u3451 09B2                        u3371 0955                        u3291 08B0  
                      u3611 0D66                        u3531 0CC7                        u2811 177C  
                      u2731 16FA                        u2723 16DD                        u2715 16BF  
                      u2651 167D                        u2635 1669                        u2571 1600  
                      u2491 15A8                        u4091 141A                        u4075 1401  
                      u4411 0648                        u4331 02F5                        u4251 01CA  
                      u4243 018E                        u4235 0171                        u4171 12D4  
                      u3460 09BA                        u3380 096F                        u3612 0D6D  
                      u3540 0CCE                        u2900 17D6                        u2820 1783  
                      u2740 170E                        u2732 16FB                        u2660 1683  
                      u2580 163B                        u4092 1421                        u4420 066A  
                      u4340 0306                        u4236 0172                        u4180 12F3  
                      u4500 1FB8                        u3461 09B9                        u3381 096E  
                      u3365 093D                        u3701 0E86                        u3621 0D82  
                      u3613 0D74                        u3541 0CCD                        u2901 17D5  
                      u2821 1782                        u2741 170F                        u2733 1700  
                      u2661 1682                        u2581 163A                        u4093 1428  
                      u2485 1F8A                        u4421 0669                        u4341 0305  
                      u4261 01DC                        u4181 12F2                        u4501 1FB7  
                      u3470 09C0                        u3390 0977                        u3702 0E8D  
                      u3622 0D89                        u3550 0CD3                        u2910 17DB  
                      u2830 1788                        u2750 172C                        u2742 1714  
                      u2734 1701                        u2590 1644                        u4430 066E  
                      u4350 0453                        u4270 0209                        u4262 01DD  
                      u4190 12FA                        u4510 1FFB                        u3471 09BF  
                      u3391 0976                        u3375 0952                        u3711 0EB1  
                      u3703 0E94                        u3631 0DAC                        u3623 0D90  
                      u3551 0CD2                        u2911 17DA                        u2831 1787  
                      u2751 172B                        u2743 1715                        u2735 1706  
                      u2671 1695                        u2591 1642                        u4431 066D  
                      u4415 0645                        u4351 0452                        u4271 0208  
                      u4263 01E2                        u4191 12F9                        u4511 1FFA  
                      u4520 1D57                        u3480 09D2                        u3800 0F53  
                      u3720 0ED9                        u3712 0EB8                        u3632 0DB3  
                      u3560 0CF2                        u2920 17E8                        u2840 178E  
                      u2760 1751                        u2736 1707                        u2680 16A7  
                      u2672 169C                        u4440 06A1                        u4360 04C9  
                      u4264 01E3                        u4521 1D56                        u3481 09D1  
                      u3801 0F52                        u3713 0EBF                        u3641 0DC8  
                      u3633 0DBA                        u3561 0CF1                        u2921 17E7  
                      u2841 178D                        u2761 1750                        u2681 16A6  
                      u2673 16A3                        u2585 1637                        u4441 06A0  
                      u4361 04C8                        u4281 0268                        u4273 0205  
                      u4265 01E8                        u4530 1D62                        u3490 09E1  
                      u3810 0F58                        u3642 0DCF                        u3570 0CF8  
                      u2930 17ED                        u2850 1795                        u2770 1756  
                      u2690 16AB                        u4450 077F                        u4370 04EF  
                      u4290 0295                        u4282 0269                        u4266 01E9  
                      u4610 1D4F                        u4531 1D61                        u3811 0F57  
                      u3731 0EE5                        u3643 0DD6                        u3571 0CF7  
                      u2931 17EC                        u2851 1794                        u2771 1755  
                      u2691 16AA                        u4451 077E                        u4371 04EE  
                      u4355 044F                        u4291 0294                        u4283 026E  
                      u4611 1D4E                        u4540 1D69                        u4620 10B5  
                      u4700 1E78                        u3820 0F6C                        u3740 0F01  
                      u3732 0EEC                        u3580 0CFD                        u2940 17FE  
                      u2860 179B                        u3900 1E38                        u4460 078E  
                      u4380 04F5                        u4284 026F                        u4541 1D68  
                      u4621 10B4                        u4605 1011                        u3821 0F6B  
                      u3733 0EF3                        u3725 0ED4                        u3661 0DFC  
                      u3581 0CFC                        u2941 17FD                        u2861 179A  
                      u3901 1E37                        u4461 078D                        u4381 04F4  
                      u4293 0291                        u4285 0274                        u4550 1D70  
                      u4710 1E9A                        u2950 1DEE                        u3830 0F73  
                      u3662 0E03                        u3590 0D14                        u2870 17AD  
                      u2790 176E                        u3910 1E60                        u4470 07BA  
                      u4390 056C                        u4286 0275                        u4551 1D6F  
                      u3495 09DC                        u2951 1DED                        u3831 0F72  
                      u3751 0F0D                        u3671 0E27                        u3663 0E0A  
                      u3655 0DD8                        u3591 0D13                        u2871 17AC  
                      u2791 176D                        u3911 1E5F                        u4471 07B8  
                      u4455 077B                        u4391 056B                        u4640 10D8  
                      u4720 1EAC                        u4800 0094                        u3840 0F79  
                      u3752 0F14                        u3672 0E2E                        u2880 17BE  
                      u3920 116A                        u4480 07BB                        u4560 1497  
                      u4641 10D7                        u4721 1EAB                        u4801 0093  
                      u3841 0F78                        u3753 0F1B                        u3745 0EFC  
                      u3673 0E35                        u2785 1763                        u4465 078A  
                      u4561 1496                        u4730 1F49                        u2970 1E02  
                      u3850 0F8B                        u2890 17CD                        u3930 1179  
                      u4490 07C6                        u4570 14BA                        u4731 1F48  
                      u4635 10BB                        u2971 1E01                        u3851 0F8A  
                      u3691 0E5B                        u2891 17CC                        u3931 1178  
                      u3915 1E5C                        u4491 07C5                        u4571 14B9  
                      u4660 10FB                        u4820 00A4                        u4740 002F  
                      u3860 0F9A                        u3780 0F3F                        u3692 0E62  
                      u3940 1187                        u2980 1E30                        u4580 14FD  
                      u4661 10FA                        u4821 00A3                        u4741 002E  
                      u2965 1DF5                        u3781 0F3E                        u3765 0F1D  
                      u3693 0E69                        u3685 0E37                        u2885 17B9  
                      u3925 1165                        u2981 1E2F                        u4581 14FC  
                      u4830 00AA                        u4750 0033                        u3870 0FB7  
                      u3950 1192                        u2990 1DC1                        u4590 1568  
                      u4655 10DE                        u4831 00A9                        u4815 0099  
                      u4751 0032                        u3871 0FB6                        u3775 0F34  
                      u3951 1191                        u2991 1DC0                        u4591 1567  
                      u4680 111E                        u4840 00AE                        u4760 0053  
                      u3880 0FD1                        u3960 11A2                        u4681 111D  
                      u4841 00AD                        u4761 0052                        u3881 0FD0  
                      u3865 0F95                        u3961 11A1                        u3945 1182  
                      u4850 00C3                        u3890 0FED                        u3970 11B0  
                      u4675 1101                        u4907 1021                        u3891 0FEC  
                      u3875 0FB3                        u3795 0F42                        u4860 00D3  
                      u4780 0072                        u3980 11BC                        u4917 1032  
                      u4861 00D2                        u4781 0071                        u3885 0FCD  
                      u3981 11BA                        u4870 00D7                        u3990 11BD  
                      u4927 081A                        u4695 1124                        u4871 00D6  
                      u4855 00BE                        u4775 0064                        u3975 11AB  
                      u4880 0CB0                        u4937 0829                        u4881 0CAF  
                      u4947 0838                        u4795 0086                        u4957 1D0D  
                      u4967 1F3F                        u4897 0C82           ?_Lcd_Write_String 0075  
                      _dbuf 0110                        _labs 1CE7                        _main 0A3D  
                      _prec 00ED                        pad@i 0025                        pad@p 007C  
                      btemp 007E               ___fpclassifyf 113C                        start 0000  
        ??_Lcd_Write_String 0077             ___fldiv@new_exp 0054             __end_of_Lcd_Cmd 1D16  
                     ??_LCD 0070                       ??_pad 0024               ___fltol@sign1 0078  
                     ?_labs 0070             __end_of___fladd 1800                       ?_main 0070  
           __end_of___fldiv 0A3D             __end_of___flneg 1CD6             __end_of___flmul 1000  
           __end_of___flsub 1DBB             __end_of___fltol 10AF                vfpfcnvrt@fmt 00D6  
                     _TRISB 0086                       _flags 00EF         read_prec_or_width@c 0078  
       read_prec_or_width@n 0079                       _fputc 1F50                       _fputs 1E07  
                     labs@a 0070                       _water 01A8                       pad@fp 0027  
                     _width 01B4                       _putch 0802                       pclath 000A  
                     status 0003                       wtemp0 007E             __end_of_sprintf 1D97  
            ?___fpclassifyf 0070            __end_of_Lcd_Init 086E            __end_of_Lcd_Port 1D74  
           __initialization 07E6                __end_of_labs 1CFC                __end_of_main 0CBB  
                 ??_ADCInit 0070                   ??_ADCRead 0072                      ??_labs 0074  
                    ??_main 00EB  __end_of_read_prec_or_width 2000                      ?_fputc 0070  
                    ?_fputs 0078                      _ADRESH 001E                      _ADRESL 009E  
                    ?_putch 0070                   ??_Lcd_Cmd 0071                      _TRISA0 0428  
                    _TRISA1 0429                      _TRISA2 042A                      _TRISD2 0442  
          __end_of___xxtofl 00E1                vfprintf@cfmt 00E4                      ___flge 11C9  
                    ___fleq 1EAD                   ??___fladd 0020                      ___wmul 1DBB  
                 ??___fldiv 004A                   ??___flneg 0074                   ??___flmul 0030  
                 ??___flsub 007E                   ??___fltol 0074                      _efgtoa 126D  
                    _floorf 1376                      _memcpy 0003        read_prec_or_width@ap 0076  
                    pad@buf 007B                      _strcpy 1D16                      fputc@c 0070  
                    fputs@c 0020                      fputs@i 0021                      fputs@s 0023  
           ___fpclassifyf@e 0020             ___fpclassifyf@u 0022             ___fpclassifyf@x 0070  
                    putch@c 0070            __end_of_vfprintf 1D52                   ??_sprintf 00EA  
           Lcd_Set_Cursor@a 0076             Lcd_Set_Cursor@b 0074             Lcd_Set_Cursor@y 0078  
           Lcd_Set_Cursor@z 0077                  ___flge@ff1 0042                  ___flge@ff2 0046  
           ??___fpclassifyf 0074                ___xxtofl@arg 007A                ___xxtofl@exp 0079  
              ___xxtofl@val 0070                  ___fleq@ff1 0070                  ___fleq@ff2 0074  
   __end_of__initialization 07FC                  ___flneg@f1 0070           __end_of_Lcd_Clear 0810  
                ___fltol@f1 0070              __pcstackCOMMON 0070               __end_of_fputc 1FA6  
             __end_of_fputs 1E31               __end_of_putch 0803             _temperature_ADC 01B6  
            _Lcd_Set_Cursor 10AF                   ?_Lcd_Init 0070                   ?_Lcd_Port 0070  
                   ??_fputc 0073                     ??_fputs 0079                     ??_putch 0070  
                __pbssBANK1 00ED                  __pbssBANK2 0110                  __pbssBANK3 0190  
         __end_of__Umul8_16 1E07                  _efgtoa$789 00AF                  __pmaintext 0A3D  
                   ?___flge 0042                     ?___fleq 0070                     ?___wmul 0070  
                   ?_efgtoa 00A0                     ?_floorf 005C                     ?_memcpy 0070  
                   _ADCInit 1CD6                     _ADCRead 1EFB      __end_of_Lcd_Set_Cursor 113C  
                   ?_strcpy 0070                   ?___xxtofl 0070                  ??_Lcd_Init 0074  
                ??_Lcd_Port 0070                  __stringtab 1800              _Lcd_Write_Char 1004  
                   _Lcd_Cmd 1CFC                     ___fladd 159C                     ___fldiv 086E  
                   ___flneg 1CCB                     ___flmul 0CBB                     ___flsub 1D97  
                   ___fltol 1039                   ?_vfprintf 00E1             ?_Lcd_Set_Cursor 0074  
                   __ptext1 1D74                     __ptext2 1D31                     __ptext3 1485  
                   __ptext4 1FA6                     __ptext5 1DBB                     __ptext6 126D  
                   __ptext7 1D16                     __ptext8 1E31                     __ptext9 1E07  
     read_prec_or_width@fmt 007B                  ??___xxtofl 0074                     efgtoa@c 00A4  
                   efgtoa@d 00B4                     efgtoa@e 00B9                     efgtoa@f 00A0  
                   efgtoa@g 00CE                     efgtoa@h 00C3                     efgtoa@i 00C1  
                   efgtoa@l 00C7                     efgtoa@m 00B6                     efgtoa@n 00CC  
                   efgtoa@p 00AB                     efgtoa@t 00AD                     efgtoa@u 00D2  
                   efgtoa@w 00BB                     _sprintf 1D74                     clrloop0 1CC4  
    __end_of_Lcd_Write_Char 1039        end_of_initialization 07FC                     floorf@e 006A  
                   floorf@m 0066                     floorf@u 006C                     floorf@x 005C  
                   memcpy@d 0075                     memcpy@n 0071                     memcpy@s 0076  
                   fputc@fp 0072                     fputs@fp 0078          _read_prec_or_width 1FA6  
         __end_of_vfpfcnvrt 159C                  efgtoa@mode 00B2                  efgtoa@sign 00CB  
       ?_read_prec_or_width 0076                     psplit$0 120031            vfpfcnvrt@convarg 00DA  
                 Lcd_Port@a 0070                  ??_vfprintf 007E                     strcpy@d 0071  
                 _PORTDbits 0008                 ___fladd@grs 007B               ___xxtofl@sign 0078  
      ??_read_prec_or_width 0078                 ___fldiv@grs 0056                 ___fldiv@rem 004F  
           ?_Lcd_Write_Char 0070           Lcd_Write_String@a 0075           Lcd_Write_String@i 007A  
               ___flmul@grs 0036                   _Lcd_Clear 0803              __end_of___flge 126D  
            __end_of___fleq 1EFB                 vfpfcnvrt@ap 00D7                 vfpfcnvrt@cp 00E0  
               vfpfcnvrt@fp 00DF              __end_of___wmul 1DE0            _Lcd_Write_String 1E6B  
            __end_of_efgtoa 07E6              __end_of_floorf 1485              __end_of_memcpy 0029  
                floorf@F521 0190              __end_of_strcpy 1D31         start_initialization 07E6  
               __end_of_LCD 1004                 __end_of_pad 1E6B           pnum$text6_split_1 0031  
                  ADCRead@x 0070       __end_of___fpclassifyf 11C9                 vfprintf@fmt 00E1  
                ?_Lcd_Clear 0070                    ??___flge 004A                    ??___fleq 0078  
                  ??___wmul 0074                    ??_efgtoa 00A5                   __Umul8_16 1DE0  
                  ??_floorf 0060                    ??_memcpy 0073             Lcd_Write_Char@a 0074  
           Lcd_Write_Char@y 0073                    ?_ADCInit 0070                    ?_ADCRead 0070  
                  ??_strcpy 0071                   ___fladd@a 0074                   ___fladd@b 0070  
                 ___fldiv@a 0042                   ___fldiv@b 0046                   ___flmul@a 002C  
                 ___flmul@b 0028                   ___flsub@a 0042                   ___flsub@b 0046  
                 ___latbits 0002       _soil_moisture_percent 01A4               __pcstackBANK0 0020  
             __pcstackBANK1 00A0               __pcstackBANK3 01D0                    ?_Lcd_Cmd 0070  
          ??_Lcd_Set_Cursor 0075                    ?___fladd 0070                    ?___fldiv 0042  
                  ?___flneg 0070                    ?___flmul 0028                    ?___flsub 0042  
                  ?___fltol 0070                  ?__Umul8_16 0070                   __pstrings 1800  
                  ?_sprintf 00E5         _temperature_celsius 019C              ___wmul@product 0074  
                 clear_ram0 1CC3                    Lcd_Cmd@a 0073                    _GO_nDONE 00FA  
               ??_Lcd_Clear 0074                   _temp_volt 0198                   _vfpfcnvrt 1485  
                _ADCON0bits 001F                 __stringbase 180F                  _ADCON1bits 009F  
         ___wmul@multiplier 0070            ??_Lcd_Write_Char 0071                    _Lcd_Init 0810  
                  _Lcd_Port 1D52                  vfpfcnvrt@c 00DE    __end_of_Lcd_Write_String 1EAD  
                 memcpy@tmp 0073                  vfprintf@ap 00E2                  vfprintf@fp 00E3  
       _water_level_percent 01A0                 ??__Umul8_16 0072                  ?_vfpfcnvrt 00D6  
        __end_of__stringtab 1810          ___fpclassifyf@F465 0194                  sprintf@fmt 00E5  
                  ___xxtofl 0029                    __ptext10 1F50                    __ptext11 0802  
                  __ptext20 0CBB                    __ptext12 0003                    __ptext21 1DE0  
                  __ptext13 1CE7                    __ptext30 0803                    __ptext22 11C9  
                  __ptext14 1376                    __ptext31 1CFC                    __ptext23 1EAD  
                  __ptext15 113C                    __ptext32 1D52                    __ptext24 086E  
                  __ptext16 1039                    __ptext33 1000                    __ptext25 0029  
                  __ptext17 1D97                    __ptext34 1EFB                    __ptext26 1E6B  
                  __ptext18 159C                    __ptext35 1CD6                    __ptext27 1004  
                  __ptext19 1CCB                    __ptext28 10AF                    __ptext29 0810  
                strcpy@dest 0072                   pnum$text6 0012                    efgtoa@fp 00B8  
                  efgtoa@ne 00A9                    efgtoa@pp 00B1                    efgtoa@ou 00BD  
                  _vfprintf 1D31                    memcpy@d1 0074                    memcpy@s1 0070  
       _soil_moisture_value 01CE          Lcd_Write_Char@temp 0072                   sprintf@ap 01D0  
                 strcpy@src 0070                   stringcode 180A                 efgtoa@nmode 00B3  
               ??_vfpfcnvrt 00D8                _soilMoisture 01B0          Lcd_Set_Cursor@temp 0079  
    __Umul8_16@multiplicand 0070                 _temperature 01AC                    sprintf@f 01D2  
                  sprintf@s 01D1                    stringdir 180A                    stringtab 1800  
             ___fladd@signs 0078                 _water_level 01CC                ___fladd@aexp 0079  
              ___fladd@bexp 007A        __Umul8_16@multiplier 0078           __Umul8_16@product 0074  
